 audio_interrupt

 Timestamp is 5f18a1bd (Wed Jul 22 16:29:49 2020)

 Preferred load address is 00400000

 Start         Length     Name                   Class
 0001:00000000 000001d0H .text$di                CODE
 0001:000001d0 00090c00H .text$mn                CODE
 0001:00090dd0 00003d70H .text$x                 CODE
 0001:00094b40 0000009dH .text$yd                CODE
 0002:00000000 00000724H .idata$5                DATA
 0002:00000724 00000004H .00cfg                  DATA
 0002:00000728 00000004H .CRT$XCA                DATA
 0002:0000072c 00000004H .CRT$XCAA               DATA
 0002:00000730 00000008H .CRT$XCL                DATA
 0002:00000738 00000020H .CRT$XCU                DATA
 0002:00000758 00000004H .CRT$XCZ                DATA
 0002:0000075c 00000004H .CRT$XIA                DATA
 0002:00000760 00000004H .CRT$XIAA               DATA
 0002:00000764 00000004H .CRT$XIAC               DATA
 0002:00000768 00000004H .CRT$XIC                DATA
 0002:0000076c 00000004H .CRT$XIZ                DATA
 0002:00000770 00000004H .CRT$XLA                DATA
 0002:00000774 00000004H .CRT$XLZ                DATA
 0002:00000778 00000004H .CRT$XPA                DATA
 0002:0000077c 00000004H .CRT$XPZ                DATA
 0002:00000780 00000004H .CRT$XTA                DATA
 0002:00000784 0000000cH .CRT$XTZ                DATA
 0002:00000788 00000000H .gfids$y                DATA
 0002:00000790 00022dc0H .rdata                  DATA
 0002:00023550 00000018H .rdata$T                DATA
 0002:00023568 00005308H .rdata$r                DATA
 0002:00028870 000003a4H .rdata$sxdata           DATA
 0002:00028c14 000003f0H .rdata$zzzdbg           DATA
 0002:00029004 00000004H .rtc$IAA                DATA
 0002:00029008 00000004H .rtc$IZZ                DATA
 0002:0002900c 00000004H .rtc$TAA                DATA
 0002:00029010 00000004H .rtc$TZZ                DATA
 0002:00029014 00000004H .tls                    DATA
 0002:00029018 00000004H .tls$                   DATA
 0002:0002901c 00000004H .tls$ZZZ                DATA
 0002:00029020 00003960H .xdata$x                DATA
 0002:0002c978 00000000H ATL$__a                 DATA
 0002:0002c978 00000000H ATL$__z                 DATA
 0002:0002c980 0001a7c4H .edata                  DATA
 0002:00047144 00000208H .idata$2                DATA
 0002:0004734c 00000014H .idata$3                DATA
 0002:00047360 00000724H .idata$4                DATA
 0002:00047a84 00002590H .idata$6                DATA
 0003:00000000 00000358H .data                   DATA
 0003:00000358 000023f0H .data$r                 DATA
 0003:00002748 00000d10H .bss                    DATA
 0004:00000000 00003680H .rsrc$01                DATA
 0004:00003680 0006afb0H .rsrc$02                DATA

  Address         Publics by Value              Rva+Base       Lib:Object

 0000:00000000       ___hybrid_auxiliary_iat    00000000     <absolute>
 0000:00000000       ___guard_fids_table        00000000     <absolute>
 0000:00000000       ___guard_iat_table         00000000     <absolute>
 0000:00000000       ___hybrid_code_map_count   00000000     <absolute>
 0000:00000000       ___guard_longjmp_table     00000000     <absolute>
 0000:00000000       ___guard_fids_count        00000000     <absolute>
 0000:00000000       ___volatile_metadata       00000000     <absolute>
 0000:00000000       ___enclave_config          00000000     <absolute>
 0000:00000000       ___guard_iat_count         00000000     <absolute>
 0000:00000000       ___dynamic_value_reloc_table 00000000     <absolute>
 0000:00000000       ___guard_longjmp_count     00000000     <absolute>
 0000:00000000       ___hybrid_code_map         00000000     <absolute>
 0000:0000002c       __tls_array                0000002c     <absolute>
 0000:000000e9       ___safe_se_handler_count   000000e9     <absolute>
 0000:00000100       ___guard_flags             00000100     <absolute>
 0000:00000000       ___ImageBase               00400000     <linker-defined>
 0001:000001d0       ??$?0$$V@?$_Compressed_pair@V?$allocator@_W@std@@V?$_String_val@U?$_Simple_types@_W@std@@@2@$00@std@@QAE@U_Zero_then_variadic_args_t@1@@Z 004011d0 f i AnnotateBarWindow.obj
 0001:000001f0       ??$?8_WU?$char_traits@_W@std@@V?$allocator@_W@1@@std@@YA_NABV?$basic_string@_WU?$char_traits@_W@std@@V?$allocator@_W@2@@0@QB_W@Z 004011f0 f i AnnotateBarWindow.obj
 0001:00000210       ??$?9_WU?$char_traits@_W@std@@V?$allocator@_W@1@@std@@YA_NABV?$basic_string@_WU?$char_traits@_W@std@@V?$allocator@_W@2@@0@QB_W@Z 00401210 f i AnnotateBarWindow.obj
 0001:00000250       ??$_Allocate@$07U_Default_allocate_traits@std@@$0A@@std@@YAPAXI@Z 00401250 f i AnnotateBarWindow.obj
 0001:00000290       ??$_Allocate_manually_vector_aligned@U_Default_allocate_traits@std@@@std@@YAPAXI@Z 00401290 f i AnnotateBarWindow.obj
 0001:00000300       ??$forward@AAPAU?$_Tree_node@PAVIAuthServiceEvent@ZOOMSDK@@PAX@std@@@std@@YAAAPAU?$_Tree_node@PAVIAuthServiceEvent@ZOOMSDK@@PAX@0@AAPAU10@@Z 00401300 f i sdk_util.obj
 0001:00000300       ??$forward@V?$_Tree_iterator@V?$_Tree_val@U?$_Tree_simple_types@U?$pair@$$CBIPAVIUserInfo@ZOOMSDK@@@std@@@std@@@std@@@std@@@std@@YA$$QAV?$_Tree_iterator@V?$_Tree_val@U?$_Tree_simple_types@U?$pair@$$CBIPAVIUserInfo@ZOOMSDK@@@std@@@std@@@std@@@0@AAV10@@Z 00401300 f i user_manager.obj
 0001:00000300       ??$forward@V?$_Tree_const_iterator@V?$_Tree_val@U?$_Tree_simple_types@PAVIMeetingChatCtrlEvent@ZOOMSDK@@@std@@@std@@@std@@@std@@YA$$QAV?$_Tree_const_iterator@V?$_Tree_val@U?$_Tree_simple_types@PAVIMeetingChatCtrlEvent@ZOOMSDK@@@std@@@std@@@0@AAV10@@Z 00401300 f i sdk_util.obj
 0001:00000300       ??$forward@V?$basic_string@_WU?$char_traits@_W@std@@V?$allocator@_W@2@@std@@@std@@YA$$QAV?$basic_string@_WU?$char_traits@_W@std@@V?$allocator@_W@2@@0@AAV10@@Z 00401300 f i custom_ui_share_flow.obj
 0001:00000300       ??$forward@AAV?$_Tree_const_iterator@V?$_Tree_val@U?$_Tree_simple_types@PAVIMeetingChatCtrlEvent@ZOOMSDK@@@std@@@std@@@std@@@std@@YAAAV?$_Tree_const_iterator@V?$_Tree_val@U?$_Tree_simple_types@PAVIMeetingChatCtrlEvent@ZOOMSDK@@@std@@@std@@@0@AAV10@@Z 00401300 f i sdk_util.obj
 0001:00000300       ??$forward@ABUpiecewise_construct_t@std@@@std@@YAABUpiecewise_construct_t@0@ABU10@@Z 00401300 f i user_manager.obj
 0001:00000300       ??$addressof@V?$basic_string@_WU?$char_traits@_W@std@@V?$allocator@_W@2@@std@@@std@@YAPAV?$basic_string@_WU?$char_traits@_W@std@@V?$allocator@_W@2@@0@AAV10@@Z 00401300 f i chat_controller_ui.obj
 0001:00000300       ??$addressof@PAVIMeetingChatCtrlEvent@ZOOMSDK@@@std@@YAPAPAVIMeetingChatCtrlEvent@ZOOMSDK@@AAPAV12@@Z 00401300 f i sdk_util.obj
 0001:00000300       ??$move@AAV?$basic_string@_WU?$char_traits@_W@std@@V?$allocator@_W@2@@std@@@std@@YA$$QAV?$basic_string@_WU?$char_traits@_W@std@@V?$allocator@_W@2@@0@AAV10@@Z 00401300 f i chat_controller_ui.obj
 0001:00000300       ??$forward@ABU?$less@PAVIMeetingServiceEvent@ZOOMSDK@@@std@@@std@@YAABU?$less@PAVIMeetingServiceEvent@ZOOMSDK@@@0@ABU10@@Z 00401300 f i sdk_util.obj
 0001:00000300       ??$addressof@V?$_Tree_val@U?$_Tree_simple_types@U?$pair@$$CBIPAVIUserInfo@ZOOMSDK@@@std@@@std@@@std@@@std@@YAPAV?$_Tree_val@U?$_Tree_simple_types@U?$pair@$$CBIPAVIUserInfo@ZOOMSDK@@@std@@@std@@@0@AAV10@@Z 00401300 f i user_manager.obj
 0001:00000300       ??$forward@ABV?$basic_string@_WU?$char_traits@_W@std@@V?$allocator@_W@2@@std@@@std@@YAABV?$basic_string@_WU?$char_traits@_W@std@@V?$allocator@_W@2@@0@ABV10@@Z 00401300 f i schedule_meeting_ui.obj
 0001:00000300       ??$addressof@V?$_Tree_val@U?$_Tree_simple_types@PAVIMeetingChatCtrlEvent@ZOOMSDK@@@std@@@std@@@std@@YAPAV?$_Tree_val@U?$_Tree_simple_types@PAVIMeetingChatCtrlEvent@ZOOMSDK@@@std@@@0@AAV10@@Z 00401300 f i sdk_util.obj
 0001:00000300       ??$addressof@V?$_List_val@U?$_List_simple_types@H@std@@@std@@@std@@YAPAV?$_List_val@U?$_List_simple_types@H@std@@@0@AAV10@@Z 00401300 f i participant_ui.obj
 0001:00000300       ??$forward@ABQAVIClosedCaptionControllerEvent@ZOOMSDK@@@std@@YAABQAVIClosedCaptionControllerEvent@ZOOMSDK@@ABQAV12@@Z 00401300 f i sdk_util.obj
 0001:00000300       ??$forward@ABU?$less@PAVIMeetingParticipantsCtrlEvent@ZOOMSDK@@@std@@@std@@YAABU?$less@PAVIMeetingParticipantsCtrlEvent@ZOOMSDK@@@0@ABU10@@Z 00401300 f i sdk_util.obj
 0001:00000300       ??$addressof@V?$_Tree_val@U?$_Tree_simple_types@PAVIAuthServiceEvent@ZOOMSDK@@@std@@@std@@@std@@YAPAV?$_Tree_val@U?$_Tree_simple_types@PAVIAuthServiceEvent@ZOOMSDK@@@std@@@0@AAV10@@Z 00401300 f i sdk_util.obj
 0001:00000300       ??$forward@ABU?$less@PAVISDKInMeetingServiceMgrEvent@@@std@@@std@@YAABU?$less@PAVISDKInMeetingServiceMgrEvent@@@0@ABU10@@Z 00401300 f i sdk_util.obj
 0001:00000300       ??$forward@AAV?$_Tree_const_iterator@V?$_Tree_val@U?$_Tree_simple_types@PAVIMeetingVideoCtrlEvent@ZOOMSDK@@@std@@@std@@@std@@@std@@YAAAV?$_Tree_const_iterator@V?$_Tree_val@U?$_Tree_simple_types@PAVIMeetingVideoCtrlEvent@ZOOMSDK@@@std@@@std@@@0@AAV10@@Z 00401300 f i sdk_util.obj
 0001:00000300       ??$forward@V?$_Tree_const_iterator@V?$_Tree_val@U?$_Tree_simple_types@PAVIAuthServiceEvent@ZOOMSDK@@@std@@@std@@@std@@@std@@YA$$QAV?$_Tree_const_iterator@V?$_Tree_val@U?$_Tree_simple_types@PAVIAuthServiceEvent@ZOOMSDK@@@std@@@std@@@0@AAV10@@Z 00401300 f i sdk_util.obj
 0001:00000300       ??$addressof@V?$_Tree_val@U?$_Tree_simple_types@PAVIPreMeetingServiceEvent@ZOOMSDK@@@std@@@std@@@std@@YAPAV?$_Tree_val@U?$_Tree_simple_types@PAVIPreMeetingServiceEvent@ZOOMSDK@@@std@@@0@AAV10@@Z 00401300 f i sdk_util.obj
 0001:00000300       ??$addressof@V?$_Tree_val@U?$_Tree_simple_types@PAVIMeetingServiceEvent@ZOOMSDK@@@std@@@std@@@std@@YAPAV?$_Tree_val@U?$_Tree_simple_types@PAVIMeetingServiceEvent@ZOOMSDK@@@std@@@0@AAV10@@Z 00401300 f i sdk_util.obj
 0001:00000300       ??$_Get_unwrapped@V?$basic_string@_WU?$char_traits@_W@std@@V?$allocator@_W@2@@std@@@std@@YAPAV?$basic_string@_WU?$char_traits@_W@std@@V?$allocator@_W@2@@0@QAV10@@Z 00401300 f i custom_ui_share_flow.obj
 0001:00000300       ?_Kfn@?$_Tset_traits@PAVISDKInMeetingServiceMgrEvent@@U?$less@PAVISDKInMeetingServiceMgrEvent@@@std@@V?$allocator@PAVISDKInMeetingServiceMgrEvent@@@3@$0A@@std@@SAABQAVISDKInMeetingServiceMgrEvent@@ABQAV3@@Z 00401300 f i sdk_util.obj
 0001:00000300       ??$addressof@PAU?$_Tree_node@PAVIClosedCaptionControllerEvent@ZOOMSDK@@PAX@std@@@std@@YAPAPAU?$_Tree_node@PAVIClosedCaptionControllerEvent@ZOOMSDK@@PAX@0@AAPAU10@@Z 00401300 f i sdk_util.obj
 0001:00000300       ??$forward@AAV?$_Tree_const_iterator@V?$_Tree_val@U?$_Tree_simple_types@PAVIAuthServiceEvent@ZOOMSDK@@@std@@@std@@@std@@@std@@YAAAV?$_Tree_const_iterator@V?$_Tree_val@U?$_Tree_simple_types@PAVIAuthServiceEvent@ZOOMSDK@@@std@@@std@@@0@AAV10@@Z 00401300 f i sdk_util.obj
 0001:00000300       ??$addressof@V?$_String_val@U?$_Simple_types@_W@std@@@std@@@std@@YAPAV?$_String_val@U?$_Simple_types@_W@std@@@0@AAV10@@Z 00401300 f i chat_controller_ui.obj
 0001:00000300       ??$forward@AAV?$_Tree_const_iterator@V?$_Tree_val@U?$_Tree_simple_types@PAVIClosedCaptionControllerEvent@ZOOMSDK@@@std@@@std@@@std@@@std@@YAAAV?$_Tree_const_iterator@V?$_Tree_val@U?$_Tree_simple_types@PAVIClosedCaptionControllerEvent@ZOOMSDK@@@std@@@std@@@0@AAV10@@Z 00401300 f i sdk_util.obj
 0001:00000300       ??$addressof@$$CBV?$_Tree_val@U?$_Tree_simple_types@PAVIAuthServiceEvent@ZOOMSDK@@@std@@@std@@@std@@YAPBV?$_Tree_val@U?$_Tree_simple_types@PAVIAuthServiceEvent@ZOOMSDK@@@std@@@0@ABV10@@Z 00401300 f i sdk_util.obj
 0001:00000300       ??$addressof@PA_W@std@@YAPAPA_WAAPA_W@Z 00401300 f i AnnotateBarWindow.obj
 0001:00000300       ??$addressof@PAU?$_List_node@HPAX@std@@@std@@YAPAPAU?$_List_node@HPAX@0@AAPAU10@@Z 00401300 f i participant_ui.obj
 0001:00000300       ??$forward@V?$allocator@_W@std@@@std@@YA$$QAV?$allocator@_W@0@AAV10@@Z 00401300 f i chat_controller_ui.obj
 0001:00000300       ??$forward@V?$tuple@$$V@std@@@std@@YA$$QAV?$tuple@$$V@0@AAV10@@Z 00401300 f i user_manager.obj
 0001:00000300       ?_Kfn@?$_Tset_traits@PAVIMeetingParticipantsCtrlEvent@ZOOMSDK@@U?$less@PAVIMeetingParticipantsCtrlEvent@ZOOMSDK@@@std@@V?$allocator@PAVIMeetingParticipantsCtrlEvent@ZOOMSDK@@@4@$0A@@std@@SAABQAVIMeetingParticipantsCtrlEvent@ZOOMSDK@@ABQAV34@@Z 00401300 f i sdk_util.obj
 0001:00000300       ??$_Unfancy@PAVIVirtualBGImageInfo@ZOOMSDK@@@std@@YAPAPAVIVirtualBGImageInfo@ZOOMSDK@@PAPAV12@@Z 00401300 f i settings_ui.obj
 0001:00000300       ??$forward@ABU?$less@PAVIMeetingVideoCtrlEvent@ZOOMSDK@@@std@@@std@@YAABU?$less@PAVIMeetingVideoCtrlEvent@ZOOMSDK@@@0@ABU10@@Z 00401300 f i sdk_util.obj
 0001:00000300       ??$addressof@PAVIClosedCaptionControllerEvent@ZOOMSDK@@@std@@YAPAPAVIClosedCaptionControllerEvent@ZOOMSDK@@AAPAV12@@Z 00401300 f i sdk_util.obj
 0001:00000300       ??$forward@ABU?$less@PAVIClosedCaptionControllerEvent@ZOOMSDK@@@std@@@std@@YAABU?$less@PAVIClosedCaptionControllerEvent@ZOOMSDK@@@0@ABU10@@Z 00401300 f i sdk_util.obj
 0001:00000300       ??$forward@PAVIUserInfo@ZOOMSDK@@@std@@YA$$QAPAVIUserInfo@ZOOMSDK@@AAPAV12@@Z 00401300 f i user_manager.obj
 0001:00000300       ??$forward@V?$_Tree_const_iterator@V?$_Tree_val@U?$_Tree_simple_types@PAVIMeetingParticipantsCtrlEvent@ZOOMSDK@@@std@@@std@@@std@@@std@@YA$$QAV?$_Tree_const_iterator@V?$_Tree_val@U?$_Tree_simple_types@PAVIMeetingParticipantsCtrlEvent@ZOOMSDK@@@std@@@std@@@0@AAV10@@Z 00401300 f i sdk_util.obj
 0001:00000300       ??$forward@AAPAVIMeetingVideoCtrlEvent@ZOOMSDK@@@std@@YAAAPAVIMeetingVideoCtrlEvent@ZOOMSDK@@AAPAV12@@Z 00401300 f i sdk_util.obj
 0001:00000300       ??$addressof@V?$_Tree_val@U?$_Tree_simple_types@PAVISDKInMeetingServiceMgrEvent@@@std@@@std@@@std@@YAPAV?$_Tree_val@U?$_Tree_simple_types@PAVISDKInMeetingServiceMgrEvent@@@std@@@0@AAV10@@Z 00401300 f i sdk_util.obj
 0001:00000300       ??$forward@ABU?$less@PAVIPreMeetingServiceEvent@ZOOMSDK@@@std@@@std@@YAABU?$less@PAVIPreMeetingServiceEvent@ZOOMSDK@@@0@ABU10@@Z 00401300 f i sdk_util.obj
 0001:00000300       ??$_Convert_size@I@std@@YAII@Z 00401300 f i AnnotateBarWindow.obj
 0001:00000300       ?_Kfn@?$_Tset_traits@PAVIMeetingChatCtrlEvent@ZOOMSDK@@U?$less@PAVIMeetingChatCtrlEvent@ZOOMSDK@@@std@@V?$allocator@PAVIMeetingChatCtrlEvent@ZOOMSDK@@@4@$0A@@std@@SAABQAVIMeetingChatCtrlEvent@ZOOMSDK@@ABQAV34@@Z 00401300 f i sdk_util.obj
 0001:00000300       ??$_Unfancy@_W@std@@YAPA_WPA_W@Z 00401300 f i AnnotateBarWindow.obj
 0001:00000300       ?select_on_container_copy_construction@?$_Default_allocator_traits@V?$allocator@_W@std@@@std@@SA?AV?$allocator@_W@2@ABV32@@Z 00401300 f i schedule_meeting_ui.obj
 0001:00000300       ??$addressof@PAU?$_Tree_node@PAVIMeetingVideoCtrlEvent@ZOOMSDK@@PAX@std@@@std@@YAPAPAU?$_Tree_node@PAVIMeetingVideoCtrlEvent@ZOOMSDK@@PAX@0@AAPAU10@@Z 00401300 f i sdk_util.obj
 0001:00000300       ??$forward@AAPAU?$_Tree_node@PAVIMeetingVideoCtrlEvent@ZOOMSDK@@PAX@std@@@std@@YAAAPAU?$_Tree_node@PAVIMeetingVideoCtrlEvent@ZOOMSDK@@PAX@0@AAPAU10@@Z 00401300 f i sdk_util.obj
 0001:00000300       ??$forward@AAPAVIMeetingParticipantsCtrlEvent@ZOOMSDK@@@std@@YAAAPAVIMeetingParticipantsCtrlEvent@ZOOMSDK@@AAPAV12@@Z 00401300 f i sdk_util.obj
 0001:00000300       ??$forward@ABQAVIUserInfo@ZOOMSDK@@@std@@YAABQAVIUserInfo@ZOOMSDK@@ABQAV12@@Z 00401300 f i user_manager.obj
 0001:00000300       ??$_Get_unwrapped_n@PAVIAlternativeHostInfo@ZOOMSDK@@H$0A@@std@@YAPAPAVIAlternativeHostInfo@ZOOMSDK@@QAPAV12@H@Z 00401300 f i schedule_meeting_ui.obj
 0001:00000300       ??$addressof@PAU?$_Tree_node@PAVIPreMeetingServiceEvent@ZOOMSDK@@PAX@std@@@std@@YAPAPAU?$_Tree_node@PAVIPreMeetingServiceEvent@ZOOMSDK@@PAX@0@AAPAU10@@Z 00401300 f i sdk_util.obj
 0001:00000300       ??$addressof@PAU?$_Tree_node@PAVIAuthServiceEvent@ZOOMSDK@@PAX@std@@@std@@YAPAPAU?$_Tree_node@PAVIAuthServiceEvent@ZOOMSDK@@PAX@0@AAPAU10@@Z 00401300 f i sdk_util.obj
 0001:00000300       ??$move@AAV?$tuple@ABI@std@@@std@@YA$$QAV?$tuple@ABI@0@AAV10@@Z 00401300 f i user_manager.obj
 0001:00000300       ??$forward@I@std@@YA$$QAIAAI@Z 00401300 f i user_manager.obj
 0001:00000300       ??$addressof@$$CBV?$basic_string@_WU?$char_traits@_W@std@@V?$allocator@_W@2@@std@@@std@@YAPBV?$basic_string@_WU?$char_traits@_W@std@@V?$allocator@_W@2@@0@ABV10@@Z 00401300 f i custom_ui_share_flow.obj
 0001:00000300       ??$_Unfancy@PAVIAlternativeHostInfo@ZOOMSDK@@@std@@YAPAPAVIAlternativeHostInfo@ZOOMSDK@@PAPAV12@@Z 00401300 f i schedule_meeting_ui.obj
 0001:00000300       ??$addressof@$$CBV?$_Tree_val@U?$_Tree_simple_types@PAVIMeetingChatCtrlEvent@ZOOMSDK@@@std@@@std@@@std@@YAPBV?$_Tree_val@U?$_Tree_simple_types@PAVIMeetingChatCtrlEvent@ZOOMSDK@@@std@@@0@ABV10@@Z 00401300 f i sdk_util.obj
 0001:00000300       ??$forward@AAV?$_Tree_const_iterator@V?$_Tree_val@U?$_Tree_simple_types@PAVIMeetingParticipantsCtrlEvent@ZOOMSDK@@@std@@@std@@@std@@@std@@YAAAV?$_Tree_const_iterator@V?$_Tree_val@U?$_Tree_simple_types@PAVIMeetingParticipantsCtrlEvent@ZOOMSDK@@@std@@@std@@@0@AAV10@@Z 00401300 f i sdk_util.obj
 0001:00000300       ??$forward@ABQAVIMeetingVideoCtrlEvent@ZOOMSDK@@@std@@YAABQAVIMeetingVideoCtrlEvent@ZOOMSDK@@ABQAV12@@Z 00401300 f i sdk_util.obj
 0001:00000300       ??$forward@AAPAU?$_Tree_node@U?$pair@$$CBIPAVIUserInfo@ZOOMSDK@@@std@@PAX@std@@@std@@YAAAPAU?$_Tree_node@U?$pair@$$CBIPAVIUserInfo@ZOOMSDK@@@std@@PAX@0@AAPAU10@@Z 00401300 f i user_manager.obj
 0001:00000300       ??$forward@AAPAVIClosedCaptionControllerEvent@ZOOMSDK@@@std@@YAAAPAVIClosedCaptionControllerEvent@ZOOMSDK@@AAPAV12@@Z 00401300 f i sdk_util.obj
 0001:00000300       ??$forward@AAPAVIUserInfo@ZOOMSDK@@@std@@YAAAPAVIUserInfo@ZOOMSDK@@AAPAV12@@Z 00401300 f i user_manager.obj
 0001:00000300       ??$addressof@PAU?$_Tree_node@PAVIMeetingServiceEvent@ZOOMSDK@@PAX@std@@@std@@YAPAPAU?$_Tree_node@PAVIMeetingServiceEvent@ZOOMSDK@@PAX@0@AAPAU10@@Z 00401300 f i sdk_util.obj
 0001:00000300       ?_Kfn@?$_Tset_traits@PAVIMeetingServiceEvent@ZOOMSDK@@U?$less@PAVIMeetingServiceEvent@ZOOMSDK@@@std@@V?$allocator@PAVIMeetingServiceEvent@ZOOMSDK@@@4@$0A@@std@@SAABQAVIMeetingServiceEvent@ZOOMSDK@@ABQAV34@@Z 00401300 f i sdk_util.obj
 0001:00000300       ??$forward@ABQAVISDKInMeetingServiceMgrEvent@@@std@@YAABQAVISDKInMeetingServiceMgrEvent@@ABQAV1@@Z 00401300 f i sdk_util.obj
 0001:00000300       ??$_Get_unwrapped_n@PAVIVirtualBGImageInfo@ZOOMSDK@@H$0A@@std@@YAPAPAVIVirtualBGImageInfo@ZOOMSDK@@QAPAV12@H@Z 00401300 f i settings_ui.obj
 0001:00000300       ??$forward@AAPAVIAuthServiceEvent@ZOOMSDK@@@std@@YAAAPAVIAuthServiceEvent@ZOOMSDK@@AAPAV12@@Z 00401300 f i sdk_util.obj
 0001:00000300       ??$_Get_unwrapped@PAVIVirtualBGImageInfo@ZOOMSDK@@@std@@YAPAPAVIVirtualBGImageInfo@ZOOMSDK@@QAPAV12@@Z 00401300 f i settings_ui.obj
 0001:00000300       ??$addressof@V?$_Tree_val@U?$_Tree_simple_types@PAVIClosedCaptionControllerEvent@ZOOMSDK@@@std@@@std@@@std@@YAPAV?$_Tree_val@U?$_Tree_simple_types@PAVIClosedCaptionControllerEvent@ZOOMSDK@@@std@@@0@AAV10@@Z 00401300 f i sdk_util.obj
 0001:00000300       ??$_Kfn@$$CBIPAVIUserInfo@ZOOMSDK@@@?$_Tmap_traits@IPAVIUserInfo@ZOOMSDK@@U?$less@I@std@@V?$allocator@U?$pair@$$CBIPAVIUserInfo@ZOOMSDK@@@std@@@4@$0A@@std@@SAABIABU?$pair@$$CBIPAVIUserInfo@ZOOMSDK@@@1@@Z 00401300 f i user_manager.obj
 0001:00000300       ??$addressof@V?$_Tree_val@U?$_Tree_simple_types@PAVIMeetingParticipantsCtrlEvent@ZOOMSDK@@@std@@@std@@@std@@YAPAV?$_Tree_val@U?$_Tree_simple_types@PAVIMeetingParticipantsCtrlEvent@ZOOMSDK@@@std@@@0@AAV10@@Z 00401300 f i sdk_util.obj
 0001:00000300       ??$forward@AAU?$pair@$$CBIPAVIUserInfo@ZOOMSDK@@@std@@@std@@YAAAU?$pair@$$CBIPAVIUserInfo@ZOOMSDK@@@0@AAU10@@Z 00401300 f i user_manager.obj
 0001:00000300       ??$forward@ABI@std@@YAABIABI@Z 00401300 f i user_manager.obj
 0001:00000300       ??$addressof@$$CBV?$_Tree_val@U?$_Tree_simple_types@PAVISDKInMeetingServiceMgrEvent@@@std@@@std@@@std@@YAPBV?$_Tree_val@U?$_Tree_simple_types@PAVISDKInMeetingServiceMgrEvent@@@std@@@0@ABV10@@Z 00401300 f i sdk_util.obj
 0001:00000300       ??$move@AAD@std@@YA$$QADAAD@Z 00401300 f i sdk_util.obj
 0001:00000300       ??$addressof@V?$_Tree_val@U?$_Tree_simple_types@PAVIMeetingVideoCtrlEvent@ZOOMSDK@@@std@@@std@@@std@@YAPAV?$_Tree_val@U?$_Tree_simple_types@PAVIMeetingVideoCtrlEvent@ZOOMSDK@@@std@@@0@AAV10@@Z 00401300 f i sdk_util.obj
 0001:00000300       ??$forward@U_Zero_then_variadic_args_t@std@@@std@@YA$$QAU_Zero_then_variadic_args_t@0@AAU10@@Z 00401300 f i sdk_util.obj
 0001:00000300       ??$forward@V?$tuple@ABI@std@@@std@@YA$$QAV?$tuple@ABI@0@AAV10@@Z 00401300 f i user_manager.obj
 0001:00000300       ??$_Ptr_move_cat@PAVIUserInfo@ZOOMSDK@@PAV12@@std@@YA?AU_Really_trivial_ptr_iterator_tag@0@ABQAPAVIUserInfo@ZOOMSDK@@0@Z 00401300 f i user_manager.obj
 0001:00000300       ??$addressof@V?$_Vector_val@U?$_Simple_types@PAVIUserInfo@ZOOMSDK@@@std@@@std@@@std@@YAPAV?$_Vector_val@U?$_Simple_types@PAVIUserInfo@ZOOMSDK@@@std@@@0@AAV10@@Z 00401300 f i user_manager.obj
 0001:00000300       ??$forward@V?$_Tree_const_iterator@V?$_Tree_val@U?$_Tree_simple_types@PAVISDKInMeetingServiceMgrEvent@@@std@@@std@@@std@@@std@@YA$$QAV?$_Tree_const_iterator@V?$_Tree_val@U?$_Tree_simple_types@PAVISDKInMeetingServiceMgrEvent@@@std@@@std@@@0@AAV10@@Z 00401300 f i sdk_util.obj
 0001:00000300       ??$forward@V?$_Tree_const_iterator@V?$_Tree_val@U?$_Tree_simple_types@PAVIPreMeetingServiceEvent@ZOOMSDK@@@std@@@std@@@std@@@std@@YA$$QAV?$_Tree_const_iterator@V?$_Tree_val@U?$_Tree_simple_types@PAVIPreMeetingServiceEvent@ZOOMSDK@@@std@@@std@@@0@AAV10@@Z 00401300 f i sdk_util.obj
 0001:00000300       ??$forward@AAPAU?$_Tree_node@PAVIPreMeetingServiceEvent@ZOOMSDK@@PAX@std@@@std@@YAAAPAU?$_Tree_node@PAVIPreMeetingServiceEvent@ZOOMSDK@@PAX@0@AAPAU10@@Z 00401300 f i sdk_util.obj
 0001:00000300       ??$addressof@PAVIMeetingServiceEvent@ZOOMSDK@@@std@@YAPAPAVIMeetingServiceEvent@ZOOMSDK@@AAPAV12@@Z 00401300 f i sdk_util.obj
 0001:00000300       ??$addressof@$$CBV?$_Tree_val@U?$_Tree_simple_types@PAVIPreMeetingServiceEvent@ZOOMSDK@@@std@@@std@@@std@@YAPBV?$_Tree_val@U?$_Tree_simple_types@PAVIPreMeetingServiceEvent@ZOOMSDK@@@std@@@0@ABV10@@Z 00401300 f i sdk_util.obj
 0001:00000300       ??$forward@ABQAVIAuthServiceEvent@ZOOMSDK@@@std@@YAABQAVIAuthServiceEvent@ZOOMSDK@@ABQAV12@@Z 00401300 f i sdk_util.obj
 0001:00000300       ??$addressof@$$CBV?$_Tree_val@U?$_Tree_simple_types@PAVIMeetingParticipantsCtrlEvent@ZOOMSDK@@@std@@@std@@@std@@YAPBV?$_Tree_val@U?$_Tree_simple_types@PAVIMeetingParticipantsCtrlEvent@ZOOMSDK@@@std@@@0@ABV10@@Z 00401300 f i sdk_util.obj
 0001:00000300       ??$_Get_unwrapped_n@PAVIInterpreterInfo@ZOOMSDK@@H$0A@@std@@YAPAPAVIInterpreterInfo@ZOOMSDK@@QAPAV12@H@Z 00401300 f i schedule_meeting_ui.obj
 0001:00000300       ??$addressof@U?$pair@$$CBIPAVIUserInfo@ZOOMSDK@@@std@@@std@@YAPAU?$pair@$$CBIPAVIUserInfo@ZOOMSDK@@@0@AAU10@@Z 00401300 f i user_manager.obj
 0001:00000300       ??$forward@AAPAU?$_Tree_node@PAVIMeetingServiceEvent@ZOOMSDK@@PAX@std@@@std@@YAAAPAU?$_Tree_node@PAVIMeetingServiceEvent@ZOOMSDK@@PAX@0@AAPAU10@@Z 00401300 f i sdk_util.obj
 0001:00000300       ??$forward@AAPAU?$_Tree_node@PAVIClosedCaptionControllerEvent@ZOOMSDK@@PAX@std@@@std@@YAAAPAU?$_Tree_node@PAVIClosedCaptionControllerEvent@ZOOMSDK@@PAX@0@AAPAU10@@Z 00401300 f i sdk_util.obj
 0001:00000300       ??$forward@ABQAVIMeetingChatCtrlEvent@ZOOMSDK@@@std@@YAABQAVIMeetingChatCtrlEvent@ZOOMSDK@@ABQAV12@@Z 00401300 f i sdk_util.obj
 0001:00000300       ??$_Unfancy@PAVIInterpreterInfo@ZOOMSDK@@@std@@YAPAPAVIInterpreterInfo@ZOOMSDK@@PAPAV12@@Z 00401300 f i schedule_meeting_ui.obj
 0001:00000300       ??$forward@AAPAU?$_Tree_node@PAVIMeetingParticipantsCtrlEvent@ZOOMSDK@@PAX@std@@@std@@YAAAPAU?$_Tree_node@PAVIMeetingParticipantsCtrlEvent@ZOOMSDK@@PAX@0@AAPAU10@@Z 00401300 f i sdk_util.obj
 0001:00000300       ?_Kfn@?$_Tset_traits@PAVIClosedCaptionControllerEvent@ZOOMSDK@@U?$less@PAVIClosedCaptionControllerEvent@ZOOMSDK@@@std@@V?$allocator@PAVIClosedCaptionControllerEvent@ZOOMSDK@@@4@$0A@@std@@SAABQAVIClosedCaptionControllerEvent@ZOOMSDK@@ABQAV34@@Z 00401300 f i sdk_util.obj
 0001:00000300       ??$forward@AAPAU?$_Tree_node@PAVIMeetingChatCtrlEvent@ZOOMSDK@@PAX@std@@@std@@YAAAPAU?$_Tree_node@PAVIMeetingChatCtrlEvent@ZOOMSDK@@PAX@0@AAPAU10@@Z 00401300 f i sdk_util.obj
 0001:00000300       ??$move@AAV?$allocator@_W@std@@@std@@YA$$QAV?$allocator@_W@0@AAV10@@Z 00401300 f i chat_controller_ui.obj
 0001:00000300       ??$addressof@H@std@@YAPAHAAH@Z 00401300 f i participant_ui.obj
 0001:00000300       ??$_Get_unwrapped@PAVIAlternativeHostInfo@ZOOMSDK@@@std@@YAPAPAVIAlternativeHostInfo@ZOOMSDK@@QAPAV12@@Z 00401300 f i schedule_meeting_ui.obj
 0001:00000300       ??$forward@ABQAVIMeetingServiceEvent@ZOOMSDK@@@std@@YAABQAVIMeetingServiceEvent@ZOOMSDK@@ABQAV12@@Z 00401300 f i sdk_util.obj
 0001:00000300       ??$addressof@PAU?$_Tree_node@PAVIMeetingChatCtrlEvent@ZOOMSDK@@PAX@std@@@std@@YAPAPAU?$_Tree_node@PAVIMeetingChatCtrlEvent@ZOOMSDK@@PAX@0@AAPAU10@@Z 00401300 f i sdk_util.obj
 0001:00000300       ??$forward@AAV?$_Tree_const_iterator@V?$_Tree_val@U?$_Tree_simple_types@PAVIPreMeetingServiceEvent@ZOOMSDK@@@std@@@std@@@std@@@std@@YAAAV?$_Tree_const_iterator@V?$_Tree_val@U?$_Tree_simple_types@PAVIPreMeetingServiceEvent@ZOOMSDK@@@std@@@std@@@0@AAV10@@Z 00401300 f i sdk_util.obj
 0001:00000300       ??$forward@ABU?$less@PAVIMeetingChatCtrlEvent@ZOOMSDK@@@std@@@std@@YAABU?$less@PAVIMeetingChatCtrlEvent@ZOOMSDK@@@0@ABU10@@Z 00401300 f i sdk_util.obj
 0001:00000300       ?_Kfn@?$_Tset_traits@PAVIMeetingVideoCtrlEvent@ZOOMSDK@@U?$less@PAVIMeetingVideoCtrlEvent@ZOOMSDK@@@std@@V?$allocator@PAVIMeetingVideoCtrlEvent@ZOOMSDK@@@4@$0A@@std@@SAABQAVIMeetingVideoCtrlEvent@ZOOMSDK@@ABQAV34@@Z 00401300 f i sdk_util.obj
 0001:00000300       ??$_Unfancy@V?$basic_string@_WU?$char_traits@_W@std@@V?$allocator@_W@2@@std@@@std@@YAPAV?$basic_string@_WU?$char_traits@_W@std@@V?$allocator@_W@2@@0@PAV10@@Z 00401300 f i custom_ui_share_flow.obj
 0001:00000300       ??$forward@AAPAVIMeetingChatCtrlEvent@ZOOMSDK@@@std@@YAAAPAVIMeetingChatCtrlEvent@ZOOMSDK@@AAPAV12@@Z 00401300 f i sdk_util.obj
 0001:00000300       ??$addressof@PAU?$_Tree_node@U?$pair@$$CBIPAVIUserInfo@ZOOMSDK@@@std@@PAX@std@@@std@@YAPAPAU?$_Tree_node@U?$pair@$$CBIPAVIUserInfo@ZOOMSDK@@@std@@PAX@0@AAPAU10@@Z 00401300 f i user_manager.obj
 0001:00000300       ??$forward@V?$_Tree_const_iterator@V?$_Tree_val@U?$_Tree_simple_types@PAVIMeetingServiceEvent@ZOOMSDK@@@std@@@std@@@std@@@std@@YA$$QAV?$_Tree_const_iterator@V?$_Tree_val@U?$_Tree_simple_types@PAVIMeetingServiceEvent@ZOOMSDK@@@std@@@std@@@0@AAV10@@Z 00401300 f i sdk_util.obj
 0001:00000300       ??$forward@AAV?$_Tree_const_iterator@V?$_Tree_val@U?$_Tree_simple_types@PAVISDKInMeetingServiceMgrEvent@@@std@@@std@@@std@@@std@@YAAAV?$_Tree_const_iterator@V?$_Tree_val@U?$_Tree_simple_types@PAVISDKInMeetingServiceMgrEvent@@@std@@@std@@@0@AAV10@@Z 00401300 f i sdk_util.obj
 0001:00000300       ??$addressof@$$CBV?$_Tree_val@U?$_Tree_simple_types@PAVIClosedCaptionControllerEvent@ZOOMSDK@@@std@@@std@@@std@@YAPBV?$_Tree_val@U?$_Tree_simple_types@PAVIClosedCaptionControllerEvent@ZOOMSDK@@@std@@@0@ABV10@@Z 00401300 f i sdk_util.obj
 0001:00000300       ??$forward@AAV?$_Tree_iterator@V?$_Tree_val@U?$_Tree_simple_types@U?$pair@$$CBIPAVIUserInfo@ZOOMSDK@@@std@@@std@@@std@@@std@@@std@@YAAAV?$_Tree_iterator@V?$_Tree_val@U?$_Tree_simple_types@U?$pair@$$CBIPAVIUserInfo@ZOOMSDK@@@std@@@std@@@std@@@0@AAV10@@Z 00401300 f i user_manager.obj
 0001:00000300       ??$forward@AAPAU?$_List_node@HPAX@std@@@std@@YAAAPAU?$_List_node@HPAX@0@AAPAU10@@Z 00401300 f i participant_ui.obj
 0001:00000300       ??$addressof@PAVIPreMeetingServiceEvent@ZOOMSDK@@@std@@YAPAPAVIPreMeetingServiceEvent@ZOOMSDK@@AAPAV12@@Z 00401300 f i sdk_util.obj
 0001:00000300       ??$_Get_unwrapped@PAVIUserInfo@ZOOMSDK@@@std@@YAPAPAVIUserInfo@ZOOMSDK@@QAPAV12@@Z 00401300 f i user_manager.obj
 0001:00000300       ??$forward@_N@std@@YA$$QA_NAA_N@Z 00401300 f i sdk_util.obj
 0001:00000300       ??$forward@ABQAVIAlternativeHostInfo@ZOOMSDK@@@std@@YAABQAVIAlternativeHostInfo@ZOOMSDK@@ABQAV12@@Z 00401300 f i schedule_meeting_ui.obj
 0001:00000300       ??$forward@AAPAU?$_Tree_node@PAVISDKInMeetingServiceMgrEvent@@PAX@std@@@std@@YAAAPAU?$_Tree_node@PAVISDKInMeetingServiceMgrEvent@@PAX@0@AAPAU10@@Z 00401300 f i sdk_util.obj
 0001:00000300       ?_Kfn@?$_Tset_traits@PAVIPreMeetingServiceEvent@ZOOMSDK@@U?$less@PAVIPreMeetingServiceEvent@ZOOMSDK@@@std@@V?$allocator@PAVIPreMeetingServiceEvent@ZOOMSDK@@@4@$0A@@std@@SAABQAVIPreMeetingServiceEvent@ZOOMSDK@@ABQAV34@@Z 00401300 f i sdk_util.obj
 0001:00000300       ??$forward@AAPAVISDKInMeetingServiceMgrEvent@@@std@@YAAAPAVISDKInMeetingServiceMgrEvent@@AAPAV1@@Z 00401300 f i sdk_util.obj
 0001:00000300       ??$_Unfancy@PAVIUserInfo@ZOOMSDK@@@std@@YAPAPAVIUserInfo@ZOOMSDK@@PAPAV12@@Z 00401300 f i user_manager.obj
 0001:00000300       ??$forward@AAPAVIPreMeetingServiceEvent@ZOOMSDK@@@std@@YAAAPAVIPreMeetingServiceEvent@ZOOMSDK@@AAPAV12@@Z 00401300 f i sdk_util.obj
 0001:00000300       ??$forward@ABH@std@@YAABHABH@Z 00401300 f i participant_ui.obj
 0001:00000300       ??$_Ptr_move_cat@PAVIVirtualBGImageInfo@ZOOMSDK@@PAV12@@std@@YA?AU_Really_trivial_ptr_iterator_tag@0@ABQAPAVIVirtualBGImageInfo@ZOOMSDK@@0@Z 00401300 f i settings_ui.obj
 0001:00000300       ??$move@AAV?$basic_istream@_WU?$char_traits@_W@std@@@std@@@std@@YA$$QAV?$basic_istream@_WU?$char_traits@_W@std@@@0@AAV10@@Z 00401300 f i schedule_meeting_ui.obj
 0001:00000300       ??$addressof@PAVIMeetingVideoCtrlEvent@ZOOMSDK@@@std@@YAPAPAVIMeetingVideoCtrlEvent@ZOOMSDK@@AAPAV12@@Z 00401300 f i sdk_util.obj
 0001:00000300       ??$forward@ABQAVIInterpreterInfo@ZOOMSDK@@@std@@YAABQAVIInterpreterInfo@ZOOMSDK@@ABQAV12@@Z 00401300 f i schedule_meeting_ui.obj
 0001:00000300       ??$forward@ABU?$less@I@std@@@std@@YAABU?$less@I@0@ABU10@@Z 00401300 f i user_manager.obj
 0001:00000300       ??$addressof@_W@std@@YAPA_WAA_W@Z 00401300 f i schedule_meeting_ui.obj
 0001:00000300       ??$_Get_unwrapped_n@V?$basic_string@_WU?$char_traits@_W@std@@V?$allocator@_W@2@@std@@H$0A@@std@@YAPAV?$basic_string@_WU?$char_traits@_W@std@@V?$allocator@_W@2@@0@QAV10@H@Z 00401300 f i custom_ui_share_flow.obj
 0001:00000300       ??$forward@ABQAVIPreMeetingServiceEvent@ZOOMSDK@@@std@@YAABQAVIPreMeetingServiceEvent@ZOOMSDK@@ABQAV12@@Z 00401300 f i sdk_util.obj
 0001:00000300       ??$addressof@PAU?$_Tree_node@PAVIMeetingParticipantsCtrlEvent@ZOOMSDK@@PAX@std@@@std@@YAPAPAU?$_Tree_node@PAVIMeetingParticipantsCtrlEvent@ZOOMSDK@@PAX@0@AAPAU10@@Z 00401300 f i sdk_util.obj
 0001:00000300       ??$addressof@PAVIAuthServiceEvent@ZOOMSDK@@@std@@YAPAPAVIAuthServiceEvent@ZOOMSDK@@AAPAV12@@Z 00401300 f i sdk_util.obj
 0001:00000300       ??$_Get_unwrapped@PAVIInterpreterInfo@ZOOMSDK@@@std@@YAPAPAVIInterpreterInfo@ZOOMSDK@@QAPAV12@@Z 00401300 f i schedule_meeting_ui.obj
 0001:00000300       ??$_Ptr_move_cat@PAVIAlternativeHostInfo@ZOOMSDK@@PAV12@@std@@YA?AU_Really_trivial_ptr_iterator_tag@0@ABQAPAVIAlternativeHostInfo@ZOOMSDK@@0@Z 00401300 f i schedule_meeting_ui.obj
 0001:00000300       ??$forward@ABQAVIMeetingParticipantsCtrlEvent@ZOOMSDK@@@std@@YAABQAVIMeetingParticipantsCtrlEvent@ZOOMSDK@@ABQAV12@@Z 00401300 f i sdk_util.obj
 0001:00000300       ??$addressof@$$CBV?$_Tree_val@U?$_Tree_simple_types@PAVIMeetingServiceEvent@ZOOMSDK@@@std@@@std@@@std@@YAPBV?$_Tree_val@U?$_Tree_simple_types@PAVIMeetingServiceEvent@ZOOMSDK@@@std@@@0@ABV10@@Z 00401300 f i sdk_util.obj
 0001:00000300       ??$_Ptr_move_cat@PAVIInterpreterInfo@ZOOMSDK@@PAV12@@std@@YA?AU_Really_trivial_ptr_iterator_tag@0@ABQAPAVIInterpreterInfo@ZOOMSDK@@0@Z 00401300 f i schedule_meeting_ui.obj
 0001:00000300       ??$forward@V?$_Tree_const_iterator@V?$_Tree_val@U?$_Tree_simple_types@PAVIClosedCaptionControllerEvent@ZOOMSDK@@@std@@@std@@@std@@@std@@YA$$QAV?$_Tree_const_iterator@V?$_Tree_val@U?$_Tree_simple_types@PAVIClosedCaptionControllerEvent@ZOOMSDK@@@std@@@std@@@0@AAV10@@Z 00401300 f i sdk_util.obj
 0001:00000300       ??$forward@ABQA_W@std@@YAABQA_WABQA_W@Z 00401300 f i AnnotateBarWindow.obj
 0001:00000300       ??$forward@AAPAVIMeetingServiceEvent@ZOOMSDK@@@std@@YAAAPAVIMeetingServiceEvent@ZOOMSDK@@AAPAV12@@Z 00401300 f i sdk_util.obj
 0001:00000300       ??$addressof@PAVISDKInMeetingServiceMgrEvent@@@std@@YAPAPAVISDKInMeetingServiceMgrEvent@@AAPAV1@@Z 00401300 f i sdk_util.obj
 0001:00000300       ??$addressof@PAVIMeetingParticipantsCtrlEvent@ZOOMSDK@@@std@@YAPAPAVIMeetingParticipantsCtrlEvent@ZOOMSDK@@AAPAV12@@Z 00401300 f i sdk_util.obj
 0001:00000300       ??$forward@AAV?$_Tree_const_iterator@V?$_Tree_val@U?$_Tree_simple_types@PAVIMeetingServiceEvent@ZOOMSDK@@@std@@@std@@@std@@@std@@YAAAV?$_Tree_const_iterator@V?$_Tree_val@U?$_Tree_simple_types@PAVIMeetingServiceEvent@ZOOMSDK@@@std@@@std@@@0@AAV10@@Z 00401300 f i sdk_util.obj
 0001:00000300       ??$forward@U?$pair@IPAVIUserInfo@ZOOMSDK@@@std@@@std@@YA$$QAU?$pair@IPAVIUserInfo@ZOOMSDK@@@0@AAU10@@Z 00401300 f i user_manager.obj
 0001:00000300       ??$forward@V?$_Tree_const_iterator@V?$_Tree_val@U?$_Tree_simple_types@PAVIMeetingVideoCtrlEvent@ZOOMSDK@@@std@@@std@@@std@@@std@@YA$$QAV?$_Tree_const_iterator@V?$_Tree_val@U?$_Tree_simple_types@PAVIMeetingVideoCtrlEvent@ZOOMSDK@@@std@@@std@@@0@AAV10@@Z 00401300 f i sdk_util.obj
 0001:00000300       ??$addressof@PAU?$_Tree_node@PAVISDKInMeetingServiceMgrEvent@@PAX@std@@@std@@YAPAPAU?$_Tree_node@PAVISDKInMeetingServiceMgrEvent@@PAX@0@AAPAU10@@Z 00401300 f i sdk_util.obj
 0001:00000300       ??$_Get_unwrapped_n@PAVIUserInfo@ZOOMSDK@@H$0A@@std@@YAPAPAVIUserInfo@ZOOMSDK@@QAPAV12@H@Z 00401300 f i user_manager.obj
 0001:00000300       ??$forward@ABU?$less@PAVIAuthServiceEvent@ZOOMSDK@@@std@@@std@@YAABU?$less@PAVIAuthServiceEvent@ZOOMSDK@@@0@ABU10@@Z 00401300 f i sdk_util.obj
 0001:00000300       ?_Kfn@?$_Tset_traits@PAVIAuthServiceEvent@ZOOMSDK@@U?$less@PAVIAuthServiceEvent@ZOOMSDK@@@std@@V?$allocator@PAVIAuthServiceEvent@ZOOMSDK@@@4@$0A@@std@@SAABQAVIAuthServiceEvent@ZOOMSDK@@ABQAV34@@Z 00401300 f i sdk_util.obj
 0001:00000300       ??$forward@ABQAVIVirtualBGImageInfo@ZOOMSDK@@@std@@YAABQAVIVirtualBGImageInfo@ZOOMSDK@@ABQAV12@@Z 00401300 f i settings_ui.obj
 0001:00000310       ??$_Deallocate@$07$0A@@std@@YAXPAXI@Z 00401310 f i AnnotateBarWindow.obj
 0001:00000340       ??$_Get_size_of_n@$01@std@@YAII@Z 00401340 f i AnnotateBarWindow.obj
 0001:00000370       ??$_Max_value@I@std@@YAABIABI0@Z 00401370 f i AnnotateBarWindow.obj
 0001:00000370       ??$_Max_value@PA_W@std@@YAABQA_WABQA_W0@Z 00401370 f i schedule_meeting_ui.obj
 0001:000003a0       ??$_Min_value@I@std@@YAABIABI0@Z 004013a0 f i AnnotateBarWindow.obj
 0001:000003d0       ??$_Reallocate_for@V<lambda_03628ca18370b1f44a99b655e704819b>@@PB_W@?$basic_string@_WU?$char_traits@_W@std@@V?$allocator@_W@2@@std@@QAEAAV01@IV<lambda_03628ca18370b1f44a99b655e704819b>@@PB_W@Z 004013d0 f i AnnotateBarWindow.obj
 0001:000004b0       ??$_Traits_equal@U?$char_traits@_W@std@@@std@@YA_NQB_WI0I@Z 004014b0 f i AnnotateBarWindow.obj
 0001:000004f0       ??$construct@PAVIPreMeetingServiceEvent@ZOOMSDK@@ABQAV12@@?$_Default_allocator_traits@V?$allocator@U?$_Tree_node@PAVIPreMeetingServiceEvent@ZOOMSDK@@PAX@std@@@std@@@std@@SAXAAV?$allocator@U?$_Tree_node@PAVIPreMeetingServiceEvent@ZOOMSDK@@PAX@std@@@1@QAPAVIPreMeetingServiceEvent@ZOOMSDK@@ABQAV34@@Z 004014f0 f i sdk_util.obj
 0001:000004f0       ??$construct@PAU?$_Tree_node@PAVIMeetingServiceEvent@ZOOMSDK@@PAX@std@@AAPAU12@@?$_Default_allocator_traits@V?$allocator@U?$_Tree_node@PAVIMeetingServiceEvent@ZOOMSDK@@PAX@std@@@std@@@std@@SAXAAV?$allocator@U?$_Tree_node@PAVIMeetingServiceEvent@ZOOMSDK@@PAX@std@@@1@QAPAU?$_Tree_node@PAVIMeetingServiceEvent@ZOOMSDK@@PAX@1@AAPAU31@@Z 004014f0 f i sdk_util.obj
 0001:000004f0       ??$construct@PAU?$_Tree_node@PAVIMeetingParticipantsCtrlEvent@ZOOMSDK@@PAX@std@@AAPAU12@@?$_Default_allocator_traits@V?$allocator@U?$_Tree_node@PAVIMeetingParticipantsCtrlEvent@ZOOMSDK@@PAX@std@@@std@@@std@@SAXAAV?$allocator@U?$_Tree_node@PAVIMeetingParticipantsCtrlEvent@ZOOMSDK@@PAX@std@@@1@QAPAU?$_Tree_node@PAVIMeetingParticipantsCtrlEvent@ZOOMSDK@@PAX@1@AAPAU31@@Z 004014f0 f i sdk_util.obj
 0001:000004f0       ??$construct@PAVIMeetingParticipantsCtrlEvent@ZOOMSDK@@ABQAV12@@?$_Default_allocator_traits@V?$allocator@U?$_Tree_node@PAVIMeetingParticipantsCtrlEvent@ZOOMSDK@@PAX@std@@@std@@@std@@SAXAAV?$allocator@U?$_Tree_node@PAVIMeetingParticipantsCtrlEvent@ZOOMSDK@@PAX@std@@@1@QAPAVIMeetingParticipantsCtrlEvent@ZOOMSDK@@ABQAV34@@Z 004014f0 f i sdk_util.obj
 0001:000004f0       ??$construct@PAU?$_List_node@HPAX@std@@AAPAU12@@?$_Default_allocator_traits@V?$allocator@U?$_List_node@HPAX@std@@@std@@@std@@SAXAAV?$allocator@U?$_List_node@HPAX@std@@@1@QAPAU?$_List_node@HPAX@1@AAPAU31@@Z 004014f0 f i participant_ui.obj
 0001:000004f0       ??$construct@PAVISDKInMeetingServiceMgrEvent@@ABQAV1@@?$_Default_allocator_traits@V?$allocator@U?$_Tree_node@PAVISDKInMeetingServiceMgrEvent@@PAX@std@@@std@@@std@@SAXAAV?$allocator@U?$_Tree_node@PAVISDKInMeetingServiceMgrEvent@@PAX@std@@@1@QAPAVISDKInMeetingServiceMgrEvent@@ABQAV3@@Z 004014f0 f i sdk_util.obj
 0001:000004f0       ??$construct@PAVIAlternativeHostInfo@ZOOMSDK@@ABQAV12@@?$_Default_allocator_traits@V?$allocator@PAVIAlternativeHostInfo@ZOOMSDK@@@std@@@std@@SAXAAV?$allocator@PAVIAlternativeHostInfo@ZOOMSDK@@@1@QAPAVIAlternativeHostInfo@ZOOMSDK@@ABQAV34@@Z 004014f0 f i schedule_meeting_ui.obj
 0001:000004f0       ??$construct@PAVIClosedCaptionControllerEvent@ZOOMSDK@@ABQAV12@@?$_Default_allocator_traits@V?$allocator@U?$_Tree_node@PAVIClosedCaptionControllerEvent@ZOOMSDK@@PAX@std@@@std@@@std@@SAXAAV?$allocator@U?$_Tree_node@PAVIClosedCaptionControllerEvent@ZOOMSDK@@PAX@std@@@1@QAPAVIClosedCaptionControllerEvent@ZOOMSDK@@ABQAV34@@Z 004014f0 f i sdk_util.obj
 0001:000004f0       ??$construct@PAVIMeetingVideoCtrlEvent@ZOOMSDK@@ABQAV12@@?$_Default_allocator_traits@V?$allocator@U?$_Tree_node@PAVIMeetingVideoCtrlEvent@ZOOMSDK@@PAX@std@@@std@@@std@@SAXAAV?$allocator@U?$_Tree_node@PAVIMeetingVideoCtrlEvent@ZOOMSDK@@PAX@std@@@1@QAPAVIMeetingVideoCtrlEvent@ZOOMSDK@@ABQAV34@@Z 004014f0 f i sdk_util.obj
 0001:000004f0       ??$construct@PAVIVirtualBGImageInfo@ZOOMSDK@@ABQAV12@@?$_Default_allocator_traits@V?$allocator@PAVIVirtualBGImageInfo@ZOOMSDK@@@std@@@std@@SAXAAV?$allocator@PAVIVirtualBGImageInfo@ZOOMSDK@@@1@QAPAVIVirtualBGImageInfo@ZOOMSDK@@ABQAV34@@Z 004014f0 f i settings_ui.obj
 0001:000004f0       ??$construct@PAVIAuthServiceEvent@ZOOMSDK@@ABQAV12@@?$_Default_allocator_traits@V?$allocator@U?$_Tree_node@PAVIAuthServiceEvent@ZOOMSDK@@PAX@std@@@std@@@std@@SAXAAV?$allocator@U?$_Tree_node@PAVIAuthServiceEvent@ZOOMSDK@@PAX@std@@@1@QAPAVIAuthServiceEvent@ZOOMSDK@@ABQAV34@@Z 004014f0 f i sdk_util.obj
 0001:000004f0       ??$construct@PAU?$_Tree_node@PAVIAuthServiceEvent@ZOOMSDK@@PAX@std@@AAPAU12@@?$_Default_allocator_traits@V?$allocator@U?$_Tree_node@PAVIAuthServiceEvent@ZOOMSDK@@PAX@std@@@std@@@std@@SAXAAV?$allocator@U?$_Tree_node@PAVIAuthServiceEvent@ZOOMSDK@@PAX@std@@@1@QAPAU?$_Tree_node@PAVIAuthServiceEvent@ZOOMSDK@@PAX@1@AAPAU31@@Z 004014f0 f i sdk_util.obj
 0001:000004f0       ??$construct@PAVIInterpreterInfo@ZOOMSDK@@ABQAV12@@?$_Default_allocator_traits@V?$allocator@PAVIInterpreterInfo@ZOOMSDK@@@std@@@std@@SAXAAV?$allocator@PAVIInterpreterInfo@ZOOMSDK@@@1@QAPAVIInterpreterInfo@ZOOMSDK@@ABQAV34@@Z 004014f0 f i schedule_meeting_ui.obj
 0001:000004f0       ??$construct@PAVIMeetingChatCtrlEvent@ZOOMSDK@@ABQAV12@@?$_Default_allocator_traits@V?$allocator@U?$_Tree_node@PAVIMeetingChatCtrlEvent@ZOOMSDK@@PAX@std@@@std@@@std@@SAXAAV?$allocator@U?$_Tree_node@PAVIMeetingChatCtrlEvent@ZOOMSDK@@PAX@std@@@1@QAPAVIMeetingChatCtrlEvent@ZOOMSDK@@ABQAV34@@Z 004014f0 f i sdk_util.obj
 0001:000004f0       ??$construct@PAU?$_Tree_node@PAVIMeetingChatCtrlEvent@ZOOMSDK@@PAX@std@@AAPAU12@@?$_Default_allocator_traits@V?$allocator@U?$_Tree_node@PAVIMeetingChatCtrlEvent@ZOOMSDK@@PAX@std@@@std@@@std@@SAXAAV?$allocator@U?$_Tree_node@PAVIMeetingChatCtrlEvent@ZOOMSDK@@PAX@std@@@1@QAPAU?$_Tree_node@PAVIMeetingChatCtrlEvent@ZOOMSDK@@PAX@1@AAPAU31@@Z 004014f0 f i sdk_util.obj
 0001:000004f0       ??$construct@PAU?$_Tree_node@PAVIPreMeetingServiceEvent@ZOOMSDK@@PAX@std@@AAPAU12@@?$_Default_allocator_traits@V?$allocator@U?$_Tree_node@PAVIPreMeetingServiceEvent@ZOOMSDK@@PAX@std@@@std@@@std@@SAXAAV?$allocator@U?$_Tree_node@PAVIPreMeetingServiceEvent@ZOOMSDK@@PAX@std@@@1@QAPAU?$_Tree_node@PAVIPreMeetingServiceEvent@ZOOMSDK@@PAX@1@AAPAU31@@Z 004014f0 f i sdk_util.obj
 0001:000004f0       ??$construct@HABH@?$_Default_allocator_traits@V?$allocator@U?$_List_node@HPAX@std@@@std@@@std@@SAXAAV?$allocator@U?$_List_node@HPAX@std@@@1@QAHABH@Z 004014f0 f i participant_ui.obj
 0001:000004f0       ??$construct@PAVIMeetingServiceEvent@ZOOMSDK@@ABQAV12@@?$_Default_allocator_traits@V?$allocator@U?$_Tree_node@PAVIMeetingServiceEvent@ZOOMSDK@@PAX@std@@@std@@@std@@SAXAAV?$allocator@U?$_Tree_node@PAVIMeetingServiceEvent@ZOOMSDK@@PAX@std@@@1@QAPAVIMeetingServiceEvent@ZOOMSDK@@ABQAV34@@Z 004014f0 f i sdk_util.obj
 0001:000004f0       ??$construct@PAU?$_Tree_node@PAVIMeetingVideoCtrlEvent@ZOOMSDK@@PAX@std@@AAPAU12@@?$_Default_allocator_traits@V?$allocator@U?$_Tree_node@PAVIMeetingVideoCtrlEvent@ZOOMSDK@@PAX@std@@@std@@@std@@SAXAAV?$allocator@U?$_Tree_node@PAVIMeetingVideoCtrlEvent@ZOOMSDK@@PAX@std@@@1@QAPAU?$_Tree_node@PAVIMeetingVideoCtrlEvent@ZOOMSDK@@PAX@1@AAPAU31@@Z 004014f0 f i sdk_util.obj
 0001:000004f0       ??$construct@PA_WABQA_W@?$_Default_allocator_traits@V?$allocator@_W@std@@@std@@SAXAAV?$allocator@_W@1@QAPA_WABQA_W@Z 004014f0 f i AnnotateBarWindow.obj
 0001:000004f0       ??$construct@PAU?$_Tree_node@PAVIClosedCaptionControllerEvent@ZOOMSDK@@PAX@std@@AAPAU12@@?$_Default_allocator_traits@V?$allocator@U?$_Tree_node@PAVIClosedCaptionControllerEvent@ZOOMSDK@@PAX@std@@@std@@@std@@SAXAAV?$allocator@U?$_Tree_node@PAVIClosedCaptionControllerEvent@ZOOMSDK@@PAX@std@@@1@QAPAU?$_Tree_node@PAVIClosedCaptionControllerEvent@ZOOMSDK@@PAX@1@AAPAU31@@Z 004014f0 f i sdk_util.obj
 0001:000004f0       ??$construct@PAVIUserInfo@ZOOMSDK@@ABQAV12@@?$_Default_allocator_traits@V?$allocator@PAVIUserInfo@ZOOMSDK@@@std@@@std@@SAXAAV?$allocator@PAVIUserInfo@ZOOMSDK@@@1@QAPAVIUserInfo@ZOOMSDK@@ABQAV34@@Z 004014f0 f i user_manager.obj
 0001:000004f0       ??$construct@PAU?$_Tree_node@PAVISDKInMeetingServiceMgrEvent@@PAX@std@@AAPAU12@@?$_Default_allocator_traits@V?$allocator@U?$_Tree_node@PAVISDKInMeetingServiceMgrEvent@@PAX@std@@@std@@@std@@SAXAAV?$allocator@U?$_Tree_node@PAVISDKInMeetingServiceMgrEvent@@PAX@std@@@1@QAPAU?$_Tree_node@PAVISDKInMeetingServiceMgrEvent@@PAX@1@AAPAU31@@Z 004014f0 f i sdk_util.obj
 0001:000004f0       ??$construct@PAU?$_Tree_node@U?$pair@$$CBIPAVIUserInfo@ZOOMSDK@@@std@@PAX@std@@AAPAU12@@?$_Default_allocator_traits@V?$allocator@U?$_Tree_node@U?$pair@$$CBIPAVIUserInfo@ZOOMSDK@@@std@@PAX@std@@@std@@@std@@SAXAAV?$allocator@U?$_Tree_node@U?$pair@$$CBIPAVIUserInfo@ZOOMSDK@@@std@@PAX@std@@@1@QAPAU?$_Tree_node@U?$pair@$$CBIPAVIUserInfo@ZOOMSDK@@@std@@PAX@1@AAPAU31@@Z 004014f0 f i user_manager.obj
 0001:00000520       ??$destroy@PAU?$_Tree_node@PAVIClosedCaptionControllerEvent@ZOOMSDK@@PAX@std@@@?$_Default_allocator_traits@V?$allocator@U?$_Tree_node@PAVIClosedCaptionControllerEvent@ZOOMSDK@@PAX@std@@@std@@@std@@SAXAAV?$allocator@U?$_Tree_node@PAVIClosedCaptionControllerEvent@ZOOMSDK@@PAX@std@@@1@QAPAU?$_Tree_node@PAVIClosedCaptionControllerEvent@ZOOMSDK@@PAX@1@@Z 00401520 f i sdk_util.obj
 0001:00000520       ??$_Adl_verify_range1@V?$_Tree_const_iterator@V?$_Tree_val@U?$_Tree_simple_types@PAVISDKInMeetingServiceMgrEvent@@@std@@@std@@@std@@V12@@std@@YAXABV?$_Tree_const_iterator@V?$_Tree_val@U?$_Tree_simple_types@PAVISDKInMeetingServiceMgrEvent@@@std@@@std@@@0@0U?$integral_constant@_N$0A@@0@@Z 00401520 f i sdk_util.obj
 0001:00000520       ??$destroy@PAU?$_Tree_node@PAVIMeetingServiceEvent@ZOOMSDK@@PAX@std@@@?$_Default_allocator_traits@V?$allocator@U?$_Tree_node@PAVIMeetingServiceEvent@ZOOMSDK@@PAX@std@@@std@@@std@@SAXAAV?$allocator@U?$_Tree_node@PAVIMeetingServiceEvent@ZOOMSDK@@PAX@std@@@1@QAPAU?$_Tree_node@PAVIMeetingServiceEvent@ZOOMSDK@@PAX@1@@Z 00401520 f i sdk_util.obj
 0001:00000520       ??$destroy@PAVIMeetingChatCtrlEvent@ZOOMSDK@@@?$_Default_allocator_traits@V?$allocator@U?$_Tree_node@PAVIMeetingChatCtrlEvent@ZOOMSDK@@PAX@std@@@std@@@std@@SAXAAV?$allocator@U?$_Tree_node@PAVIMeetingChatCtrlEvent@ZOOMSDK@@PAX@std@@@1@QAPAVIMeetingChatCtrlEvent@ZOOMSDK@@@Z 00401520 f i sdk_util.obj
 0001:00000520       ??$destroy@PAVIPreMeetingServiceEvent@ZOOMSDK@@@?$_Default_allocator_traits@V?$allocator@U?$_Tree_node@PAVIPreMeetingServiceEvent@ZOOMSDK@@PAX@std@@@std@@@std@@SAXAAV?$allocator@U?$_Tree_node@PAVIPreMeetingServiceEvent@ZOOMSDK@@PAX@std@@@1@QAPAVIPreMeetingServiceEvent@ZOOMSDK@@@Z 00401520 f i sdk_util.obj
 0001:00000520       ??$_Adl_verify_range1@V?$_Tree_const_iterator@V?$_Tree_val@U?$_Tree_simple_types@PAVIAuthServiceEvent@ZOOMSDK@@@std@@@std@@@std@@V12@@std@@YAXABV?$_Tree_const_iterator@V?$_Tree_val@U?$_Tree_simple_types@PAVIAuthServiceEvent@ZOOMSDK@@@std@@@std@@@0@0U?$integral_constant@_N$0A@@0@@Z 00401520 f i sdk_util.obj
 0001:00000520       ??$_Adl_verify_range1@V?$_Tree_const_iterator@V?$_Tree_val@U?$_Tree_simple_types@PAVIMeetingServiceEvent@ZOOMSDK@@@std@@@std@@@std@@V12@@std@@YAXABV?$_Tree_const_iterator@V?$_Tree_val@U?$_Tree_simple_types@PAVIMeetingServiceEvent@ZOOMSDK@@@std@@@std@@@0@0U?$integral_constant@_N$0A@@0@@Z 00401520 f i sdk_util.obj
 0001:00000520       ??$destroy@PAVIUserInfo@ZOOMSDK@@@?$_Default_allocator_traits@V?$allocator@PAVIUserInfo@ZOOMSDK@@@std@@@std@@SAXAAV?$allocator@PAVIUserInfo@ZOOMSDK@@@1@QAPAVIUserInfo@ZOOMSDK@@@Z 00401520 f i user_manager.obj
 0001:00000520       ??$destroy@PAVIMeetingParticipantsCtrlEvent@ZOOMSDK@@@?$_Default_allocator_traits@V?$allocator@U?$_Tree_node@PAVIMeetingParticipantsCtrlEvent@ZOOMSDK@@PAX@std@@@std@@@std@@SAXAAV?$allocator@U?$_Tree_node@PAVIMeetingParticipantsCtrlEvent@ZOOMSDK@@PAX@std@@@1@QAPAVIMeetingParticipantsCtrlEvent@ZOOMSDK@@@Z 00401520 f i sdk_util.obj
 0001:00000520       ??$_Adl_verify_range1@V?$_Tree_const_iterator@V?$_Tree_val@U?$_Tree_simple_types@PAVIMeetingVideoCtrlEvent@ZOOMSDK@@@std@@@std@@@std@@V12@@std@@YAXABV?$_Tree_const_iterator@V?$_Tree_val@U?$_Tree_simple_types@PAVIMeetingVideoCtrlEvent@ZOOMSDK@@@std@@@std@@@0@0U?$integral_constant@_N$0A@@0@@Z 00401520 f i sdk_util.obj
 0001:00000520       ??$GetDefaultValueT@PAVIInterpreterInfo@ZOOMSDK@@@@YAXAAPAVIInterpreterInfo@ZOOMSDK@@@Z 00401520 f i schedule_meeting_ui.obj
 0001:00000520       ??$destroy@PA_W@?$_Default_allocator_traits@V?$allocator@_W@std@@@std@@SAXAAV?$allocator@_W@1@QAPA_W@Z 00401520 f i AnnotateBarWindow.obj
 0001:00000520       ??$_Adl_verify_range1@V?$_Tree_const_iterator@V?$_Tree_val@U?$_Tree_simple_types@PAVIPreMeetingServiceEvent@ZOOMSDK@@@std@@@std@@@std@@V12@@std@@YAXABV?$_Tree_const_iterator@V?$_Tree_val@U?$_Tree_simple_types@PAVIPreMeetingServiceEvent@ZOOMSDK@@@std@@@std@@@0@0U?$integral_constant@_N$0A@@0@@Z 00401520 f i sdk_util.obj
 0001:00000520       ??$_Destroy_range1@V?$allocator@PAVIUserInfo@ZOOMSDK@@@std@@@std@@YAXPAPAVIUserInfo@ZOOMSDK@@0AAV?$allocator@PAVIUserInfo@ZOOMSDK@@@0@U?$integral_constant@_N$00@0@@Z 00401520 f i user_manager.obj
 0001:00000520       ??$destroy@PAU?$_Tree_node@PAVISDKInMeetingServiceMgrEvent@@PAX@std@@@?$_Default_allocator_traits@V?$allocator@U?$_Tree_node@PAVISDKInMeetingServiceMgrEvent@@PAX@std@@@std@@@std@@SAXAAV?$allocator@U?$_Tree_node@PAVISDKInMeetingServiceMgrEvent@@PAX@std@@@1@QAPAU?$_Tree_node@PAVISDKInMeetingServiceMgrEvent@@PAX@1@@Z 00401520 f i sdk_util.obj
 0001:00000520       ??$_Adl_verify_range1@V?$_Tree_const_iterator@V?$_Tree_val@U?$_Tree_simple_types@PAVIClosedCaptionControllerEvent@ZOOMSDK@@@std@@@std@@@std@@V12@@std@@YAXABV?$_Tree_const_iterator@V?$_Tree_val@U?$_Tree_simple_types@PAVIClosedCaptionControllerEvent@ZOOMSDK@@@std@@@std@@@0@0U?$integral_constant@_N$0A@@0@@Z 00401520 f i sdk_util.obj
 0001:00000520       ??$destroy@PAVIMeetingVideoCtrlEvent@ZOOMSDK@@@?$_Default_allocator_traits@V?$allocator@U?$_Tree_node@PAVIMeetingVideoCtrlEvent@ZOOMSDK@@PAX@std@@@std@@@std@@SAXAAV?$allocator@U?$_Tree_node@PAVIMeetingVideoCtrlEvent@ZOOMSDK@@PAX@std@@@1@QAPAVIMeetingVideoCtrlEvent@ZOOMSDK@@@Z 00401520 f i sdk_util.obj
 0001:00000520       ??$_Pocca@V?$allocator@_W@std@@@std@@YAXAAV?$allocator@_W@0@ABV10@U?$integral_constant@_N$0A@@0@@Z 00401520 f i custom_ui_share_flow.obj
 0001:00000520       ??$_Destroy_range1@V?$allocator@PAVIInterpreterInfo@ZOOMSDK@@@std@@@std@@YAXPAPAVIInterpreterInfo@ZOOMSDK@@0AAV?$allocator@PAVIInterpreterInfo@ZOOMSDK@@@0@U?$integral_constant@_N$00@0@@Z 00401520 f i schedule_meeting_ui.obj
 0001:00000520       ??$destroy@PAU?$_Tree_node@PAVIPreMeetingServiceEvent@ZOOMSDK@@PAX@std@@@?$_Default_allocator_traits@V?$allocator@U?$_Tree_node@PAVIPreMeetingServiceEvent@ZOOMSDK@@PAX@std@@@std@@@std@@SAXAAV?$allocator@U?$_Tree_node@PAVIPreMeetingServiceEvent@ZOOMSDK@@PAX@std@@@1@QAPAU?$_Tree_node@PAVIPreMeetingServiceEvent@ZOOMSDK@@PAX@1@@Z 00401520 f i sdk_util.obj
 0001:00000520       ??$destroy@PAU?$_Tree_node@PAVIMeetingChatCtrlEvent@ZOOMSDK@@PAX@std@@@?$_Default_allocator_traits@V?$allocator@U?$_Tree_node@PAVIMeetingChatCtrlEvent@ZOOMSDK@@PAX@std@@@std@@@std@@SAXAAV?$allocator@U?$_Tree_node@PAVIMeetingChatCtrlEvent@ZOOMSDK@@PAX@std@@@1@QAPAU?$_Tree_node@PAVIMeetingChatCtrlEvent@ZOOMSDK@@PAX@1@@Z 00401520 f i sdk_util.obj
 0001:00000520       ??$destroy@PAU?$_Tree_node@PAVIMeetingVideoCtrlEvent@ZOOMSDK@@PAX@std@@@?$_Default_allocator_traits@V?$allocator@U?$_Tree_node@PAVIMeetingVideoCtrlEvent@ZOOMSDK@@PAX@std@@@std@@@std@@SAXAAV?$allocator@U?$_Tree_node@PAVIMeetingVideoCtrlEvent@ZOOMSDK@@PAX@std@@@1@QAPAU?$_Tree_node@PAVIMeetingVideoCtrlEvent@ZOOMSDK@@PAX@1@@Z 00401520 f i sdk_util.obj
 0001:00000520       ??$_Adl_verify_range1@V?$_Tree_const_iterator@V?$_Tree_val@U?$_Tree_simple_types@PAVIMeetingChatCtrlEvent@ZOOMSDK@@@std@@@std@@@std@@V12@@std@@YAXABV?$_Tree_const_iterator@V?$_Tree_val@U?$_Tree_simple_types@PAVIMeetingChatCtrlEvent@ZOOMSDK@@@std@@@std@@@0@0U?$integral_constant@_N$0A@@0@@Z 00401520 f i sdk_util.obj
 0001:00000520       ??$destroy@PAU?$_List_node@HPAX@std@@@?$_Default_allocator_traits@V?$allocator@U?$_List_node@HPAX@std@@@std@@@std@@SAXAAV?$allocator@U?$_List_node@HPAX@std@@@1@QAPAU?$_List_node@HPAX@1@@Z 00401520 f i participant_ui.obj
 0001:00000520       ??$destroy@PAVISDKInMeetingServiceMgrEvent@@@?$_Default_allocator_traits@V?$allocator@U?$_Tree_node@PAVISDKInMeetingServiceMgrEvent@@PAX@std@@@std@@@std@@SAXAAV?$allocator@U?$_Tree_node@PAVISDKInMeetingServiceMgrEvent@@PAX@std@@@1@QAPAVISDKInMeetingServiceMgrEvent@@@Z 00401520 f i sdk_util.obj
 0001:00000520       ??$destroy@U?$pair@$$CBIPAVIUserInfo@ZOOMSDK@@@std@@@?$_Default_allocator_traits@V?$allocator@U?$_Tree_node@U?$pair@$$CBIPAVIUserInfo@ZOOMSDK@@@std@@PAX@std@@@std@@@std@@SAXAAV?$allocator@U?$_Tree_node@U?$pair@$$CBIPAVIUserInfo@ZOOMSDK@@@std@@PAX@std@@@1@QAU?$pair@$$CBIPAVIUserInfo@ZOOMSDK@@@1@@Z 00401520 f i user_manager.obj
 0001:00000520       ??$destroy@H@?$_Default_allocator_traits@V?$allocator@U?$_List_node@HPAX@std@@@std@@@std@@SAXAAV?$allocator@U?$_List_node@HPAX@std@@@1@QAH@Z 00401520 f i participant_ui.obj
 0001:00000520       ??$_Adl_verify_range1@V?$_Tree_const_iterator@V?$_Tree_val@U?$_Tree_simple_types@PAVIMeetingParticipantsCtrlEvent@ZOOMSDK@@@std@@@std@@@std@@V12@@std@@YAXABV?$_Tree_const_iterator@V?$_Tree_val@U?$_Tree_simple_types@PAVIMeetingParticipantsCtrlEvent@ZOOMSDK@@@std@@@std@@@0@0U?$integral_constant@_N$0A@@0@@Z 00401520 f i sdk_util.obj
 0001:00000520       ??$destroy@PAU?$_Tree_node@PAVIMeetingParticipantsCtrlEvent@ZOOMSDK@@PAX@std@@@?$_Default_allocator_traits@V?$allocator@U?$_Tree_node@PAVIMeetingParticipantsCtrlEvent@ZOOMSDK@@PAX@std@@@std@@@std@@SAXAAV?$allocator@U?$_Tree_node@PAVIMeetingParticipantsCtrlEvent@ZOOMSDK@@PAX@std@@@1@QAPAU?$_Tree_node@PAVIMeetingParticipantsCtrlEvent@ZOOMSDK@@PAX@1@@Z 00401520 f i sdk_util.obj
 0001:00000520       ??$GetDefaultValueT@PAVIAlternativeHostInfo@ZOOMSDK@@@@YAXAAPAVIAlternativeHostInfo@ZOOMSDK@@@Z 00401520 f i schedule_meeting_ui.obj
 0001:00000520       ??$destroy@PAVIMeetingServiceEvent@ZOOMSDK@@@?$_Default_allocator_traits@V?$allocator@U?$_Tree_node@PAVIMeetingServiceEvent@ZOOMSDK@@PAX@std@@@std@@@std@@SAXAAV?$allocator@U?$_Tree_node@PAVIMeetingServiceEvent@ZOOMSDK@@PAX@std@@@1@QAPAVIMeetingServiceEvent@ZOOMSDK@@@Z 00401520 f i sdk_util.obj
 0001:00000520       ?__global_delete@@YAXPAXI@Z 00401520 f i AnnotateBarWindow.obj
 0001:00000520       ??$destroy@PAU?$_Tree_node@PAVIAuthServiceEvent@ZOOMSDK@@PAX@std@@@?$_Default_allocator_traits@V?$allocator@U?$_Tree_node@PAVIAuthServiceEvent@ZOOMSDK@@PAX@std@@@std@@@std@@SAXAAV?$allocator@U?$_Tree_node@PAVIAuthServiceEvent@ZOOMSDK@@PAX@std@@@1@QAPAU?$_Tree_node@PAVIAuthServiceEvent@ZOOMSDK@@PAX@1@@Z 00401520 f i sdk_util.obj
 0001:00000520       ??$destroy@PAU?$_Tree_node@U?$pair@$$CBIPAVIUserInfo@ZOOMSDK@@@std@@PAX@std@@@?$_Default_allocator_traits@V?$allocator@U?$_Tree_node@U?$pair@$$CBIPAVIUserInfo@ZOOMSDK@@@std@@PAX@std@@@std@@@std@@SAXAAV?$allocator@U?$_Tree_node@U?$pair@$$CBIPAVIUserInfo@ZOOMSDK@@@std@@PAX@std@@@1@QAPAU?$_Tree_node@U?$pair@$$CBIPAVIUserInfo@ZOOMSDK@@@std@@PAX@1@@Z 00401520 f i user_manager.obj
 0001:00000520       ??$destroy@PAVIClosedCaptionControllerEvent@ZOOMSDK@@@?$_Default_allocator_traits@V?$allocator@U?$_Tree_node@PAVIClosedCaptionControllerEvent@ZOOMSDK@@PAX@std@@@std@@@std@@SAXAAV?$allocator@U?$_Tree_node@PAVIClosedCaptionControllerEvent@ZOOMSDK@@PAX@std@@@1@QAPAVIClosedCaptionControllerEvent@ZOOMSDK@@@Z 00401520 f i sdk_util.obj
 0001:00000520       ??$destroy@PAVIAuthServiceEvent@ZOOMSDK@@@?$_Default_allocator_traits@V?$allocator@U?$_Tree_node@PAVIAuthServiceEvent@ZOOMSDK@@PAX@std@@@std@@@std@@SAXAAV?$allocator@U?$_Tree_node@PAVIAuthServiceEvent@ZOOMSDK@@PAX@std@@@1@QAPAVIAuthServiceEvent@ZOOMSDK@@@Z 00401520 f i sdk_util.obj
 0001:00000520       ??$_Destroy_range1@V?$allocator@PAVIAlternativeHostInfo@ZOOMSDK@@@std@@@std@@YAXPAPAVIAlternativeHostInfo@ZOOMSDK@@0AAV?$allocator@PAVIAlternativeHostInfo@ZOOMSDK@@@0@U?$integral_constant@_N$00@0@@Z 00401520 f i schedule_meeting_ui.obj
 0001:00000520       ?__empty_global_delete@@YAXPAXI@Z 00401520 f i AnnotateBarWindow.obj
 0001:00000520       ??$_Destroy_range1@V?$allocator@PAVIVirtualBGImageInfo@ZOOMSDK@@@std@@@std@@YAXPAPAVIVirtualBGImageInfo@ZOOMSDK@@0AAV?$allocator@PAVIVirtualBGImageInfo@ZOOMSDK@@@0@U?$integral_constant@_N$00@0@@Z 00401520 f i settings_ui.obj
 0001:00000530       ??0?$_String_alloc@U?$_String_base_types@_WV?$allocator@_W@std@@@std@@@std@@QAE@XZ 00401530 f i AnnotateBarWindow.obj
 0001:00000550       ??0?$_String_val@U?$_Simple_types@_W@std@@@std@@QAE@XZ 00401550 f i AnnotateBarWindow.obj
 0001:00000580       ?_Get_first@?$_Compressed_pair@U?$less@PAVISDKInMeetingServiceMgrEvent@@@std@@V?$_Compressed_pair@V?$allocator@U?$_Tree_node@PAVISDKInMeetingServiceMgrEvent@@PAX@std@@@std@@V?$_Tree_val@U?$_Tree_simple_types@PAVISDKInMeetingServiceMgrEvent@@@std@@@2@$00@2@$00@std@@QBEABU?$less@PAVISDKInMeetingServiceMgrEvent@@@2@XZ 00401580 f i sdk_util.obj
 0001:00000580       ?_Get_first@?$_Compressed_pair@V?$allocator@PAVIAlternativeHostInfo@ZOOMSDK@@@std@@V?$_Vector_val@U?$_Simple_types@PAVIAlternativeHostInfo@ZOOMSDK@@@std@@@2@$00@std@@QAEAAV?$allocator@PAVIAlternativeHostInfo@ZOOMSDK@@@2@XZ 00401580 f i schedule_meeting_ui.obj
 0001:00000580       ?_Get_first@?$_Compressed_pair@V?$allocator@U?$_List_node@HPAX@std@@@std@@V?$_List_val@U?$_List_simple_types@H@std@@@2@$00@std@@QAEAAV?$allocator@U?$_List_node@HPAX@std@@@2@XZ 00401580 f i participant_ui.obj
 0001:00000580       ??0?$allocator@U?$_Tree_node@PAVIMeetingParticipantsCtrlEvent@ZOOMSDK@@PAX@std@@@std@@QAE@XZ 00401580 f i sdk_util.obj
 0001:00000580       ?_Get_first@?$_Compressed_pair@U?$less@PAVIMeetingServiceEvent@ZOOMSDK@@@std@@V?$_Compressed_pair@V?$allocator@U?$_Tree_node@PAVIMeetingServiceEvent@ZOOMSDK@@PAX@std@@@std@@V?$_Tree_val@U?$_Tree_simple_types@PAVIMeetingServiceEvent@ZOOMSDK@@@std@@@2@$00@2@$00@std@@QAEAAU?$less@PAVIMeetingServiceEvent@ZOOMSDK@@@2@XZ 00401580 f i sdk_util.obj
 0001:00000580       ??0?$allocator@_W@std@@QAE@XZ 00401580 f i AnnotateBarWindow.obj
 0001:00000580       ?_Get_first@?$_Compressed_pair@V?$allocator@U?$_Tree_node@U?$pair@$$CBIPAVIUserInfo@ZOOMSDK@@@std@@PAX@std@@@std@@V?$_Tree_val@U?$_Tree_simple_types@U?$pair@$$CBIPAVIUserInfo@ZOOMSDK@@@std@@@std@@@2@$00@std@@QBEABV?$allocator@U?$_Tree_node@U?$pair@$$CBIPAVIUserInfo@ZOOMSDK@@@std@@PAX@std@@@2@XZ 00401580 f i user_manager.obj
 0001:00000580       ?_Get_second@?$_Compressed_pair@V?$allocator@U?$_Tree_node@PAVIMeetingChatCtrlEvent@ZOOMSDK@@PAX@std@@@std@@V?$_Tree_val@U?$_Tree_simple_types@PAVIMeetingChatCtrlEvent@ZOOMSDK@@@std@@@2@$00@std@@QAEAAV?$_Tree_val@U?$_Tree_simple_types@PAVIMeetingChatCtrlEvent@ZOOMSDK@@@std@@@2@XZ 00401580 f i sdk_util.obj
 0001:00000580       ??0?$allocator@U?$_List_node@HPAX@std@@@std@@QAE@XZ 00401580 f i participant_ui.obj
 0001:00000580       ?_Get_first@?$_Compressed_pair@V?$allocator@PAVIVirtualBGImageInfo@ZOOMSDK@@@std@@V?$_Vector_val@U?$_Simple_types@PAVIVirtualBGImageInfo@ZOOMSDK@@@std@@@2@$00@std@@QAEAAV?$allocator@PAVIVirtualBGImageInfo@ZOOMSDK@@@2@XZ 00401580 f i settings_ui.obj
 0001:00000580       ?_Get_second@?$_Compressed_pair@V?$allocator@_W@std@@V?$_String_val@U?$_Simple_types@_W@std@@@2@$00@std@@QAEAAV?$_String_val@U?$_Simple_types@_W@std@@@2@XZ 00401580 f i AnnotateBarWindow.obj
 0001:00000580       ?_Get_second@?$_Compressed_pair@V?$allocator@_W@std@@V?$_String_val@U?$_Simple_types@_W@std@@@2@$00@std@@QBEABV?$_String_val@U?$_Simple_types@_W@std@@@2@XZ 00401580 f i AnnotateBarWindow.obj
 0001:00000580       ?_Get_first@?$_Compressed_pair@V?$allocator@PAVIVirtualBGImageInfo@ZOOMSDK@@@std@@V?$_Vector_val@U?$_Simple_types@PAVIVirtualBGImageInfo@ZOOMSDK@@@std@@@2@$00@std@@QBEABV?$allocator@PAVIVirtualBGImageInfo@ZOOMSDK@@@2@XZ 00401580 f i settings_ui.obj
 0001:00000580       ?_Get_second@?$_Compressed_pair@U?$less@PAVIAuthServiceEvent@ZOOMSDK@@@std@@V?$_Compressed_pair@V?$allocator@U?$_Tree_node@PAVIAuthServiceEvent@ZOOMSDK@@PAX@std@@@std@@V?$_Tree_val@U?$_Tree_simple_types@PAVIAuthServiceEvent@ZOOMSDK@@@std@@@2@$00@2@$00@std@@QBEABV?$_Compressed_pair@V?$allocator@U?$_Tree_node@PAVIAuthServiceEvent@ZOOMSDK@@PAX@std@@@std@@V?$_Tree_val@U?$_Tree_simple_types@PAVIAuthServiceEvent@ZOOMSDK@@@std@@@2@$00@2@XZ 00401580 f i sdk_util.obj
 0001:00000580       ?_Get_second@?$_Compressed_pair@V?$allocator@PAVIInterpreterInfo@ZOOMSDK@@@std@@V?$_Vector_val@U?$_Simple_types@PAVIInterpreterInfo@ZOOMSDK@@@std@@@2@$00@std@@QAEAAV?$_Vector_val@U?$_Simple_types@PAVIInterpreterInfo@ZOOMSDK@@@std@@@2@XZ 00401580 f i schedule_meeting_ui.obj
 0001:00000580       ?_Get_second@?$_Compressed_pair@V?$allocator@PAVIAlternativeHostInfo@ZOOMSDK@@@std@@V?$_Vector_val@U?$_Simple_types@PAVIAlternativeHostInfo@ZOOMSDK@@@std@@@2@$00@std@@QBEABV?$_Vector_val@U?$_Simple_types@PAVIAlternativeHostInfo@ZOOMSDK@@@std@@@2@XZ 00401580 f i schedule_meeting_ui.obj
 0001:00000580       ?_Get_second@?$_Compressed_pair@V?$allocator@PAVIVirtualBGImageInfo@ZOOMSDK@@@std@@V?$_Vector_val@U?$_Simple_types@PAVIVirtualBGImageInfo@ZOOMSDK@@@std@@@2@$00@std@@QAEAAV?$_Vector_val@U?$_Simple_types@PAVIVirtualBGImageInfo@ZOOMSDK@@@std@@@2@XZ 00401580 f i settings_ui.obj
 0001:00000580       ?_Get_first@?$_Compressed_pair@U?$less@PAVIMeetingParticipantsCtrlEvent@ZOOMSDK@@@std@@V?$_Compressed_pair@V?$allocator@U?$_Tree_node@PAVIMeetingParticipantsCtrlEvent@ZOOMSDK@@PAX@std@@@std@@V?$_Tree_val@U?$_Tree_simple_types@PAVIMeetingParticipantsCtrlEvent@ZOOMSDK@@@std@@@2@$00@2@$00@std@@QAEAAU?$less@PAVIMeetingParticipantsCtrlEvent@ZOOMSDK@@@2@XZ 00401580 f i sdk_util.obj
 0001:00000580       ??0?$allocator@U?$_Tree_node@PAVIPreMeetingServiceEvent@ZOOMSDK@@PAX@std@@@std@@QAE@XZ 00401580 f i sdk_util.obj
 0001:00000580       ?_Get_second@?$_Compressed_pair@V?$allocator@U?$_Tree_node@PAVIClosedCaptionControllerEvent@ZOOMSDK@@PAX@std@@@std@@V?$_Tree_val@U?$_Tree_simple_types@PAVIClosedCaptionControllerEvent@ZOOMSDK@@@std@@@2@$00@std@@QAEAAV?$_Tree_val@U?$_Tree_simple_types@PAVIClosedCaptionControllerEvent@ZOOMSDK@@@std@@@2@XZ 00401580 f i sdk_util.obj
 0001:00000580       ?_Get_second@?$_Compressed_pair@U?$less@PAVIAuthServiceEvent@ZOOMSDK@@@std@@V?$_Compressed_pair@V?$allocator@U?$_Tree_node@PAVIAuthServiceEvent@ZOOMSDK@@PAX@std@@@std@@V?$_Tree_val@U?$_Tree_simple_types@PAVIAuthServiceEvent@ZOOMSDK@@@std@@@2@$00@2@$00@std@@QAEAAV?$_Compressed_pair@V?$allocator@U?$_Tree_node@PAVIAuthServiceEvent@ZOOMSDK@@PAX@std@@@std@@V?$_Tree_val@U?$_Tree_simple_types@PAVIAuthServiceEvent@ZOOMSDK@@@std@@@2@$00@2@XZ 00401580 f i sdk_util.obj
 0001:00000580       ?_Get_second@?$_Compressed_pair@U?$less@I@std@@V?$_Compressed_pair@V?$allocator@U?$_Tree_node@U?$pair@$$CBIPAVIUserInfo@ZOOMSDK@@@std@@PAX@std@@@std@@V?$_Tree_val@U?$_Tree_simple_types@U?$pair@$$CBIPAVIUserInfo@ZOOMSDK@@@std@@@std@@@2@$00@2@$00@std@@QAEAAV?$_Compressed_pair@V?$allocator@U?$_Tree_node@U?$pair@$$CBIPAVIUserInfo@ZOOMSDK@@@std@@PAX@std@@@std@@V?$_Tree_val@U?$_Tree_simple_types@U?$pair@$$CBIPAVIUserInfo@ZOOMSDK@@@std@@@std@@@2@$00@2@XZ 00401580 f i user_manager.obj
 0001:00000580       ?_Get_first@?$_Compressed_pair@V?$allocator@U?$_Tree_node@PAVIMeetingServiceEvent@ZOOMSDK@@PAX@std@@@std@@V?$_Tree_val@U?$_Tree_simple_types@PAVIMeetingServiceEvent@ZOOMSDK@@@std@@@2@$00@std@@QAEAAV?$allocator@U?$_Tree_node@PAVIMeetingServiceEvent@ZOOMSDK@@PAX@std@@@2@XZ 00401580 f i sdk_util.obj
 0001:00000580       ?_Get_second@?$_Compressed_pair@U?$less@PAVIClosedCaptionControllerEvent@ZOOMSDK@@@std@@V?$_Compressed_pair@V?$allocator@U?$_Tree_node@PAVIClosedCaptionControllerEvent@ZOOMSDK@@PAX@std@@@std@@V?$_Tree_val@U?$_Tree_simple_types@PAVIClosedCaptionControllerEvent@ZOOMSDK@@@std@@@2@$00@2@$00@std@@QBEABV?$_Compressed_pair@V?$allocator@U?$_Tree_node@PAVIClosedCaptionControllerEvent@ZOOMSDK@@PAX@std@@@std@@V?$_Tree_val@U?$_Tree_simple_types@PAVIClosedCaptionControllerEvent@ZOOMSDK@@@std@@@2@$00@2@XZ 00401580 f i sdk_util.obj
 0001:00000580       ?_Get_second@?$_Compressed_pair@V?$allocator@U?$_Tree_node@PAVIAuthServiceEvent@ZOOMSDK@@PAX@std@@@std@@V?$_Tree_val@U?$_Tree_simple_types@PAVIAuthServiceEvent@ZOOMSDK@@@std@@@2@$00@std@@QAEAAV?$_Tree_val@U?$_Tree_simple_types@PAVIAuthServiceEvent@ZOOMSDK@@@std@@@2@XZ 00401580 f i sdk_util.obj
 0001:00000580       ?_Get_first@?$_Compressed_pair@U?$less@PAVIMeetingChatCtrlEvent@ZOOMSDK@@@std@@V?$_Compressed_pair@V?$allocator@U?$_Tree_node@PAVIMeetingChatCtrlEvent@ZOOMSDK@@PAX@std@@@std@@V?$_Tree_val@U?$_Tree_simple_types@PAVIMeetingChatCtrlEvent@ZOOMSDK@@@std@@@2@$00@2@$00@std@@QBEABU?$less@PAVIMeetingChatCtrlEvent@ZOOMSDK@@@2@XZ 00401580 f i sdk_util.obj
 0001:00000580       ?_Get_second@?$_Compressed_pair@U?$less@PAVIClosedCaptionControllerEvent@ZOOMSDK@@@std@@V?$_Compressed_pair@V?$allocator@U?$_Tree_node@PAVIClosedCaptionControllerEvent@ZOOMSDK@@PAX@std@@@std@@V?$_Tree_val@U?$_Tree_simple_types@PAVIClosedCaptionControllerEvent@ZOOMSDK@@@std@@@2@$00@2@$00@std@@QAEAAV?$_Compressed_pair@V?$allocator@U?$_Tree_node@PAVIClosedCaptionControllerEvent@ZOOMSDK@@PAX@std@@@std@@V?$_Tree_val@U?$_Tree_simple_types@PAVIClosedCaptionControllerEvent@ZOOMSDK@@@std@@@2@$00@2@XZ 00401580 f i sdk_util.obj
 0001:00000580       ?_Get_second@?$_Compressed_pair@V?$allocator@PAVIInterpreterInfo@ZOOMSDK@@@std@@V?$_Vector_val@U?$_Simple_types@PAVIInterpreterInfo@ZOOMSDK@@@std@@@2@$00@std@@QBEABV?$_Vector_val@U?$_Simple_types@PAVIInterpreterInfo@ZOOMSDK@@@std@@@2@XZ 00401580 f i schedule_meeting_ui.obj
 0001:00000580       ?_Get_first@?$_Compressed_pair@U?$less@PAVIMeetingParticipantsCtrlEvent@ZOOMSDK@@@std@@V?$_Compressed_pair@V?$allocator@U?$_Tree_node@PAVIMeetingParticipantsCtrlEvent@ZOOMSDK@@PAX@std@@@std@@V?$_Tree_val@U?$_Tree_simple_types@PAVIMeetingParticipantsCtrlEvent@ZOOMSDK@@@std@@@2@$00@2@$00@std@@QBEABU?$less@PAVIMeetingParticipantsCtrlEvent@ZOOMSDK@@@2@XZ 00401580 f i sdk_util.obj
 0001:00000580       ?_Get_first@?$_Compressed_pair@V?$allocator@U?$_Tree_node@PAVISDKInMeetingServiceMgrEvent@@PAX@std@@@std@@V?$_Tree_val@U?$_Tree_simple_types@PAVISDKInMeetingServiceMgrEvent@@@std@@@2@$00@std@@QAEAAV?$allocator@U?$_Tree_node@PAVISDKInMeetingServiceMgrEvent@@PAX@std@@@2@XZ 00401580 f i sdk_util.obj
 0001:00000580       ?_Get_first@?$_Compressed_pair@U?$less@PAVIPreMeetingServiceEvent@ZOOMSDK@@@std@@V?$_Compressed_pair@V?$allocator@U?$_Tree_node@PAVIPreMeetingServiceEvent@ZOOMSDK@@PAX@std@@@std@@V?$_Tree_val@U?$_Tree_simple_types@PAVIPreMeetingServiceEvent@ZOOMSDK@@@std@@@2@$00@2@$00@std@@QBEABU?$less@PAVIPreMeetingServiceEvent@ZOOMSDK@@@2@XZ 00401580 f i sdk_util.obj
 0001:00000580       ?_Get_first@?$_Compressed_pair@V?$allocator@U?$_Tree_node@PAVIMeetingChatCtrlEvent@ZOOMSDK@@PAX@std@@@std@@V?$_Tree_val@U?$_Tree_simple_types@PAVIMeetingChatCtrlEvent@ZOOMSDK@@@std@@@2@$00@std@@QBEABV?$allocator@U?$_Tree_node@PAVIMeetingChatCtrlEvent@ZOOMSDK@@PAX@std@@@2@XZ 00401580 f i sdk_util.obj
 0001:00000580       ?_Get_second@?$_Compressed_pair@U?$less@PAVISDKInMeetingServiceMgrEvent@@@std@@V?$_Compressed_pair@V?$allocator@U?$_Tree_node@PAVISDKInMeetingServiceMgrEvent@@PAX@std@@@std@@V?$_Tree_val@U?$_Tree_simple_types@PAVISDKInMeetingServiceMgrEvent@@@std@@@2@$00@2@$00@std@@QAEAAV?$_Compressed_pair@V?$allocator@U?$_Tree_node@PAVISDKInMeetingServiceMgrEvent@@PAX@std@@@std@@V?$_Tree_val@U?$_Tree_simple_types@PAVISDKInMeetingServiceMgrEvent@@@std@@@2@$00@2@XZ 00401580 f i sdk_util.obj
 0001:00000580       ?_Get_second@?$_Compressed_pair@V?$allocator@U?$_Tree_node@PAVIAuthServiceEvent@ZOOMSDK@@PAX@std@@@std@@V?$_Tree_val@U?$_Tree_simple_types@PAVIAuthServiceEvent@ZOOMSDK@@@std@@@2@$00@std@@QBEABV?$_Tree_val@U?$_Tree_simple_types@PAVIAuthServiceEvent@ZOOMSDK@@@std@@@2@XZ 00401580 f i sdk_util.obj
 0001:00000580       ?_Get_second@?$_Compressed_pair@U?$less@PAVISDKInMeetingServiceMgrEvent@@@std@@V?$_Compressed_pair@V?$allocator@U?$_Tree_node@PAVISDKInMeetingServiceMgrEvent@@PAX@std@@@std@@V?$_Tree_val@U?$_Tree_simple_types@PAVISDKInMeetingServiceMgrEvent@@@std@@@2@$00@2@$00@std@@QBEABV?$_Compressed_pair@V?$allocator@U?$_Tree_node@PAVISDKInMeetingServiceMgrEvent@@PAX@std@@@std@@V?$_Tree_val@U?$_Tree_simple_types@PAVISDKInMeetingServiceMgrEvent@@@std@@@2@$00@2@XZ 00401580 f i sdk_util.obj
 0001:00000580       ?_Get_second@?$_Compressed_pair@U?$less@PAVIPreMeetingServiceEvent@ZOOMSDK@@@std@@V?$_Compressed_pair@V?$allocator@U?$_Tree_node@PAVIPreMeetingServiceEvent@ZOOMSDK@@PAX@std@@@std@@V?$_Tree_val@U?$_Tree_simple_types@PAVIPreMeetingServiceEvent@ZOOMSDK@@@std@@@2@$00@2@$00@std@@QBEABV?$_Compressed_pair@V?$allocator@U?$_Tree_node@PAVIPreMeetingServiceEvent@ZOOMSDK@@PAX@std@@@std@@V?$_Tree_val@U?$_Tree_simple_types@PAVIPreMeetingServiceEvent@ZOOMSDK@@@std@@@2@$00@2@XZ 00401580 f i sdk_util.obj
 0001:00000580       ?_Get_second@?$_Compressed_pair@V?$allocator@PAVIUserInfo@ZOOMSDK@@@std@@V?$_Vector_val@U?$_Simple_types@PAVIUserInfo@ZOOMSDK@@@std@@@2@$00@std@@QBEABV?$_Vector_val@U?$_Simple_types@PAVIUserInfo@ZOOMSDK@@@std@@@2@XZ 00401580 f i user_manager.obj
 0001:00000580       ??0CMoreFeaturesWorkflow@@QAE@XZ 00401580 f i more_features_workflow.obj
 0001:00000580       ?_Get_second@?$_Compressed_pair@V?$allocator@U?$_Tree_node@PAVIMeetingServiceEvent@ZOOMSDK@@PAX@std@@@std@@V?$_Tree_val@U?$_Tree_simple_types@PAVIMeetingServiceEvent@ZOOMSDK@@@std@@@2@$00@std@@QBEABV?$_Tree_val@U?$_Tree_simple_types@PAVIMeetingServiceEvent@ZOOMSDK@@@std@@@2@XZ 00401580 f i sdk_util.obj
 0001:00000580       ?_Get_second@?$_Compressed_pair@V?$allocator@U?$_Tree_node@PAVIMeetingParticipantsCtrlEvent@ZOOMSDK@@PAX@std@@@std@@V?$_Tree_val@U?$_Tree_simple_types@PAVIMeetingParticipantsCtrlEvent@ZOOMSDK@@@std@@@2@$00@std@@QBEABV?$_Tree_val@U?$_Tree_simple_types@PAVIMeetingParticipantsCtrlEvent@ZOOMSDK@@@std@@@2@XZ 00401580 f i sdk_util.obj
 0001:00000580       ?_Get_first@?$_Compressed_pair@V?$allocator@U?$_Tree_node@PAVIMeetingVideoCtrlEvent@ZOOMSDK@@PAX@std@@@std@@V?$_Tree_val@U?$_Tree_simple_types@PAVIMeetingVideoCtrlEvent@ZOOMSDK@@@std@@@2@$00@std@@QBEABV?$allocator@U?$_Tree_node@PAVIMeetingVideoCtrlEvent@ZOOMSDK@@PAX@std@@@2@XZ 00401580 f i sdk_util.obj
 0001:00000580       ??0?$allocator@U?$_Tree_node@PAVIMeetingChatCtrlEvent@ZOOMSDK@@PAX@std@@@std@@QAE@XZ 00401580 f i sdk_util.obj
 0001:00000580       ?_Get_first@?$_Compressed_pair@U?$less@PAVIMeetingVideoCtrlEvent@ZOOMSDK@@@std@@V?$_Compressed_pair@V?$allocator@U?$_Tree_node@PAVIMeetingVideoCtrlEvent@ZOOMSDK@@PAX@std@@@std@@V?$_Tree_val@U?$_Tree_simple_types@PAVIMeetingVideoCtrlEvent@ZOOMSDK@@@std@@@2@$00@2@$00@std@@QAEAAU?$less@PAVIMeetingVideoCtrlEvent@ZOOMSDK@@@2@XZ 00401580 f i sdk_util.obj
 0001:00000580       ?_Get_second@?$_Compressed_pair@V?$allocator@U?$_Tree_node@PAVIPreMeetingServiceEvent@ZOOMSDK@@PAX@std@@@std@@V?$_Tree_val@U?$_Tree_simple_types@PAVIPreMeetingServiceEvent@ZOOMSDK@@@std@@@2@$00@std@@QBEABV?$_Tree_val@U?$_Tree_simple_types@PAVIPreMeetingServiceEvent@ZOOMSDK@@@std@@@2@XZ 00401580 f i sdk_util.obj
 0001:00000580       ?_Get_second@?$_Compressed_pair@V?$allocator@U?$_Tree_node@PAVIPreMeetingServiceEvent@ZOOMSDK@@PAX@std@@@std@@V?$_Tree_val@U?$_Tree_simple_types@PAVIPreMeetingServiceEvent@ZOOMSDK@@@std@@@2@$00@std@@QAEAAV?$_Tree_val@U?$_Tree_simple_types@PAVIPreMeetingServiceEvent@ZOOMSDK@@@std@@@2@XZ 00401580 f i sdk_util.obj
 0001:00000580       ?_Get_second@?$_Compressed_pair@V?$allocator@V?$basic_string@_WU?$char_traits@_W@std@@V?$allocator@_W@2@@std@@@std@@V?$_Vector_val@U?$_Simple_types@V?$basic_string@_WU?$char_traits@_W@std@@V?$allocator@_W@2@@std@@@std@@@2@$00@std@@QAEAAV?$_Vector_val@U?$_Simple_types@V?$basic_string@_WU?$char_traits@_W@std@@V?$allocator@_W@2@@std@@@std@@@2@XZ 00401580 f i custom_ui_share_flow.obj
 0001:00000580       ?_Get_second@?$_Compressed_pair@V?$allocator@PAVIUserInfo@ZOOMSDK@@@std@@V?$_Vector_val@U?$_Simple_types@PAVIUserInfo@ZOOMSDK@@@std@@@2@$00@std@@QAEAAV?$_Vector_val@U?$_Simple_types@PAVIUserInfo@ZOOMSDK@@@std@@@2@XZ 00401580 f i user_manager.obj
 0001:00000580       ?_Get_second@?$_Compressed_pair@V?$allocator@U?$_Tree_node@PAVISDKInMeetingServiceMgrEvent@@PAX@std@@@std@@V?$_Tree_val@U?$_Tree_simple_types@PAVISDKInMeetingServiceMgrEvent@@@std@@@2@$00@std@@QBEABV?$_Tree_val@U?$_Tree_simple_types@PAVISDKInMeetingServiceMgrEvent@@@std@@@2@XZ 00401580 f i sdk_util.obj
 0001:00000580       ?_Get_first@?$_Compressed_pair@V?$allocator@U?$_Tree_node@PAVIAuthServiceEvent@ZOOMSDK@@PAX@std@@@std@@V?$_Tree_val@U?$_Tree_simple_types@PAVIAuthServiceEvent@ZOOMSDK@@@std@@@2@$00@std@@QBEABV?$allocator@U?$_Tree_node@PAVIAuthServiceEvent@ZOOMSDK@@PAX@std@@@2@XZ 00401580 f i sdk_util.obj
 0001:00000580       ?_Get_first@?$_Compressed_pair@V?$allocator@V?$basic_string@_WU?$char_traits@_W@std@@V?$allocator@_W@2@@std@@@std@@V?$_Vector_val@U?$_Simple_types@V?$basic_string@_WU?$char_traits@_W@std@@V?$allocator@_W@2@@std@@@std@@@2@$00@std@@QAEAAV?$allocator@V?$basic_string@_WU?$char_traits@_W@std@@V?$allocator@_W@2@@std@@@2@XZ 00401580 f i custom_ui_share_flow.obj
 0001:00000580       ?_Get_second@?$_Compressed_pair@V?$allocator@U?$_Tree_node@PAVIClosedCaptionControllerEvent@ZOOMSDK@@PAX@std@@@std@@V?$_Tree_val@U?$_Tree_simple_types@PAVIClosedCaptionControllerEvent@ZOOMSDK@@@std@@@2@$00@std@@QBEABV?$_Tree_val@U?$_Tree_simple_types@PAVIClosedCaptionControllerEvent@ZOOMSDK@@@std@@@2@XZ 00401580 f i sdk_util.obj
 0001:00000580       ?_Get_first@?$_Compressed_pair@U?$less@I@std@@V?$_Compressed_pair@V?$allocator@U?$_Tree_node@U?$pair@$$CBIPAVIUserInfo@ZOOMSDK@@@std@@PAX@std@@@std@@V?$_Tree_val@U?$_Tree_simple_types@U?$pair@$$CBIPAVIUserInfo@ZOOMSDK@@@std@@@std@@@2@$00@2@$00@std@@QAEAAU?$less@I@2@XZ 00401580 f i user_manager.obj
 0001:00000580       ?_Get_second@?$_Compressed_pair@V?$allocator@PAVIVirtualBGImageInfo@ZOOMSDK@@@std@@V?$_Vector_val@U?$_Simple_types@PAVIVirtualBGImageInfo@ZOOMSDK@@@std@@@2@$00@std@@QBEABV?$_Vector_val@U?$_Simple_types@PAVIVirtualBGImageInfo@ZOOMSDK@@@std@@@2@XZ 00401580 f i settings_ui.obj
 0001:00000580       ?_Get_first@?$_Compressed_pair@V?$allocator@V?$basic_string@_WU?$char_traits@_W@std@@V?$allocator@_W@2@@std@@@std@@V?$_Vector_val@U?$_Simple_types@V?$basic_string@_WU?$char_traits@_W@std@@V?$allocator@_W@2@@std@@@std@@@2@$00@std@@QBEABV?$allocator@V?$basic_string@_WU?$char_traits@_W@std@@V?$allocator@_W@2@@std@@@2@XZ 00401580 f i custom_ui_share_flow.obj
 0001:00000580       ?_Get_first@?$_Compressed_pair@V?$allocator@PAVIAlternativeHostInfo@ZOOMSDK@@@std@@V?$_Vector_val@U?$_Simple_types@PAVIAlternativeHostInfo@ZOOMSDK@@@std@@@2@$00@std@@QBEABV?$allocator@PAVIAlternativeHostInfo@ZOOMSDK@@@2@XZ 00401580 f i schedule_meeting_ui.obj
 0001:00000580       ?_Get_first@?$_Compressed_pair@V?$allocator@_W@std@@V?$_String_val@U?$_Simple_types@_W@std@@@2@$00@std@@QAEAAV?$allocator@_W@2@XZ 00401580 f i AnnotateBarWindow.obj
 0001:00000580       ?_Get_first@?$_Compressed_pair@V?$allocator@U?$_Tree_node@PAVIMeetingChatCtrlEvent@ZOOMSDK@@PAX@std@@@std@@V?$_Tree_val@U?$_Tree_simple_types@PAVIMeetingChatCtrlEvent@ZOOMSDK@@@std@@@2@$00@std@@QAEAAV?$allocator@U?$_Tree_node@PAVIMeetingChatCtrlEvent@ZOOMSDK@@PAX@std@@@2@XZ 00401580 f i sdk_util.obj
 0001:00000580       ?_Get_first@?$_Compressed_pair@U?$less@PAVIAuthServiceEvent@ZOOMSDK@@@std@@V?$_Compressed_pair@V?$allocator@U?$_Tree_node@PAVIAuthServiceEvent@ZOOMSDK@@PAX@std@@@std@@V?$_Tree_val@U?$_Tree_simple_types@PAVIAuthServiceEvent@ZOOMSDK@@@std@@@2@$00@2@$00@std@@QAEAAU?$less@PAVIAuthServiceEvent@ZOOMSDK@@@2@XZ 00401580 f i sdk_util.obj
 0001:00000580       ?_Get_first@?$_Compressed_pair@U?$less@PAVIMeetingServiceEvent@ZOOMSDK@@@std@@V?$_Compressed_pair@V?$allocator@U?$_Tree_node@PAVIMeetingServiceEvent@ZOOMSDK@@PAX@std@@@std@@V?$_Tree_val@U?$_Tree_simple_types@PAVIMeetingServiceEvent@ZOOMSDK@@@std@@@2@$00@2@$00@std@@QBEABU?$less@PAVIMeetingServiceEvent@ZOOMSDK@@@2@XZ 00401580 f i sdk_util.obj
 0001:00000580       ??0?$allocator@U?$_Tree_node@PAVIAuthServiceEvent@ZOOMSDK@@PAX@std@@@std@@QAE@XZ 00401580 f i sdk_util.obj
 0001:00000580       ?_Get_first@?$_Compressed_pair@U?$less@PAVIClosedCaptionControllerEvent@ZOOMSDK@@@std@@V?$_Compressed_pair@V?$allocator@U?$_Tree_node@PAVIClosedCaptionControllerEvent@ZOOMSDK@@PAX@std@@@std@@V?$_Tree_val@U?$_Tree_simple_types@PAVIClosedCaptionControllerEvent@ZOOMSDK@@@std@@@2@$00@2@$00@std@@QBEABU?$less@PAVIClosedCaptionControllerEvent@ZOOMSDK@@@2@XZ 00401580 f i sdk_util.obj
 0001:00000580       ?_Get_first@?$_Compressed_pair@V?$allocator@PAVIUserInfo@ZOOMSDK@@@std@@V?$_Vector_val@U?$_Simple_types@PAVIUserInfo@ZOOMSDK@@@std@@@2@$00@std@@QBEABV?$allocator@PAVIUserInfo@ZOOMSDK@@@2@XZ 00401580 f i user_manager.obj
 0001:00000580       ?_Get_second@?$_Compressed_pair@U?$less@PAVIMeetingParticipantsCtrlEvent@ZOOMSDK@@@std@@V?$_Compressed_pair@V?$allocator@U?$_Tree_node@PAVIMeetingParticipantsCtrlEvent@ZOOMSDK@@PAX@std@@@std@@V?$_Tree_val@U?$_Tree_simple_types@PAVIMeetingParticipantsCtrlEvent@ZOOMSDK@@@std@@@2@$00@2@$00@std@@QBEABV?$_Compressed_pair@V?$allocator@U?$_Tree_node@PAVIMeetingParticipantsCtrlEvent@ZOOMSDK@@PAX@std@@@std@@V?$_Tree_val@U?$_Tree_simple_types@PAVIMeetingParticipantsCtrlEvent@ZOOMSDK@@@std@@@2@$00@2@XZ 00401580 f i sdk_util.obj
 0001:00000580       ??0?$allocator@U?$_Tree_node@U?$pair@$$CBIPAVIUserInfo@ZOOMSDK@@@std@@PAX@std@@@std@@QAE@XZ 00401580 f i user_manager.obj
 0001:00000580       ?_Get_second@?$_Compressed_pair@V?$allocator@U?$_Tree_node@PAVISDKInMeetingServiceMgrEvent@@PAX@std@@@std@@V?$_Tree_val@U?$_Tree_simple_types@PAVISDKInMeetingServiceMgrEvent@@@std@@@2@$00@std@@QAEAAV?$_Tree_val@U?$_Tree_simple_types@PAVISDKInMeetingServiceMgrEvent@@@std@@@2@XZ 00401580 f i sdk_util.obj
 0001:00000580       ?_Get_first@?$_Compressed_pair@U?$less@PAVIAuthServiceEvent@ZOOMSDK@@@std@@V?$_Compressed_pair@V?$allocator@U?$_Tree_node@PAVIAuthServiceEvent@ZOOMSDK@@PAX@std@@@std@@V?$_Tree_val@U?$_Tree_simple_types@PAVIAuthServiceEvent@ZOOMSDK@@@std@@@2@$00@2@$00@std@@QBEABU?$less@PAVIAuthServiceEvent@ZOOMSDK@@@2@XZ 00401580 f i sdk_util.obj
 0001:00000580       ??0?$allocator@V?$basic_string@_WU?$char_traits@_W@std@@V?$allocator@_W@2@@std@@@std@@QAE@XZ 00401580 f i custom_ui_share_flow.obj
 0001:00000580       ?_Get_first@?$_Compressed_pair@U?$less@I@std@@V?$_Compressed_pair@V?$allocator@U?$_Tree_node@U?$pair@$$CBIPAVIUserInfo@ZOOMSDK@@@std@@PAX@std@@@std@@V?$_Tree_val@U?$_Tree_simple_types@U?$pair@$$CBIPAVIUserInfo@ZOOMSDK@@@std@@@std@@@2@$00@2@$00@std@@QBEABU?$less@I@2@XZ 00401580 f i user_manager.obj
 0001:00000580       ?_Get_first@?$_Compressed_pair@U?$less@PAVISDKInMeetingServiceMgrEvent@@@std@@V?$_Compressed_pair@V?$allocator@U?$_Tree_node@PAVISDKInMeetingServiceMgrEvent@@PAX@std@@@std@@V?$_Tree_val@U?$_Tree_simple_types@PAVISDKInMeetingServiceMgrEvent@@@std@@@2@$00@2@$00@std@@QAEAAU?$less@PAVISDKInMeetingServiceMgrEvent@@@2@XZ 00401580 f i sdk_util.obj
 0001:00000580       ?_Get_first@?$_Compressed_pair@V?$allocator@PAVIInterpreterInfo@ZOOMSDK@@@std@@V?$_Vector_val@U?$_Simple_types@PAVIInterpreterInfo@ZOOMSDK@@@std@@@2@$00@std@@QBEABV?$allocator@PAVIInterpreterInfo@ZOOMSDK@@@2@XZ 00401580 f i schedule_meeting_ui.obj
 0001:00000580       ?_Get_second@?$_Compressed_pair@U?$less@PAVIMeetingServiceEvent@ZOOMSDK@@@std@@V?$_Compressed_pair@V?$allocator@U?$_Tree_node@PAVIMeetingServiceEvent@ZOOMSDK@@PAX@std@@@std@@V?$_Tree_val@U?$_Tree_simple_types@PAVIMeetingServiceEvent@ZOOMSDK@@@std@@@2@$00@2@$00@std@@QAEAAV?$_Compressed_pair@V?$allocator@U?$_Tree_node@PAVIMeetingServiceEvent@ZOOMSDK@@PAX@std@@@std@@V?$_Tree_val@U?$_Tree_simple_types@PAVIMeetingServiceEvent@ZOOMSDK@@@std@@@2@$00@2@XZ 00401580 f i sdk_util.obj
 0001:00000580       ?_Get_second@?$_Compressed_pair@V?$allocator@U?$_Tree_node@PAVIMeetingServiceEvent@ZOOMSDK@@PAX@std@@@std@@V?$_Tree_val@U?$_Tree_simple_types@PAVIMeetingServiceEvent@ZOOMSDK@@@std@@@2@$00@std@@QAEAAV?$_Tree_val@U?$_Tree_simple_types@PAVIMeetingServiceEvent@ZOOMSDK@@@std@@@2@XZ 00401580 f i sdk_util.obj
 0001:00000580       ??0_Bxty@?$_String_val@U?$_Simple_types@_W@std@@@std@@QAE@XZ 00401580 f i AnnotateBarWindow.obj
 0001:00000580       ?_Get_second@?$_Compressed_pair@U?$less@PAVIMeetingVideoCtrlEvent@ZOOMSDK@@@std@@V?$_Compressed_pair@V?$allocator@U?$_Tree_node@PAVIMeetingVideoCtrlEvent@ZOOMSDK@@PAX@std@@@std@@V?$_Tree_val@U?$_Tree_simple_types@PAVIMeetingVideoCtrlEvent@ZOOMSDK@@@std@@@2@$00@2@$00@std@@QAEAAV?$_Compressed_pair@V?$allocator@U?$_Tree_node@PAVIMeetingVideoCtrlEvent@ZOOMSDK@@PAX@std@@@std@@V?$_Tree_val@U?$_Tree_simple_types@PAVIMeetingVideoCtrlEvent@ZOOMSDK@@@std@@@2@$00@2@XZ 00401580 f i sdk_util.obj
 0001:00000580       ?_Get_second@?$_Compressed_pair@U?$less@I@std@@V?$_Compressed_pair@V?$allocator@U?$_Tree_node@U?$pair@$$CBIPAVIUserInfo@ZOOMSDK@@@std@@PAX@std@@@std@@V?$_Tree_val@U?$_Tree_simple_types@U?$pair@$$CBIPAVIUserInfo@ZOOMSDK@@@std@@@std@@@2@$00@2@$00@std@@QBEABV?$_Compressed_pair@V?$allocator@U?$_Tree_node@U?$pair@$$CBIPAVIUserInfo@ZOOMSDK@@@std@@PAX@std@@@std@@V?$_Tree_val@U?$_Tree_simple_types@U?$pair@$$CBIPAVIUserInfo@ZOOMSDK@@@std@@@std@@@2@$00@2@XZ 00401580 f i user_manager.obj
 0001:00000580       ??0?$allocator@U?$_Tree_node@PAVIMeetingServiceEvent@ZOOMSDK@@PAX@std@@@std@@QAE@XZ 00401580 f i sdk_util.obj
 0001:00000580       ?_Get_first@?$_Compressed_pair@V?$allocator@U?$_Tree_node@PAVIMeetingServiceEvent@ZOOMSDK@@PAX@std@@@std@@V?$_Tree_val@U?$_Tree_simple_types@PAVIMeetingServiceEvent@ZOOMSDK@@@std@@@2@$00@std@@QBEABV?$allocator@U?$_Tree_node@PAVIMeetingServiceEvent@ZOOMSDK@@PAX@std@@@2@XZ 00401580 f i sdk_util.obj
 0001:00000580       ?_Get_second@?$_Compressed_pair@U?$less@PAVIMeetingParticipantsCtrlEvent@ZOOMSDK@@@std@@V?$_Compressed_pair@V?$allocator@U?$_Tree_node@PAVIMeetingParticipantsCtrlEvent@ZOOMSDK@@PAX@std@@@std@@V?$_Tree_val@U?$_Tree_simple_types@PAVIMeetingParticipantsCtrlEvent@ZOOMSDK@@@std@@@2@$00@2@$00@std@@QAEAAV?$_Compressed_pair@V?$allocator@U?$_Tree_node@PAVIMeetingParticipantsCtrlEvent@ZOOMSDK@@PAX@std@@@std@@V?$_Tree_val@U?$_Tree_simple_types@PAVIMeetingParticipantsCtrlEvent@ZOOMSDK@@@std@@@2@$00@2@XZ 00401580 f i sdk_util.obj
 0001:00000580       ?_Get_first@?$_Compressed_pair@V?$allocator@U?$_Tree_node@PAVIPreMeetingServiceEvent@ZOOMSDK@@PAX@std@@@std@@V?$_Tree_val@U?$_Tree_simple_types@PAVIPreMeetingServiceEvent@ZOOMSDK@@@std@@@2@$00@std@@QBEABV?$allocator@U?$_Tree_node@PAVIPreMeetingServiceEvent@ZOOMSDK@@PAX@std@@@2@XZ 00401580 f i sdk_util.obj
 0001:00000580       ?_Get_first@?$_Compressed_pair@V?$allocator@U?$_Tree_node@PAVIClosedCaptionControllerEvent@ZOOMSDK@@PAX@std@@@std@@V?$_Tree_val@U?$_Tree_simple_types@PAVIClosedCaptionControllerEvent@ZOOMSDK@@@std@@@2@$00@std@@QBEABV?$allocator@U?$_Tree_node@PAVIClosedCaptionControllerEvent@ZOOMSDK@@PAX@std@@@2@XZ 00401580 f i sdk_util.obj
 0001:00000580       ?_Get_first@?$_Compressed_pair@V?$allocator@PAVIUserInfo@ZOOMSDK@@@std@@V?$_Vector_val@U?$_Simple_types@PAVIUserInfo@ZOOMSDK@@@std@@@2@$00@std@@QAEAAV?$allocator@PAVIUserInfo@ZOOMSDK@@@2@XZ 00401580 f i user_manager.obj
 0001:00000580       ?_Get_first@?$_Compressed_pair@V?$allocator@U?$_Tree_node@PAVIMeetingParticipantsCtrlEvent@ZOOMSDK@@PAX@std@@@std@@V?$_Tree_val@U?$_Tree_simple_types@PAVIMeetingParticipantsCtrlEvent@ZOOMSDK@@@std@@@2@$00@std@@QAEAAV?$allocator@U?$_Tree_node@PAVIMeetingParticipantsCtrlEvent@ZOOMSDK@@PAX@std@@@2@XZ 00401580 f i sdk_util.obj
 0001:00000580       ?_Get_first@?$_Compressed_pair@V?$allocator@_W@std@@V?$_String_val@U?$_Simple_types@_W@std@@@2@$00@std@@QBEABV?$allocator@_W@2@XZ 00401580 f i AnnotateBarWindow.obj
 0001:00000580       ??0?$allocator@PAVIInterpreterInfo@ZOOMSDK@@@std@@QAE@XZ 00401580 f i schedule_meeting_ui.obj
 0001:00000580       ?_Get_first@?$_Compressed_pair@V?$allocator@U?$_Tree_node@U?$pair@$$CBIPAVIUserInfo@ZOOMSDK@@@std@@PAX@std@@@std@@V?$_Tree_val@U?$_Tree_simple_types@U?$pair@$$CBIPAVIUserInfo@ZOOMSDK@@@std@@@std@@@2@$00@std@@QAEAAV?$allocator@U?$_Tree_node@U?$pair@$$CBIPAVIUserInfo@ZOOMSDK@@@std@@PAX@std@@@2@XZ 00401580 f i user_manager.obj
 0001:00000580       ?_Get_second@?$_Compressed_pair@V?$allocator@PAVIAlternativeHostInfo@ZOOMSDK@@@std@@V?$_Vector_val@U?$_Simple_types@PAVIAlternativeHostInfo@ZOOMSDK@@@std@@@2@$00@std@@QAEAAV?$_Vector_val@U?$_Simple_types@PAVIAlternativeHostInfo@ZOOMSDK@@@std@@@2@XZ 00401580 f i schedule_meeting_ui.obj
 0001:00000580       ?_Get_second@?$_Compressed_pair@U?$less@PAVIMeetingServiceEvent@ZOOMSDK@@@std@@V?$_Compressed_pair@V?$allocator@U?$_Tree_node@PAVIMeetingServiceEvent@ZOOMSDK@@PAX@std@@@std@@V?$_Tree_val@U?$_Tree_simple_types@PAVIMeetingServiceEvent@ZOOMSDK@@@std@@@2@$00@2@$00@std@@QBEABV?$_Compressed_pair@V?$allocator@U?$_Tree_node@PAVIMeetingServiceEvent@ZOOMSDK@@PAX@std@@@std@@V?$_Tree_val@U?$_Tree_simple_types@PAVIMeetingServiceEvent@ZOOMSDK@@@std@@@2@$00@2@XZ 00401580 f i sdk_util.obj
 0001:00000580       ??0?$allocator@PAVIAlternativeHostInfo@ZOOMSDK@@@std@@QAE@XZ 00401580 f i schedule_meeting_ui.obj
 0001:00000580       ??0?$allocator@PAVIUserInfo@ZOOMSDK@@@std@@QAE@XZ 00401580 f i user_manager.obj
 0001:00000580       ?_Get_second@?$_Compressed_pair@V?$allocator@U?$_Tree_node@PAVIMeetingVideoCtrlEvent@ZOOMSDK@@PAX@std@@@std@@V?$_Tree_val@U?$_Tree_simple_types@PAVIMeetingVideoCtrlEvent@ZOOMSDK@@@std@@@2@$00@std@@QBEABV?$_Tree_val@U?$_Tree_simple_types@PAVIMeetingVideoCtrlEvent@ZOOMSDK@@@std@@@2@XZ 00401580 f i sdk_util.obj
 0001:00000580       ?_Get_second@?$_Compressed_pair@U?$less@PAVIPreMeetingServiceEvent@ZOOMSDK@@@std@@V?$_Compressed_pair@V?$allocator@U?$_Tree_node@PAVIPreMeetingServiceEvent@ZOOMSDK@@PAX@std@@@std@@V?$_Tree_val@U?$_Tree_simple_types@PAVIPreMeetingServiceEvent@ZOOMSDK@@@std@@@2@$00@2@$00@std@@QAEAAV?$_Compressed_pair@V?$allocator@U?$_Tree_node@PAVIPreMeetingServiceEvent@ZOOMSDK@@PAX@std@@@std@@V?$_Tree_val@U?$_Tree_simple_types@PAVIPreMeetingServiceEvent@ZOOMSDK@@@std@@@2@$00@2@XZ 00401580 f i sdk_util.obj
 0001:00000580       ?_Get_first@?$_Compressed_pair@V?$allocator@U?$_Tree_node@PAVIAuthServiceEvent@ZOOMSDK@@PAX@std@@@std@@V?$_Tree_val@U?$_Tree_simple_types@PAVIAuthServiceEvent@ZOOMSDK@@@std@@@2@$00@std@@QAEAAV?$allocator@U?$_Tree_node@PAVIAuthServiceEvent@ZOOMSDK@@PAX@std@@@2@XZ 00401580 f i sdk_util.obj
 0001:00000580       ?_Get_second@?$_Compressed_pair@V?$allocator@U?$_List_node@HPAX@std@@@std@@V?$_List_val@U?$_List_simple_types@H@std@@@2@$00@std@@QBEABV?$_List_val@U?$_List_simple_types@H@std@@@2@XZ 00401580 f i participant_ui.obj
 0001:00000580       ?_Get_second@?$_Compressed_pair@V?$allocator@U?$_Tree_node@U?$pair@$$CBIPAVIUserInfo@ZOOMSDK@@@std@@PAX@std@@@std@@V?$_Tree_val@U?$_Tree_simple_types@U?$pair@$$CBIPAVIUserInfo@ZOOMSDK@@@std@@@std@@@2@$00@std@@QAEAAV?$_Tree_val@U?$_Tree_simple_types@U?$pair@$$CBIPAVIUserInfo@ZOOMSDK@@@std@@@std@@@2@XZ 00401580 f i user_manager.obj
 0001:00000580       ?_Get_second@?$_Compressed_pair@V?$allocator@U?$_Tree_node@PAVIMeetingVideoCtrlEvent@ZOOMSDK@@PAX@std@@@std@@V?$_Tree_val@U?$_Tree_simple_types@PAVIMeetingVideoCtrlEvent@ZOOMSDK@@@std@@@2@$00@std@@QAEAAV?$_Tree_val@U?$_Tree_simple_types@PAVIMeetingVideoCtrlEvent@ZOOMSDK@@@std@@@2@XZ 00401580 f i sdk_util.obj
 0001:00000580       ?_Get_second@?$_Compressed_pair@V?$allocator@V?$basic_string@_WU?$char_traits@_W@std@@V?$allocator@_W@2@@std@@@std@@V?$_Vector_val@U?$_Simple_types@V?$basic_string@_WU?$char_traits@_W@std@@V?$allocator@_W@2@@std@@@std@@@2@$00@std@@QBEABV?$_Vector_val@U?$_Simple_types@V?$basic_string@_WU?$char_traits@_W@std@@V?$allocator@_W@2@@std@@@std@@@2@XZ 00401580 f i custom_ui_share_flow.obj
 0001:00000580       ?_Get_first@?$_Compressed_pair@U?$less@PAVIClosedCaptionControllerEvent@ZOOMSDK@@@std@@V?$_Compressed_pair@V?$allocator@U?$_Tree_node@PAVIClosedCaptionControllerEvent@ZOOMSDK@@PAX@std@@@std@@V?$_Tree_val@U?$_Tree_simple_types@PAVIClosedCaptionControllerEvent@ZOOMSDK@@@std@@@2@$00@2@$00@std@@QAEAAU?$less@PAVIClosedCaptionControllerEvent@ZOOMSDK@@@2@XZ 00401580 f i sdk_util.obj
 0001:00000580       ?_Get_first@?$_Compressed_pair@V?$allocator@U?$_List_node@HPAX@std@@@std@@V?$_List_val@U?$_List_simple_types@H@std@@@2@$00@std@@QBEABV?$allocator@U?$_List_node@HPAX@std@@@2@XZ 00401580 f i participant_ui.obj
 0001:00000580       ??0?$allocator@U?$_Tree_node@PAVIMeetingVideoCtrlEvent@ZOOMSDK@@PAX@std@@@std@@QAE@XZ 00401580 f i sdk_util.obj
 0001:00000580       ?_Get_second@?$_Compressed_pair@V?$allocator@U?$_Tree_node@PAVIMeetingChatCtrlEvent@ZOOMSDK@@PAX@std@@@std@@V?$_Tree_val@U?$_Tree_simple_types@PAVIMeetingChatCtrlEvent@ZOOMSDK@@@std@@@2@$00@std@@QBEABV?$_Tree_val@U?$_Tree_simple_types@PAVIMeetingChatCtrlEvent@ZOOMSDK@@@std@@@2@XZ 00401580 f i sdk_util.obj
 0001:00000580       ?_Get_second@?$_Compressed_pair@V?$allocator@U?$_Tree_node@U?$pair@$$CBIPAVIUserInfo@ZOOMSDK@@@std@@PAX@std@@@std@@V?$_Tree_val@U?$_Tree_simple_types@U?$pair@$$CBIPAVIUserInfo@ZOOMSDK@@@std@@@std@@@2@$00@std@@QBEABV?$_Tree_val@U?$_Tree_simple_types@U?$pair@$$CBIPAVIUserInfo@ZOOMSDK@@@std@@@std@@@2@XZ 00401580 f i user_manager.obj
 0001:00000580       ??0?$tuple@$$V@std@@QAE@XZ 00401580 f i user_manager.obj
 0001:00000580       ?_Get_first@?$_Compressed_pair@V?$allocator@U?$_Tree_node@PAVIClosedCaptionControllerEvent@ZOOMSDK@@PAX@std@@@std@@V?$_Tree_val@U?$_Tree_simple_types@PAVIClosedCaptionControllerEvent@ZOOMSDK@@@std@@@2@$00@std@@QAEAAV?$allocator@U?$_Tree_node@PAVIClosedCaptionControllerEvent@ZOOMSDK@@PAX@std@@@2@XZ 00401580 f i sdk_util.obj
 0001:00000580       ?_Get_first@?$_Compressed_pair@V?$allocator@U?$_Tree_node@PAVIMeetingVideoCtrlEvent@ZOOMSDK@@PAX@std@@@std@@V?$_Tree_val@U?$_Tree_simple_types@PAVIMeetingVideoCtrlEvent@ZOOMSDK@@@std@@@2@$00@std@@QAEAAV?$allocator@U?$_Tree_node@PAVIMeetingVideoCtrlEvent@ZOOMSDK@@PAX@std@@@2@XZ 00401580 f i sdk_util.obj
 0001:00000580       ?_Get_first@?$_Compressed_pair@U?$less@PAVIMeetingChatCtrlEvent@ZOOMSDK@@@std@@V?$_Compressed_pair@V?$allocator@U?$_Tree_node@PAVIMeetingChatCtrlEvent@ZOOMSDK@@PAX@std@@@std@@V?$_Tree_val@U?$_Tree_simple_types@PAVIMeetingChatCtrlEvent@ZOOMSDK@@@std@@@2@$00@2@$00@std@@QAEAAU?$less@PAVIMeetingChatCtrlEvent@ZOOMSDK@@@2@XZ 00401580 f i sdk_util.obj
 0001:00000580       ?_Get_second@?$_Compressed_pair@V?$allocator@U?$_Tree_node@PAVIMeetingParticipantsCtrlEvent@ZOOMSDK@@PAX@std@@@std@@V?$_Tree_val@U?$_Tree_simple_types@PAVIMeetingParticipantsCtrlEvent@ZOOMSDK@@@std@@@2@$00@std@@QAEAAV?$_Tree_val@U?$_Tree_simple_types@PAVIMeetingParticipantsCtrlEvent@ZOOMSDK@@@std@@@2@XZ 00401580 f i sdk_util.obj
 0001:00000580       ?_Get_first@?$_Compressed_pair@V?$allocator@U?$_Tree_node@PAVIPreMeetingServiceEvent@ZOOMSDK@@PAX@std@@@std@@V?$_Tree_val@U?$_Tree_simple_types@PAVIPreMeetingServiceEvent@ZOOMSDK@@@std@@@2@$00@std@@QAEAAV?$allocator@U?$_Tree_node@PAVIPreMeetingServiceEvent@ZOOMSDK@@PAX@std@@@2@XZ 00401580 f i sdk_util.obj
 0001:00000580       ??0?$allocator@U?$_Tree_node@PAVISDKInMeetingServiceMgrEvent@@PAX@std@@@std@@QAE@XZ 00401580 f i sdk_util.obj
 0001:00000580       ?_Get_second@?$_Compressed_pair@U?$less@PAVIMeetingChatCtrlEvent@ZOOMSDK@@@std@@V?$_Compressed_pair@V?$allocator@U?$_Tree_node@PAVIMeetingChatCtrlEvent@ZOOMSDK@@PAX@std@@@std@@V?$_Tree_val@U?$_Tree_simple_types@PAVIMeetingChatCtrlEvent@ZOOMSDK@@@std@@@2@$00@2@$00@std@@QBEABV?$_Compressed_pair@V?$allocator@U?$_Tree_node@PAVIMeetingChatCtrlEvent@ZOOMSDK@@PAX@std@@@std@@V?$_Tree_val@U?$_Tree_simple_types@PAVIMeetingChatCtrlEvent@ZOOMSDK@@@std@@@2@$00@2@XZ 00401580 f i sdk_util.obj
 0001:00000580       ?_Get_first@?$_Compressed_pair@V?$allocator@U?$_Tree_node@PAVIMeetingParticipantsCtrlEvent@ZOOMSDK@@PAX@std@@@std@@V?$_Tree_val@U?$_Tree_simple_types@PAVIMeetingParticipantsCtrlEvent@ZOOMSDK@@@std@@@2@$00@std@@QBEABV?$allocator@U?$_Tree_node@PAVIMeetingParticipantsCtrlEvent@ZOOMSDK@@PAX@std@@@2@XZ 00401580 f i sdk_util.obj
 0001:00000580       ??0?$allocator@PAVIVirtualBGImageInfo@ZOOMSDK@@@std@@QAE@XZ 00401580 f i settings_ui.obj
 0001:00000580       ?_Get_second@?$_Compressed_pair@U?$less@PAVIMeetingVideoCtrlEvent@ZOOMSDK@@@std@@V?$_Compressed_pair@V?$allocator@U?$_Tree_node@PAVIMeetingVideoCtrlEvent@ZOOMSDK@@PAX@std@@@std@@V?$_Tree_val@U?$_Tree_simple_types@PAVIMeetingVideoCtrlEvent@ZOOMSDK@@@std@@@2@$00@2@$00@std@@QBEABV?$_Compressed_pair@V?$allocator@U?$_Tree_node@PAVIMeetingVideoCtrlEvent@ZOOMSDK@@PAX@std@@@std@@V?$_Tree_val@U?$_Tree_simple_types@PAVIMeetingVideoCtrlEvent@ZOOMSDK@@@std@@@2@$00@2@XZ 00401580 f i sdk_util.obj
 0001:00000580       ?_Get_first@?$_Compressed_pair@V?$allocator@PAVIInterpreterInfo@ZOOMSDK@@@std@@V?$_Vector_val@U?$_Simple_types@PAVIInterpreterInfo@ZOOMSDK@@@std@@@2@$00@std@@QAEAAV?$allocator@PAVIInterpreterInfo@ZOOMSDK@@@2@XZ 00401580 f i schedule_meeting_ui.obj
 0001:00000580       ?_Get_second@?$_Compressed_pair@U?$less@PAVIMeetingChatCtrlEvent@ZOOMSDK@@@std@@V?$_Compressed_pair@V?$allocator@U?$_Tree_node@PAVIMeetingChatCtrlEvent@ZOOMSDK@@PAX@std@@@std@@V?$_Tree_val@U?$_Tree_simple_types@PAVIMeetingChatCtrlEvent@ZOOMSDK@@@std@@@2@$00@2@$00@std@@QAEAAV?$_Compressed_pair@V?$allocator@U?$_Tree_node@PAVIMeetingChatCtrlEvent@ZOOMSDK@@PAX@std@@@std@@V?$_Tree_val@U?$_Tree_simple_types@PAVIMeetingChatCtrlEvent@ZOOMSDK@@@std@@@2@$00@2@XZ 00401580 f i sdk_util.obj
 0001:00000580       ?_Get_first@?$_Compressed_pair@U?$less@PAVIPreMeetingServiceEvent@ZOOMSDK@@@std@@V?$_Compressed_pair@V?$allocator@U?$_Tree_node@PAVIPreMeetingServiceEvent@ZOOMSDK@@PAX@std@@@std@@V?$_Tree_val@U?$_Tree_simple_types@PAVIPreMeetingServiceEvent@ZOOMSDK@@@std@@@2@$00@2@$00@std@@QAEAAU?$less@PAVIPreMeetingServiceEvent@ZOOMSDK@@@2@XZ 00401580 f i sdk_util.obj
 0001:00000580       ??0?$allocator@U?$_Tree_node@PAVIClosedCaptionControllerEvent@ZOOMSDK@@PAX@std@@@std@@QAE@XZ 00401580 f i sdk_util.obj
 0001:00000580       ?_Get_second@?$_Compressed_pair@V?$allocator@U?$_List_node@HPAX@std@@@std@@V?$_List_val@U?$_List_simple_types@H@std@@@2@$00@std@@QAEAAV?$_List_val@U?$_List_simple_types@H@std@@@2@XZ 00401580 f i participant_ui.obj
 0001:00000580       ?_Get_first@?$_Compressed_pair@V?$allocator@U?$_Tree_node@PAVISDKInMeetingServiceMgrEvent@@PAX@std@@@std@@V?$_Tree_val@U?$_Tree_simple_types@PAVISDKInMeetingServiceMgrEvent@@@std@@@2@$00@std@@QBEABV?$allocator@U?$_Tree_node@PAVISDKInMeetingServiceMgrEvent@@PAX@std@@@2@XZ 00401580 f i sdk_util.obj
 0001:00000590       ??0?$basic_string@_WU?$char_traits@_W@std@@V?$allocator@_W@2@@std@@QAE@QB_W@Z 00401590 f i AnnotateBarWindow.obj
 0001:00000600       ??0AnnotateBarWindow@@QAE@PAVICustomizedShareRender@ZOOMSDK@@@Z 00401600 f   AnnotateBarWindow.obj
 0001:00000760       ??0CComCriticalSection@ATL@@QAE@XZ 00401760 f i AnnotateBarWindow.obj
 0001:00000790       ??0INotifyUI@DuiLib@@QAE@XZ 00401790 f i AnnotateBarWindow.obj
 0001:000007b0       ??1?$_Compressed_pair@V?$allocator@_W@std@@V?$_String_val@U?$_Simple_types@_W@std@@@2@$00@std@@QAE@XZ 004017b0 f i AnnotateBarWindow.obj
 0001:000007d0       ??1?$_String_alloc@U?$_String_base_types@_WV?$allocator@_W@std@@@std@@@std@@QAE@XZ 004017d0 f i AnnotateBarWindow.obj
 0001:000007f0       ??1?$_String_val@U?$_Simple_types@_W@std@@@std@@QAE@XZ 004017f0 f i AnnotateBarWindow.obj
 0001:00000810       ??1?$basic_string@_WU?$char_traits@_W@std@@V?$allocator@_W@2@@std@@QAE@XZ 00401810 f i AnnotateBarWindow.obj
 0001:00000860       ??1AnnotateBarWindow@@QAE@XZ 00401860 f   AnnotateBarWindow.obj
 0001:00000a80       ?onZoomIdentityExpired@CAuthSDKWorkFlow@@UAEXXZ 00401a80 f i init_auth_sdk_workflow.obj
 0001:00000a80       ?onEndMeetingBtnClicked@CSDKCustomUIWorkFlow@@UAEXXZ 00401a80 f i custom_ui_mgr_flow.obj
 0001:00000a80       ?onVBImageDidDownloaded@CSDKVirtualBGSettingsUIGroup@@UAEXXZ 00401a80 f i settings_ui.obj
 0001:00000a80       ?onParticipantListBtnClicked@CSDKCustomUIWorkFlow@@UAEXXZ 00401a80 f i custom_ui_mgr_flow.obj
 0001:00000a80       ??1CMoreFeaturesWorkflow@@QAE@XZ 00401a80 f i more_features_workflow.obj
 0001:00000a80       ?OnNoWindowToShowPreview@CSDKCustomUIWorkFlow@@UAEXXZ 00401a80 f i custom_ui_mgr_flow.obj
 0001:00000a80       ?CleanUp@CSDKFeatureCustomSettingsWorkFlow@@QAEXXZ 00401a80 f i settings_ui.obj
 0001:00000a80       ?onBreakoutRoomBtnClicked@CSDKCustomUIWorkFlow@@UAEXXZ 00401a80 f i custom_ui_mgr_flow.obj
 0001:00000a80       ?onZoomIdentityExpired@CSDKLoginCBHandler@@UAEXXZ 00401a80 f i LOGIN_sdk_login_UI.obj
 0001:00000a80       ?onLogout@CAuthSDKWorkFlow@@UAEXXZ 00401a80 f i init_auth_sdk_workflow.obj
 0001:00000a80       ?Cleanup@CAuthSDKWorkFlow@@QAEXXZ 00401a80 f i sdk_init_auth_ui.obj
 0001:00000a80       ?OnSelectedVideoDeviceIsChanged@CSDKVirtualBGSettingsWorkFlow@@UAEXXZ 00401a80 f i SETTINGS_virtualBG_workflow.obj
 0001:00000a80       ?onAudioMenuBtnClicked@CSDKCustomUIWorkFlow@@UAEXXZ 00401a80 f i custom_ui_mgr_flow.obj
 0001:00000a80       ?onZoomAuthIdentityExpired@CSDKLoginCBHandler@@UAEXXZ 00401a80 f i LOGIN_sdk_login_UI.obj
 0001:00000a80       ??1CZoomHttpRequestHelper@@QAE@XZ 00401a80 f i HttpRequestHelper.obj
 0001:00000a80       ?Cleanup@CSDKAudioSettingsWorkFlow@@QAEXXZ 00401a80 f i settings_ui.obj
 0001:00000a80       ?DoStopDirectShareBtnClick@CSDKLoggedInUIMgr@@IAEXXZ 00401a80 f i LoggedIn_sdk_controller_ui.obj
 0001:00000a80       ?onZoomAuthIdentityExpired@CSDKWithoutLoginStartJoinMeetingFlow@@UAEXXZ 00401a80 f i LOGIN_join_meeting_only_workflow.obj
 0001:00000a80       ?_Orphan_all@_Container_base0@std@@QAEXXZ 00401a80 f i AnnotateBarWindow.obj
 0001:00000a80       ?Cleanup@CSDKGeneralSettingsWorkFlow@@QAEXXZ 00401a80 f i settings_ui.obj
 0001:00000a80       ?onLogout@CSDKLoginCBHandler@@UAEXXZ 00401a80 f i LOGIN_sdk_login_UI.obj
 0001:00000a80       ?onSharingContentStartRecving@CCustomizeInMeetingUIMgr@@UAEXXZ 00401a80 f i custom_ui_mgr.obj
 0001:00000a80       ?OnNoVideoDeviceIsUseful@CSDKCustomUIWorkFlow@@UAEXXZ 00401a80 f i custom_ui_mgr_flow.obj
 0001:00000a80       ?onLogout@CSDKWithoutLoginStartJoinMeetingFlow@@UAEXXZ 00401a80 f i LOGIN_join_meeting_only_workflow.obj
 0001:00000a80       ?onZoomInviteDialogFailed@CSDKCustomUIWorkFlow@@UAEXXZ 00401a80 f i custom_ui_mgr_flow.obj
 0001:00000a80       ?onCustomLiveStreamMenuClicked@CSDKCustomUIWorkFlow@@UAEXXZ 00401a80 f i custom_ui_mgr_flow.obj
 0001:00000a80       ??1CComCriticalSection@ATL@@QAE@XZ 00401a80 f i AnnotateBarWindow.obj
 0001:00000a80       ?Cleanup@CSDKLoginWithSSOFlow@@QAEXXZ 00401a80 f i LOGIN_sdk_login_UI.obj
 0001:00000a80       ?onCCBTNClicked@CSDKCustomUIWorkFlow@@UAEXXZ 00401a80 f i custom_ui_mgr_flow.obj
 0001:00000a80       ?Cleanup@CSDKRestAPIUserWorkFlow@@QAEXXZ 00401a80 f i LOGIN_sdk_login_UI.obj
 0001:00000a80       ?onStartShareBtnClicked@CSDKCustomUIWorkFlow@@UAEXXZ 00401a80 f i custom_ui_mgr_flow.obj
 0001:00000a80       ?OnSelectedVideoDeviceIsChanged@CSDKCustomUIWorkFlow@@UAEXXZ 00401a80 f i custom_ui_mgr_flow.obj
 0001:00000a80       ?Cleanup@CSDKRecordingSettingsWorkFlow@@QAEXXZ 00401a80 f i settings_ui.obj
 0001:00000a80       ?CustomizeDemoResource@CInitSDKWorkFlow@@QAEXXZ 00401a80 f i init_auth_sdk_workflow.obj
 0001:00000a80       ?OnNoWindowToShowPreview@CSDKVirtualBGSettingsWorkFlow@@UAEXXZ 00401a80 f i SETTINGS_virtualBG_workflow.obj
 0001:00000a80       ??1_Bxty@?$_String_val@U?$_Simple_types@_W@std@@@std@@QAE@XZ 00401a80 f i AnnotateBarWindow.obj
 0001:00000a80       ?Cleanup@CSDKWithoutLoginStartJoinMeetingFlow@@QAEXXZ 00401a80 f i LOGIN_sdk_login_UI.obj
 0001:00000a80       ?Cleanup@CSDKVideoSettingsWorkFlow@@QAEXXZ 00401a80 f i settings_ui.obj
 0001:00000a80       ?onZoomAuthIdentityExpired@CAuthSDKWorkFlow@@UAEXXZ 00401a80 f i init_auth_sdk_workflow.obj
 0001:00000a80       ?OnSelectedAudioDeviceIsChanged@CSDKCustomUIWorkFlow@@UAEXXZ 00401a80 f i custom_ui_mgr_flow.obj
 0001:00000a80       ?Cleanup@CSDKJoinMeetingForLoginUserFlow@@QAEXXZ 00401a80 f i Join_meeting_for_login_user_ui.obj
 0001:00000a80       ?onSelectedVBImageChanged@CSDKVirtualBGSettingsUIGroup@@UAEXXZ 00401a80 f i settings_ui.obj
 0001:00000a80       ?Cleanup@CSDKUICustomSettingsWorkFlow@@QAEXXZ 00401a80 f i settings_ui.obj
 0001:00000a80       ?onZoomIdentityExpired@CSDKWithoutLoginStartJoinMeetingFlow@@UAEXXZ 00401a80 f i LOGIN_join_meeting_only_workflow.obj
 0001:00000a80       ?OnNoVideoDeviceIsUseful@CSDKVirtualBGSettingsWorkFlow@@UAEXXZ 00401a80 f i SETTINGS_virtualBG_workflow.obj
 0001:00000a90       ??1CDialogBuilder@DuiLib@@QAE@XZ 00401a90 f i AnnotateBarWindow.obj
 0001:00000ab0       ??2@YAPAXIPAX@Z            00401ab0 f i AnnotateBarWindow.obj
 0001:00000ac0       ??R<lambda_03628ca18370b1f44a99b655e704819b>@@QBEXQA_WIQB_W@Z 00401ac0 f i AnnotateBarWindow.obj
 0001:00000b00       ??_GAnnotateClearWindow@@QAEPAXI@Z 00401b00 f i AnnotateBarWindow.obj
 0001:00000b40       ??_GAnnotateDrawWindow@@QAEPAXI@Z 00401b40 f i AnnotateBarWindow.obj
 0001:00000b80       ??_GAnnotateFormatWindow@@QAEPAXI@Z 00401b80 f i AnnotateBarWindow.obj
 0001:00000bc0       ??_GAnnotateSpolightWindow@@QAEPAXI@Z 00401bc0 f i AnnotateBarWindow.obj
 0001:00000c00       ??_GAnnotateStampWindow@@QAEPAXI@Z 00401c00 f i AnnotateBarWindow.obj
 0001:00000c40       ?GetClassStyle@AnnotateSpolightWindow@@UBEIXZ 00401c40 f i AnnotateSpolightWindow.obj
 0001:00000c40       ?GetClassStyle@CSDKLoggedInUIMgr@@UBEIXZ 00401c40 f i LoggedIn_sdk_controller_ui.obj
 0001:00000c40       ?GetClassStyle@ViewOptionsWindow@@UBEIXZ 00401c40 f i ViewOptionsWindow.obj
 0001:00000c40       ?GetClassStyle@AnnotateDrawWindow@@UBEIXZ 00401c40 f i AnnotateDrawWindow.obj
 0001:00000c40       ?GetClassStyle@CSDKInitAuthUIMgr@@UBEIXZ 00401c40 f i sdk_init_auth_ui.obj
 0001:00000c40       ?GetClassStyle@ShareToolbarWindow@@UBEIXZ 00401c40 f i ShareToolbarWindow.obj
 0001:00000c40       ?GetClassStyle@CCloseCaptionUIMgr@@UBEIXZ 00401c40 f i close_caption_ui.obj
 0001:00000c40       ?GetClassStyle@CDialInCountryUIMgr@@UBEIXZ 00401c40 f i dial_in_country_ui.obj
 0001:00000c40       ?GetClassStyle@CSDKMeetingChatUIMgr@@UBEIXZ 00401c40 f i chat_controller_ui.obj
 0001:00000c40       ?GetClassStyle@AnnotateFormatWindow@@UBEIXZ 00401c40 f i AnnotateFormatWindow.obj
 0001:00000c40       ?GetClassStyle@CSDKJoinMeetingForLoginUserUIMgr@@UBEIXZ 00401c40 f i Join_meeting_for_login_user_ui.obj
 0001:00000c40       ?GetClassStyle@AnnotateStampWindow@@UBEIXZ 00401c40 f i AnnotateStampWindow.obj
 0001:00000c40       ?GetClassStyle@CSDKSettingsUIMgr@@UBEIXZ 00401c40 f i settings_ui.obj
 0001:00000c40       ?GetClassStyle@CameraControlWindow@@UBEIXZ 00401c40 f i CameraControlWindow.obj
 0001:00000c40       ?GetClassStyle@CSDKSheduleMeetingUIMgr@@UBEIXZ 00401c40 f i schedule_meeting_ui.obj
 0001:00000c40       ?GetClassStyle@CInvitationUIMgr@@UBEIXZ 00401c40 f i invitation_ui.obj
 0001:00000c40       ?GetClassStyle@AnnotateClearWindow@@UBEIXZ 00401c40 f i AnnotateClearWindow.obj
 0001:00000c40       ?GetClassStyle@AnnotateBarWindow@@UBEIXZ 00401c40 f i AnnotateBarWindow.obj
 0001:00000c40       ?GetClassStyle@CSDKLoginUIMgr@@UBEIXZ 00401c40 f i LOGIN_sdk_login_UI.obj
 0001:00000c50       ?GetSkinRes@AnnotateBarWindow@@UAEIXZ 00401c50 f i AnnotateBarWindow.obj
 0001:00000c60       ?GetWindowClassName@CSDKJoinMeetingForLoginUserUIMgr@@UBEPB_WXZ 00401c60 f i Join_meeting_for_login_user_ui.obj
 0001:00000c60       ?GetWindowClassName@CSDKSettingsUIMgr@@UBEPB_WXZ 00401c60 f i settings_ui.obj
 0001:00000c60       ?GetWindowClassName@CToolbarBottom@@UBEPB_WXZ 00401c60 f i toolbar_bottom_ui.obj
 0001:00000c60       ?GetWindowClassName@AnnotateStampWindow@@UBEPB_WXZ 00401c60 f i AnnotateStampWindow.obj
 0001:00000c60       ?GetWindowClassName@CSDKMeetingChatUIMgr@@UBEPB_WXZ 00401c60 f i chat_controller_ui.obj
 0001:00000c60       ?GetWindowClassName@CSDKLoginUIMgr@@UBEPB_WXZ 00401c60 f i LOGIN_sdk_login_UI.obj
 0001:00000c60       ?GetWindowClassName@CArrowWindow@@UBEPB_WXZ 00401c60 f i arrow_window.obj
 0001:00000c60       ?GetWindowClassName@CSDKSheduleMeetingUIMgr@@UBEPB_WXZ 00401c60 f i schedule_meeting_ui.obj
 0001:00000c60       ?GetWindowClassName@ShareToolbarWindow@@UBEPB_WXZ 00401c60 f i ShareToolbarWindow.obj
 0001:00000c60       ?GetWindowClassName@CUtilWnd@@UBEPB_WXZ 00401c60 f i util_window.obj
 0001:00000c60       ?GetWindowClassName@CameraControlWindow@@UBEPB_WXZ 00401c60 f i CameraControlWindow.obj
 0001:00000c60       ?GetWindowClassName@AnnotateClearWindow@@UBEPB_WXZ 00401c60 f i AnnotateClearWindow.obj
 0001:00000c60       ?GetWindowClassName@CSDKLoggedInUIMgr@@UBEPB_WXZ 00401c60 f i LoggedIn_sdk_controller_ui.obj
 0001:00000c60       ?GetWindowClassName@AnnotateDrawWindow@@UBEPB_WXZ 00401c60 f i AnnotateDrawWindow.obj
 0001:00000c60       ?GetWindowClassName@CMoreFeaturesUIMgr@@UBEPB_WXZ 00401c60 f i more_features_ui.obj
 0001:00000c60       ?GetWindowClassName@CCustomizeUIShareSelectUI@@UBEPB_WXZ 00401c60 f i custom_ui_share_mgr.obj
 0001:00000c60       ?GetWindowClassName@CDialInCountryUIMgr@@UBEPB_WXZ 00401c60 f i dial_in_country_ui.obj
 0001:00000c60       ?GetWindowClassName@CParticipantUIMgr@@UBEPB_WXZ 00401c60 f i participant_ui.obj
 0001:00000c60       ?GetWindowClassName@ViewOptionsWindow@@UBEPB_WXZ 00401c60 f i ViewOptionsWindow.obj
 0001:00000c60       ?GetWindowClassName@AnnotateSpolightWindow@@UBEPB_WXZ 00401c60 f i AnnotateSpolightWindow.obj
 0001:00000c60       ?GetWindowClassName@CCloseCaptionUIMgr@@UBEPB_WXZ 00401c60 f i close_caption_ui.obj
 0001:00000c60       ?GetWindowClassName@CMoreMenuUIMgr@@UBEPB_WXZ 00401c60 f i more_menu_ui.obj
 0001:00000c60       ?GetWindowClassName@AnnotateFormatWindow@@UBEPB_WXZ 00401c60 f i AnnotateFormatWindow.obj
 0001:00000c60       ?GetWindowClassName@CSDKInitAuthUIMgr@@UBEPB_WXZ 00401c60 f i sdk_init_auth_ui.obj
 0001:00000c60       ?GetWindowClassName@AnnotateBarWindow@@UBEPB_WXZ 00401c60 f i AnnotateBarWindow.obj
 0001:00000c70       ?HandleMessage@AnnotateBarWindow@@UAEJIIJ@Z 00401c70 f   AnnotateBarWindow.obj
 0001:00000e80       ?HideBrotherWindows@AnnotateBarWindow@@AAEXPA_W@Z 00401e80 f   AnnotateBarWindow.obj
 0001:00001000       ?HideOwnedWindows@AnnotateBarWindow@@QAEXXZ 00402000 f   AnnotateBarWindow.obj
 0001:000010b0       ?Init@CComCriticalSection@ATL@@QAEJXZ 004020b0 f i AnnotateBarWindow.obj
 0001:000010f0       ?InitWindow@AnnotateBarWindow@@UAEXXZ 004020f0 f   AnnotateBarWindow.obj
 0001:000012d0       ?MoveWindowPosTo@AnnotateBarWindow@@QAEXPAUHWND__@@@Z 004022d0 f   AnnotateBarWindow.obj
 0001:00001350       ?Notify@AnnotateBarWindow@@UAEXAAUtagTNotifyUI@DuiLib@@@Z 00402350 f   AnnotateBarWindow.obj
 0001:00001720       ?OnClose@AnnotateBarWindow@@QAEJIIJAAH@Z 00402720 f   AnnotateBarWindow.obj
 0001:00001750       ?OnDestroy@AnnotateStampWindow@@QAEJIIJAAH@Z 00402750 f   AnnotateStampWindow.obj
 0001:00001750       ?OnClose@AnnotateStampWindow@@QAEJIIJAAH@Z 00402750 f   AnnotateStampWindow.obj
 0001:00001750       ?OnDestroy@AnnotateFormatWindow@@QAEJIIJAAH@Z 00402750 f   AnnotateFormatWindow.obj
 0001:00001750       ?OnDestroy@AnnotateBarWindow@@QAEJIIJAAH@Z 00402750 f   AnnotateBarWindow.obj
 0001:00001750       ?OnDestroy@ShareToolbarWindow@@QAEJIIJAAH@Z 00402750 f   ShareToolbarWindow.obj
 0001:00001750       ?OnClose@CameraControlWindow@@QAEJIIJAAH@Z 00402750 f   CameraControlWindow.obj
 0001:00001750       ?OnDestroy@AnnotateSpolightWindow@@QAEJIIJAAH@Z 00402750 f   AnnotateSpolightWindow.obj
 0001:00001750       ?OnDestroy@AnnotateClearWindow@@QAEJIIJAAH@Z 00402750 f   AnnotateClearWindow.obj
 0001:00001750       ?OnClose@ViewOptionsWindow@@QAEJIIJAAH@Z 00402750 f   ViewOptionsWindow.obj
 0001:00001750       ?OnDestroy@AnnotateDrawWindow@@QAEJIIJAAH@Z 00402750 f   AnnotateDrawWindow.obj
 0001:00001750       ?OnClose@AnnotateSpolightWindow@@QAEJIIJAAH@Z 00402750 f   AnnotateSpolightWindow.obj
 0001:00001750       ?OnClose@AnnotateDrawWindow@@QAEJIIJAAH@Z 00402750 f   AnnotateDrawWindow.obj
 0001:00001750       ?OnClose@AnnotateFormatWindow@@QAEJIIJAAH@Z 00402750 f   AnnotateFormatWindow.obj
 0001:00001750       ?OnClose@ShareToolbarWindow@@QAEJIIJAAH@Z 00402750 f   ShareToolbarWindow.obj
 0001:00001750       ?OnDestroy@ViewOptionsWindow@@QAEJIIJAAH@Z 00402750 f   ViewOptionsWindow.obj
 0001:00001750       ?OnClose@CSDKJoinMeetingForLoginUserUIMgr@@QAEJIIJAAH@Z 00402750 f   Join_meeting_for_login_user_ui.obj
 0001:00001750       ?OnClose@AnnotateClearWindow@@QAEJIIJAAH@Z 00402750 f   AnnotateClearWindow.obj
 0001:00001750       ?OnDestroy@CameraControlWindow@@QAEJIIJAAH@Z 00402750 f   CameraControlWindow.obj
 0001:00001770       ?OnFinalMessage@AnnotateDrawWindow@@UAEXPAUHWND__@@@Z 00402770 f i AnnotateDrawWindow.obj
 0001:00001770       ?OnFinalMessage@AnnotateStampWindow@@UAEXPAUHWND__@@@Z 00402770 f i AnnotateStampWindow.obj
 0001:00001770       ?OnFinalMessage@CUtilWnd@@UAEXPAUHWND__@@@Z 00402770 f i util_window.obj
 0001:00001770       ?onShareContentNotification@CSDKCustomUIWorkFlow@@UAEXAAUtagShareInfo@ZOOMSDK@@@Z 00402770 f i custom_ui_mgr_flow.obj
 0001:00001770       ?onMultiShareSwitchToSingleShareNeedConfirm@CSDKCustomUIWorkFlow@@UAEXPAVIShareSwitchMultiToSingleConfirmHandler@ZOOMSDK@@@Z 00402770 f i custom_ui_mgr_flow.obj
 0001:00001770       ?OnFinalMessage@CCloseCaptionUIMgr@@UAEXPAUHWND__@@@Z 00402770 f i close_caption_ui.obj
 0001:00001770       ?OnFinalMessage@CSDKLoggedInUIMgr@@UAEXPAUHWND__@@@Z 00402770 f i LoggedIn_sdk_controller_ui.obj
 0001:00001770       ?onMeetingStatisticsWarningNotification@CSDKJoinMeetingForLoginUserFlow@@UAEXW4StatisticsWarningType@ZOOMSDK@@@Z 00402770 f i Join_meeting_for_login_user_workflow.obj
 0001:00001770       ?onHostRequestStartAudio@CSDKCustomUIWorkFlow@@UAEXPAVIRequestStartAudioHandler@ZOOMSDK@@@Z 00402770 f i custom_ui_mgr_flow.obj
 0001:00001770       ?_Destroy_if_node@?$_Tree@V?$_Tset_traits@PAVIMeetingVideoCtrlEvent@ZOOMSDK@@U?$less@PAVIMeetingVideoCtrlEvent@ZOOMSDK@@@std@@V?$allocator@PAVIMeetingVideoCtrlEvent@ZOOMSDK@@@4@$0A@@std@@@std@@IAEXU_Not_a_node_tag@2@@Z 00402770 f i sdk_util.obj
 0001:00001770       ?onAssignedToSendCC@CSDKCustomUIWorkFlow@@UAEX_N@Z 00402770 f i custom_ui_mgr_flow.obj
 0001:00001770       ?OnFinalMessage@ViewOptionsWindow@@UAEXPAUHWND__@@@Z 00402770 f i ViewOptionsWindow.obj
 0001:00001770       ?OnFinalMessage@AnnotateBarWindow@@UAEXPAUHWND__@@@Z 00402770 f i AnnotateBarWindow.obj
 0001:00001770       ?OnFinalMessage@AnnotateSpolightWindow@@UAEXPAUHWND__@@@Z 00402770 f i AnnotateSpolightWindow.obj
 0001:00001770       ?onProxySettingNotification@CInitSDKWorkFlow@@UAEXPAVIProxySettingHandler@ZOOMSDK@@@Z 00402770 f i init_auth_sdk_workflow.obj
 0001:00001770       ?onAuthenticationReturn@CSDKWithoutLoginStartJoinMeetingFlow@@UAEXW4AuthResult@ZOOMSDK@@@Z 00402770 f i LOGIN_join_meeting_only_workflow.obj
 0001:00001770       ?OnFinalMessage@CInvitationUIMgr@@UAEXPAUHWND__@@@Z 00402770 f i invitation_ui.obj
 0001:00001770       ?onActiveVideoUserChanged@CSDKCustomUIWorkFlow@@UAEXI@Z 00402770 f i custom_ui_mgr_flow.obj
 0001:00001770       ?onUserActiveAudioChange@CSDKCustomUIWorkFlow@@UAEXPAV?$IList@I@ZOOMSDK@@@Z 00402770 f i custom_ui_mgr_flow.obj
 0001:00001770       ?OnFinalMessage@CParticipantUIMgr@@UAEXPAUHWND__@@@Z 00402770 f i participant_ui.obj
 0001:00001770       ?onMeetingStatisticsWarningNotification@CSDKWithoutLoginStartJoinMeetingUIGroup@@UAEXW4StatisticsWarningType@ZOOMSDK@@@Z 00402770 f i LOGIN_sdk_login_UI.obj
 0001:00001770       ?_Destroy_if_node@?$_Tree@V?$_Tset_traits@PAVIAuthServiceEvent@ZOOMSDK@@U?$less@PAVIAuthServiceEvent@ZOOMSDK@@@std@@V?$allocator@PAVIAuthServiceEvent@ZOOMSDK@@@4@$0A@@std@@@std@@IAEXU_Not_a_node_tag@2@@Z 00402770 f i sdk_util.obj
 0001:00001770       ?onRecordPriviligeChanged@CSDKCustomUIWorkFlow@@UAEX_N@Z 00402770 f i custom_ui_mgr_flow.obj
 0001:00001770       ?OnFinalMessage@CSDKSettingsUIMgr@@UAEXPAUHWND__@@@Z 00402770 f i settings_ui.obj
 0001:00001770       ?_Destroy_if_node@?$_Tree@V?$_Tset_traits@PAVIMeetingParticipantsCtrlEvent@ZOOMSDK@@U?$less@PAVIMeetingParticipantsCtrlEvent@ZOOMSDK@@@std@@V?$allocator@PAVIMeetingParticipantsCtrlEvent@ZOOMSDK@@@4@$0A@@std@@@std@@IAEXU_Not_a_node_tag@2@@Z 00402770 f i sdk_util.obj
 0001:00001770       ?OnFinalMessage@CMoreFeaturesUIMgr@@UAEXPAUHWND__@@@Z 00402770 f i more_features_ui.obj
 0001:00001770       ?onMeetingStatisticsWarningNotification@CSDKRestAPIUserUIGroup@@UAEXW4StatisticsWarningType@ZOOMSDK@@@Z 00402770 f i LOGIN_sdk_login_UI.obj
 0001:00001770       ?onMeetingParameterNotification@CSDKLoggedInUIMgr@@UAEXPBUtagMeetingParameter@ZOOMSDK@@@Z 00402770 f i LoggedIn_sdk_controller_ui.obj
 0001:00001770       ?onCustomizedLocalRecordingSourceNotification@CCustomizeInMeetingUIMgr@@UAEXPAVICustomizedLocalRecordingLayoutHelper@ZOOMSDK@@@Z 00402770 f i custom_ui_mgr.obj
 0001:00001770       ?OnFinalMessage@CameraControlWindow@@UAEXPAUHWND__@@@Z 00402770 f i CameraControlWindow.obj
 0001:00001770       ?onChatStautsChangedNotification@CSDKMeetingChatUIMgr@@UAEXPAUtagChatStatus@ZOOMSDK@@@Z 00402770 f i chat_controller_ui.obj
 0001:00001770       ?onAuthenticationReturn@CSDKLoginCBHandler@@UAEXW4AuthResult@ZOOMSDK@@@Z 00402770 f i LOGIN_sdk_login_UI.obj
 0001:00001770       ?_Compat@?$_Vector_const_iterator@V?$_Vector_val@U?$_Simple_types@PAVIUserInfo@ZOOMSDK@@@std@@@std@@@std@@QBEXABV12@@Z 00402770 f i user_manager.obj
 0001:00001770       ?onHostRequestStartVideo@CSDKCustomUIWorkFlow@@UAEXPAVIRequestStartVideoHandler@ZOOMSDK@@@Z 00402770 f i custom_ui_mgr_flow.obj
 0001:00001770       ?onInviteBtnClicked@CSDKCustomUIWorkFlow@@UAEXAA_N@Z 00402770 f i custom_ui_mgr_flow.obj
 0001:00001770       ?OnFinalMessage@CArrowWindow@@UAEXPAUHWND__@@@Z 00402770 f i arrow_window.obj
 0001:00001770       ?OnFinalMessage@CDialInCountryUIMgr@@UAEXPAUHWND__@@@Z 00402770 f i dial_in_country_ui.obj
 0001:00001770       ?OnFinalMessage@CToolbarBottom@@UAEXPAUHWND__@@@Z 00402770 f i toolbar_bottom_ui.obj
 0001:00001770       ?OnFinalMessage@CSDKLoginUIMgr@@UAEXPAUHWND__@@@Z 00402770 f i LOGIN_sdk_login_UI.obj
 0001:00001770       ?onActiveVideoUserChanged@CUtilWnd@@UAEXI@Z 00402770 f i util_window.obj
 0001:00001770       ?onActiveSpeakerVideoUserChanged@CSDKCustomUIWorkFlow@@UAEXI@Z 00402770 f i custom_ui_mgr_flow.obj
 0001:00001770       ?onMeetingParameterNotification@CSDKJoinMeetingForLoginUserUIGroup@@UAEXPBUtagMeetingParameter@ZOOMSDK@@@Z 00402770 f i Join_meeting_for_login_user_ui.obj
 0001:00001770       ?onCloudRecordingStatus@CSDKCustomUIWorkFlow@@UAEXW4RecordingStatus@ZOOMSDK@@@Z 00402770 f i custom_ui_mgr_flow.obj
 0001:00001770       ?onChatStautsChangedNotification@CSDKCustomUIWorkFlow@@UAEXPAUtagChatStatus@ZOOMSDK@@@Z 00402770 f i custom_ui_mgr_flow.obj
 0001:00001770       ?onMeetingParameterNotification@CSDKWithoutLoginStartJoinMeetingFlow@@UAEXPBUtagMeetingParameter@ZOOMSDK@@@Z 00402770 f i LOGIN_join_meeting_only_workflow.obj
 0001:00001770       ?OnFinalMessage@CCustomizeUIShareSelectUI@@UAEXPAUHWND__@@@Z 00402770 f i custom_ui_share_mgr.obj
 0001:00001770       ?onLockShareStatus@CSDKCustomUIWorkFlow@@UAEX_N@Z 00402770 f i custom_ui_mgr_flow.obj
 0001:00001770       ?onMeetingParameterNotification@CSDKCustomUIWorkFlow@@UAEXPBUtagMeetingParameter@ZOOMSDK@@@Z 00402770 f i custom_ui_mgr_flow.obj
 0001:00001770       ?onActiveSpeakerVideoUserChanged@CUtilWnd@@UAEXI@Z 00402770 f i util_window.obj
 0001:00001770       ?onCustomizedAnnotationObjDestroyed@CCustomizeInMeetingUIMgr@@UAEXPAVICustomizedAnnotationObj@ZOOMSDK@@@Z 00402770 f i custom_ui_mgr.obj
 0001:00001770       ?OnNoAudioDeviceIsUseful@CSDKCustomUIWorkFlow@@UAEX_N@Z 00402770 f i custom_ui_mgr_flow.obj
 0001:00001770       ?onSharingSourceUserIDNotification@CCustomizeInMeetingUIMgr@@UAEXI@Z 00402770 f i custom_ui_mgr.obj
 0001:00001770       ?OnFinalMessage@CSDKMeetingChatUIMgr@@UAEXPAUHWND__@@@Z 00402770 f i chat_controller_ui.obj
 0001:00001770       ?onMeetingParameterNotification@CSDKRestAPIUserUIGroup@@UAEXPBUtagMeetingParameter@ZOOMSDK@@@Z 00402770 f i LOGIN_sdk_login_UI.obj
 0001:00001770       ?onMeetingStatisticsWarningNotification@CSDKCustomUIWorkFlow@@UAEXW4StatisticsWarningType@ZOOMSDK@@@Z 00402770 f i custom_ui_mgr_flow.obj
 0001:00001770       ?OnFinalMessage@AnnotateClearWindow@@UAEXPAUHWND__@@@Z 00402770 f i AnnotateClearWindow.obj
 0001:00001770       ?_Destroy_if_node@?$_Tree@V?$_Tset_traits@PAVIPreMeetingServiceEvent@ZOOMSDK@@U?$less@PAVIPreMeetingServiceEvent@ZOOMSDK@@@std@@V?$allocator@PAVIPreMeetingServiceEvent@ZOOMSDK@@@4@$0A@@std@@@std@@IAEXU_Not_a_node_tag@2@@Z 00402770 f i sdk_util.obj
 0001:00001770       ?OnFinalMessage@CMoreMenuUIMgr@@UAEXPAUHWND__@@@Z 00402770 f i more_menu_ui.obj
 0001:00001770       ?onMeetingStatisticsWarningNotification@CSDKJoinMeetingForLoginUserUIGroup@@UAEXW4StatisticsWarningType@ZOOMSDK@@@Z 00402770 f i Join_meeting_for_login_user_ui.obj
 0001:00001770       ?onHostChangeNotification@CSDKCustomUIWorkFlow@@UAEXI@Z 00402770 f i custom_ui_mgr_flow.obj
 0001:00001770       ?OnFinalMessage@ShareToolbarWindow@@UAEXPAUHWND__@@@Z 00402770 f i ShareToolbarWindow.obj
 0001:00001770       ?OnFinalMessage@CSDKInitAuthUIMgr@@UAEXPAUHWND__@@@Z 00402770 f i sdk_init_auth_ui.obj
 0001:00001770       ?onMeetingStatisticsWarningNotification@CSDKWithoutLoginStartJoinMeetingFlow@@UAEXW4StatisticsWarningType@ZOOMSDK@@@Z 00402770 f i LOGIN_join_meeting_only_workflow.obj
 0001:00001770       ?onMeetingStatisticsWarningNotification@CSDKLoggedInUIMgr@@UAEXW4StatisticsWarningType@ZOOMSDK@@@Z 00402770 f i LoggedIn_sdk_controller_ui.obj
 0001:00001770       ?_Destroy_if_node@?$_Tree@V?$_Tset_traits@PAVIMeetingChatCtrlEvent@ZOOMSDK@@U?$less@PAVIMeetingChatCtrlEvent@ZOOMSDK@@@std@@V?$allocator@PAVIMeetingChatCtrlEvent@ZOOMSDK@@@4@$0A@@std@@@std@@IAEXU_Not_a_node_tag@2@@Z 00402770 f i sdk_util.obj
 0001:00001770       ?onRecordingStatus@CSDKCustomUIWorkFlow@@UAEXW4RecordingStatus@ZOOMSDK@@@Z 00402770 f i custom_ui_mgr_flow.obj
 0001:00001770       ?HandleVideoContainerDestroyed@CCustomizeUIVideoMgr@@QAEXPAVICustomizedVideoContainer@ZOOMSDK@@@Z 00402770 f i custom_ui_video_mgr.obj
 0001:00001770       ?onRecording2MP4Processing@CSDKCustomUIWorkFlow@@UAEXH@Z 00402770 f i custom_ui_mgr_flow.obj
 0001:00001770       ?onMeetingParameterNotification@CSDKWithoutLoginStartJoinMeetingUIGroup@@UAEXPBUtagMeetingParameter@ZOOMSDK@@@Z 00402770 f i LOGIN_sdk_login_UI.obj
 0001:00001770       ?_Adopt@_Iterator_base0@std@@QAEXPBX@Z 00402770 f i participant_ui.obj
 0001:00001770       ?OnFinalMessage@CSDKJoinMeetingForLoginUserUIMgr@@UAEXPAUHWND__@@@Z 00402770 f i Join_meeting_for_login_user_ui.obj
 0001:00001770       ?_Destroy_if_node@?$_Tree@V?$_Tset_traits@PAVISDKInMeetingServiceMgrEvent@@U?$less@PAVISDKInMeetingServiceMgrEvent@@@std@@V?$allocator@PAVISDKInMeetingServiceMgrEvent@@@3@$0A@@std@@@std@@IAEXU_Not_a_node_tag@2@@Z 00402770 f i sdk_util.obj
 0001:00001770       ?onSSLCertVerifyNotification@CInitSDKWorkFlow@@UAEXPAVISSLCertVerificationHandler@ZOOMSDK@@@Z 00402770 f i init_auth_sdk_workflow.obj
 0001:00001770       ?_Destroy_if_node@?$_Tree@V?$_Tset_traits@PAVIMeetingServiceEvent@ZOOMSDK@@U?$less@PAVIMeetingServiceEvent@ZOOMSDK@@@std@@V?$allocator@PAVIMeetingServiceEvent@ZOOMSDK@@@4@$0A@@std@@@std@@IAEXU_Not_a_node_tag@2@@Z 00402770 f i sdk_util.obj
 0001:00001770       ?OnFinalMessage@AnnotateFormatWindow@@UAEXPAUHWND__@@@Z 00402770 f i AnnotateFormatWindow.obj
 0001:00001770       ?onMeetingParameterNotification@CSDKJoinMeetingForLoginUserFlow@@UAEXPBUtagMeetingParameter@ZOOMSDK@@@Z 00402770 f i Join_meeting_for_login_user_workflow.obj
 0001:00001770       ?_Destroy_if_node@?$_Tree@V?$_Tset_traits@PAVIClosedCaptionControllerEvent@ZOOMSDK@@U?$less@PAVIClosedCaptionControllerEvent@ZOOMSDK@@@std@@V?$allocator@PAVIClosedCaptionControllerEvent@ZOOMSDK@@@4@$0A@@std@@@std@@IAEXU_Not_a_node_tag@2@@Z 00402770 f i sdk_util.obj
 0001:00001770       ?Notify@ClosedCaptionDisplayUI@@UAEXAAUtagTNotifyUI@DuiLib@@@Z 00402770 f i display_cc_ui.obj
 0001:00001770       ?OnFinalMessage@CSDKSheduleMeetingUIMgr@@UAEXPAUHWND__@@@Z 00402770 f i schedule_meeting_ui.obj
 0001:00001780       ?Term@CComCriticalSection@ATL@@QAEJXZ 00402780 f i AnnotateBarWindow.obj
 0001:000017a0       ?_Adjust_manually_vector_aligned@std@@YAXAAPAXAAI@Z 004027a0 f i AnnotateBarWindow.obj
 0001:00001810       ?_Allocate@_Default_allocate_traits@std@@SAPAXI@Z 00402810 f i AnnotateBarWindow.obj
 0001:00001830       ?_AtlInitializeCriticalSectionEx@ATL@@YAHPAU_RTL_CRITICAL_SECTION@@KK@Z 00402830 f i AnnotateBarWindow.obj
 0001:00001850       ?_Calculate_growth@?$basic_string@_WU?$char_traits@_W@std@@V?$allocator@_W@2@@std@@QBEII@Z 00402850 f i AnnotateBarWindow.obj
 0001:000018d0       ?_Equal@?$basic_string@_WU?$char_traits@_W@std@@V?$allocator@_W@2@@std@@QBE_NQB_W@Z 004028d0 f i AnnotateBarWindow.obj
 0001:00001940       ?_Getcomp@?$_Tree_comp_alloc@V?$_Tset_traits@PAVIAuthServiceEvent@ZOOMSDK@@U?$less@PAVIAuthServiceEvent@ZOOMSDK@@@std@@V?$allocator@PAVIAuthServiceEvent@ZOOMSDK@@@4@$0A@@std@@@std@@QAEAAU?$less@PAVIAuthServiceEvent@ZOOMSDK@@@2@XZ 00402940 f i sdk_util.obj
 0001:00001940       ?_Getcomp@?$_Tree_comp_alloc@V?$_Tset_traits@PAVIMeetingChatCtrlEvent@ZOOMSDK@@U?$less@PAVIMeetingChatCtrlEvent@ZOOMSDK@@@std@@V?$allocator@PAVIMeetingChatCtrlEvent@ZOOMSDK@@@4@$0A@@std@@@std@@QBEABU?$less@PAVIMeetingChatCtrlEvent@ZOOMSDK@@@2@XZ 00402940 f i sdk_util.obj
 0001:00001940       ?_Get_data@?$_List_alloc@U?$_List_base_types@HV?$allocator@H@std@@@std@@@std@@QAEAAV?$_List_val@U?$_List_simple_types@H@std@@@2@XZ 00402940 f i participant_ui.obj
 0001:00001940       ?_Getal@?$_Vector_alloc@U?$_Vec_base_types@PAVIAlternativeHostInfo@ZOOMSDK@@V?$allocator@PAVIAlternativeHostInfo@ZOOMSDK@@@std@@@std@@@std@@QBEABV?$allocator@PAVIAlternativeHostInfo@ZOOMSDK@@@2@XZ 00402940 f i schedule_meeting_ui.obj
 0001:00001940       ?_Get_data@?$_Vector_alloc@U?$_Vec_base_types@PAVIInterpreterInfo@ZOOMSDK@@V?$allocator@PAVIInterpreterInfo@ZOOMSDK@@@std@@@std@@@std@@QAEAAV?$_Vector_val@U?$_Simple_types@PAVIInterpreterInfo@ZOOMSDK@@@std@@@2@XZ 00402940 f i schedule_meeting_ui.obj
 0001:00001940       ?_Get_data@?$_Vector_alloc@U?$_Vec_base_types@PAVIUserInfo@ZOOMSDK@@V?$allocator@PAVIUserInfo@ZOOMSDK@@@std@@@std@@@std@@QAEAAV?$_Vector_val@U?$_Simple_types@PAVIUserInfo@ZOOMSDK@@@std@@@2@XZ 00402940 f i user_manager.obj
 0001:00001940       ?_Getcomp@?$_Tree_comp_alloc@V?$_Tset_traits@PAVIMeetingChatCtrlEvent@ZOOMSDK@@U?$less@PAVIMeetingChatCtrlEvent@ZOOMSDK@@@std@@V?$allocator@PAVIMeetingChatCtrlEvent@ZOOMSDK@@@4@$0A@@std@@@std@@QAEAAU?$less@PAVIMeetingChatCtrlEvent@ZOOMSDK@@@2@XZ 00402940 f i sdk_util.obj
 0001:00001940       ?_Getcomp@?$_Tree_comp_alloc@V?$_Tset_traits@PAVIPreMeetingServiceEvent@ZOOMSDK@@U?$less@PAVIPreMeetingServiceEvent@ZOOMSDK@@@std@@V?$allocator@PAVIPreMeetingServiceEvent@ZOOMSDK@@@4@$0A@@std@@@std@@QBEABU?$less@PAVIPreMeetingServiceEvent@ZOOMSDK@@@2@XZ 00402940 f i sdk_util.obj
 0001:00001940       ?_Getal@?$_Vector_alloc@U?$_Vec_base_types@PAVIVirtualBGImageInfo@ZOOMSDK@@V?$allocator@PAVIVirtualBGImageInfo@ZOOMSDK@@@std@@@std@@@std@@QBEABV?$allocator@PAVIVirtualBGImageInfo@ZOOMSDK@@@2@XZ 00402940 f i settings_ui.obj
 0001:00001940       ?_Get_data@?$_Vector_alloc@U?$_Vec_base_types@V?$basic_string@_WU?$char_traits@_W@std@@V?$allocator@_W@2@@std@@V?$allocator@V?$basic_string@_WU?$char_traits@_W@std@@V?$allocator@_W@2@@std@@@2@@std@@@std@@QBEABV?$_Vector_val@U?$_Simple_types@V?$basic_string@_WU?$char_traits@_W@std@@V?$allocator@_W@2@@std@@@std@@@2@XZ 00402940 f i custom_ui_share_flow.obj
 0001:00001940       ?_Get_data@?$_String_alloc@U?$_String_base_types@_WV?$allocator@_W@std@@@std@@@std@@QBEABV?$_String_val@U?$_Simple_types@_W@std@@@2@XZ 00402940 f i AnnotateBarWindow.obj
 0001:00001940       ?_Get_data@?$_Vector_alloc@U?$_Vec_base_types@PAVIUserInfo@ZOOMSDK@@V?$allocator@PAVIUserInfo@ZOOMSDK@@@std@@@std@@@std@@QBEABV?$_Vector_val@U?$_Simple_types@PAVIUserInfo@ZOOMSDK@@@std@@@2@XZ 00402940 f i user_manager.obj
 0001:00001940       ?_Get_data@?$_Vector_alloc@U?$_Vec_base_types@PAVIAlternativeHostInfo@ZOOMSDK@@V?$allocator@PAVIAlternativeHostInfo@ZOOMSDK@@@std@@@std@@@std@@QBEABV?$_Vector_val@U?$_Simple_types@PAVIAlternativeHostInfo@ZOOMSDK@@@std@@@2@XZ 00402940 f i schedule_meeting_ui.obj
 0001:00001940       ?_Get_data@?$_Vector_alloc@U?$_Vec_base_types@PAVIAlternativeHostInfo@ZOOMSDK@@V?$allocator@PAVIAlternativeHostInfo@ZOOMSDK@@@std@@@std@@@std@@QAEAAV?$_Vector_val@U?$_Simple_types@PAVIAlternativeHostInfo@ZOOMSDK@@@std@@@2@XZ 00402940 f i schedule_meeting_ui.obj
 0001:00001940       ?_Getal@?$_List_alloc@U?$_List_base_types@HV?$allocator@H@std@@@std@@@std@@QAEAAV?$allocator@U?$_List_node@HPAX@std@@@2@XZ 00402940 f i participant_ui.obj
 0001:00001940       ?_Getcomp@?$_Tree_comp_alloc@V?$_Tset_traits@PAVIMeetingParticipantsCtrlEvent@ZOOMSDK@@U?$less@PAVIMeetingParticipantsCtrlEvent@ZOOMSDK@@@std@@V?$allocator@PAVIMeetingParticipantsCtrlEvent@ZOOMSDK@@@4@$0A@@std@@@std@@QBEABU?$less@PAVIMeetingParticipantsCtrlEvent@ZOOMSDK@@@2@XZ 00402940 f i sdk_util.obj
 0001:00001940       ?_Getal@?$_String_alloc@U?$_String_base_types@_WV?$allocator@_W@std@@@std@@@std@@QBEABV?$allocator@_W@2@XZ 00402940 f i AnnotateBarWindow.obj
 0001:00001940       ?_Get_data@?$_List_alloc@U?$_List_base_types@HV?$allocator@H@std@@@std@@@std@@QBEABV?$_List_val@U?$_List_simple_types@H@std@@@2@XZ 00402940 f i participant_ui.obj
 0001:00001940       ?_Getcomp@?$_Tree_comp_alloc@V?$_Tset_traits@PAVIClosedCaptionControllerEvent@ZOOMSDK@@U?$less@PAVIClosedCaptionControllerEvent@ZOOMSDK@@@std@@V?$allocator@PAVIClosedCaptionControllerEvent@ZOOMSDK@@@4@$0A@@std@@@std@@QBEABU?$less@PAVIClosedCaptionControllerEvent@ZOOMSDK@@@2@XZ 00402940 f i sdk_util.obj
 0001:00001940       ?_Getal@?$_Vector_alloc@U?$_Vec_base_types@PAVIInterpreterInfo@ZOOMSDK@@V?$allocator@PAVIInterpreterInfo@ZOOMSDK@@@std@@@std@@@std@@QBEABV?$allocator@PAVIInterpreterInfo@ZOOMSDK@@@2@XZ 00402940 f i schedule_meeting_ui.obj
 0001:00001940       ?_Get_data@?$_Vector_alloc@U?$_Vec_base_types@V?$basic_string@_WU?$char_traits@_W@std@@V?$allocator@_W@2@@std@@V?$allocator@V?$basic_string@_WU?$char_traits@_W@std@@V?$allocator@_W@2@@std@@@2@@std@@@std@@QAEAAV?$_Vector_val@U?$_Simple_types@V?$basic_string@_WU?$char_traits@_W@std@@V?$allocator@_W@2@@std@@@std@@@2@XZ 00402940 f i custom_ui_share_flow.obj
 0001:00001940       ?_Getcomp@?$_Tree_comp_alloc@V?$_Tmap_traits@IPAVIUserInfo@ZOOMSDK@@U?$less@I@std@@V?$allocator@U?$pair@$$CBIPAVIUserInfo@ZOOMSDK@@@std@@@4@$0A@@std@@@std@@QBEABU?$less@I@2@XZ 00402940 f i user_manager.obj
 0001:00001940       ?_Get_data@?$_Vector_alloc@U?$_Vec_base_types@PAVIVirtualBGImageInfo@ZOOMSDK@@V?$allocator@PAVIVirtualBGImageInfo@ZOOMSDK@@@std@@@std@@@std@@QAEAAV?$_Vector_val@U?$_Simple_types@PAVIVirtualBGImageInfo@ZOOMSDK@@@std@@@2@XZ 00402940 f i settings_ui.obj
 0001:00001940       ?_Getcomp@?$_Tree_comp_alloc@V?$_Tset_traits@PAVISDKInMeetingServiceMgrEvent@@U?$less@PAVISDKInMeetingServiceMgrEvent@@@std@@V?$allocator@PAVISDKInMeetingServiceMgrEvent@@@3@$0A@@std@@@std@@QAEAAU?$less@PAVISDKInMeetingServiceMgrEvent@@@2@XZ 00402940 f i sdk_util.obj
 0001:00001940       ?_Getal@?$_Vector_alloc@U?$_Vec_base_types@V?$basic_string@_WU?$char_traits@_W@std@@V?$allocator@_W@2@@std@@V?$allocator@V?$basic_string@_WU?$char_traits@_W@std@@V?$allocator@_W@2@@std@@@2@@std@@@std@@QAEAAV?$allocator@V?$basic_string@_WU?$char_traits@_W@std@@V?$allocator@_W@2@@std@@@2@XZ 00402940 f i custom_ui_share_flow.obj
 0001:00001940       ?_Getcomp@?$_Tree_comp_alloc@V?$_Tset_traits@PAVIMeetingParticipantsCtrlEvent@ZOOMSDK@@U?$less@PAVIMeetingParticipantsCtrlEvent@ZOOMSDK@@@std@@V?$allocator@PAVIMeetingParticipantsCtrlEvent@ZOOMSDK@@@4@$0A@@std@@@std@@QAEAAU?$less@PAVIMeetingParticipantsCtrlEvent@ZOOMSDK@@@2@XZ 00402940 f i sdk_util.obj
 0001:00001940       ?_Get_data@?$_Vector_alloc@U?$_Vec_base_types@PAVIInterpreterInfo@ZOOMSDK@@V?$allocator@PAVIInterpreterInfo@ZOOMSDK@@@std@@@std@@@std@@QBEABV?$_Vector_val@U?$_Simple_types@PAVIInterpreterInfo@ZOOMSDK@@@std@@@2@XZ 00402940 f i schedule_meeting_ui.obj
 0001:00001940       ?_Getal@?$_Vector_alloc@U?$_Vec_base_types@V?$basic_string@_WU?$char_traits@_W@std@@V?$allocator@_W@2@@std@@V?$allocator@V?$basic_string@_WU?$char_traits@_W@std@@V?$allocator@_W@2@@std@@@2@@std@@@std@@QBEABV?$allocator@V?$basic_string@_WU?$char_traits@_W@std@@V?$allocator@_W@2@@std@@@2@XZ 00402940 f i custom_ui_share_flow.obj
 0001:00001940       ?_Getcomp@?$_Tree_comp_alloc@V?$_Tset_traits@PAVIClosedCaptionControllerEvent@ZOOMSDK@@U?$less@PAVIClosedCaptionControllerEvent@ZOOMSDK@@@std@@V?$allocator@PAVIClosedCaptionControllerEvent@ZOOMSDK@@@4@$0A@@std@@@std@@QAEAAU?$less@PAVIClosedCaptionControllerEvent@ZOOMSDK@@@2@XZ 00402940 f i sdk_util.obj
 0001:00001940       ?_Getcomp@?$_Tree_comp_alloc@V?$_Tset_traits@PAVIPreMeetingServiceEvent@ZOOMSDK@@U?$less@PAVIPreMeetingServiceEvent@ZOOMSDK@@@std@@V?$allocator@PAVIPreMeetingServiceEvent@ZOOMSDK@@@4@$0A@@std@@@std@@QAEAAU?$less@PAVIPreMeetingServiceEvent@ZOOMSDK@@@2@XZ 00402940 f i sdk_util.obj
 0001:00001940       ?_Get_data@?$_String_alloc@U?$_String_base_types@_WV?$allocator@_W@std@@@std@@@std@@QAEAAV?$_String_val@U?$_Simple_types@_W@std@@@2@XZ 00402940 f i AnnotateBarWindow.obj
 0001:00001940       ?_Getcomp@?$_Tree_comp_alloc@V?$_Tset_traits@PAVIMeetingServiceEvent@ZOOMSDK@@U?$less@PAVIMeetingServiceEvent@ZOOMSDK@@@std@@V?$allocator@PAVIMeetingServiceEvent@ZOOMSDK@@@4@$0A@@std@@@std@@QAEAAU?$less@PAVIMeetingServiceEvent@ZOOMSDK@@@2@XZ 00402940 f i sdk_util.obj
 0001:00001940       ?_Getal@?$_Vector_alloc@U?$_Vec_base_types@PAVIAlternativeHostInfo@ZOOMSDK@@V?$allocator@PAVIAlternativeHostInfo@ZOOMSDK@@@std@@@std@@@std@@QAEAAV?$allocator@PAVIAlternativeHostInfo@ZOOMSDK@@@2@XZ 00402940 f i schedule_meeting_ui.obj
 0001:00001940       ?_Get_data@?$_Vector_alloc@U?$_Vec_base_types@PAVIVirtualBGImageInfo@ZOOMSDK@@V?$allocator@PAVIVirtualBGImageInfo@ZOOMSDK@@@std@@@std@@@std@@QBEABV?$_Vector_val@U?$_Simple_types@PAVIVirtualBGImageInfo@ZOOMSDK@@@std@@@2@XZ 00402940 f i settings_ui.obj
 0001:00001940       ?_Getcomp@?$_Tree_comp_alloc@V?$_Tset_traits@PAVISDKInMeetingServiceMgrEvent@@U?$less@PAVISDKInMeetingServiceMgrEvent@@@std@@V?$allocator@PAVISDKInMeetingServiceMgrEvent@@@3@$0A@@std@@@std@@QBEABU?$less@PAVISDKInMeetingServiceMgrEvent@@@2@XZ 00402940 f i sdk_util.obj
 0001:00001940       ?_Getal@?$_Vector_alloc@U?$_Vec_base_types@PAVIUserInfo@ZOOMSDK@@V?$allocator@PAVIUserInfo@ZOOMSDK@@@std@@@std@@@std@@QBEABV?$allocator@PAVIUserInfo@ZOOMSDK@@@2@XZ 00402940 f i user_manager.obj
 0001:00001940       ?_Getcomp@?$_Tree_comp_alloc@V?$_Tmap_traits@IPAVIUserInfo@ZOOMSDK@@U?$less@I@std@@V?$allocator@U?$pair@$$CBIPAVIUserInfo@ZOOMSDK@@@std@@@4@$0A@@std@@@std@@QAEAAU?$less@I@2@XZ 00402940 f i user_manager.obj
 0001:00001940       ?_Getal@?$_String_alloc@U?$_String_base_types@_WV?$allocator@_W@std@@@std@@@std@@QAEAAV?$allocator@_W@2@XZ 00402940 f i AnnotateBarWindow.obj
 0001:00001940       ?_Getcomp@?$_Tree_comp_alloc@V?$_Tset_traits@PAVIAuthServiceEvent@ZOOMSDK@@U?$less@PAVIAuthServiceEvent@ZOOMSDK@@@std@@V?$allocator@PAVIAuthServiceEvent@ZOOMSDK@@@4@$0A@@std@@@std@@QBEABU?$less@PAVIAuthServiceEvent@ZOOMSDK@@@2@XZ 00402940 f i sdk_util.obj
 0001:00001940       ?_Getal@?$_Vector_alloc@U?$_Vec_base_types@PAVIUserInfo@ZOOMSDK@@V?$allocator@PAVIUserInfo@ZOOMSDK@@@std@@@std@@@std@@QAEAAV?$allocator@PAVIUserInfo@ZOOMSDK@@@2@XZ 00402940 f i user_manager.obj
 0001:00001940       ?_Getal@?$_Vector_alloc@U?$_Vec_base_types@PAVIInterpreterInfo@ZOOMSDK@@V?$allocator@PAVIInterpreterInfo@ZOOMSDK@@@std@@@std@@@std@@QAEAAV?$allocator@PAVIInterpreterInfo@ZOOMSDK@@@2@XZ 00402940 f i schedule_meeting_ui.obj
 0001:00001940       ?_Getcomp@?$_Tree_comp_alloc@V?$_Tset_traits@PAVIMeetingServiceEvent@ZOOMSDK@@U?$less@PAVIMeetingServiceEvent@ZOOMSDK@@@std@@V?$allocator@PAVIMeetingServiceEvent@ZOOMSDK@@@4@$0A@@std@@@std@@QBEABU?$less@PAVIMeetingServiceEvent@ZOOMSDK@@@2@XZ 00402940 f i sdk_util.obj
 0001:00001940       ?_Getcomp@?$_Tree_comp_alloc@V?$_Tset_traits@PAVIMeetingVideoCtrlEvent@ZOOMSDK@@U?$less@PAVIMeetingVideoCtrlEvent@ZOOMSDK@@@std@@V?$allocator@PAVIMeetingVideoCtrlEvent@ZOOMSDK@@@4@$0A@@std@@@std@@QAEAAU?$less@PAVIMeetingVideoCtrlEvent@ZOOMSDK@@@2@XZ 00402940 f i sdk_util.obj
 0001:00001940       ?_Getal@?$_Vector_alloc@U?$_Vec_base_types@PAVIVirtualBGImageInfo@ZOOMSDK@@V?$allocator@PAVIVirtualBGImageInfo@ZOOMSDK@@@std@@@std@@@std@@QAEAAV?$allocator@PAVIVirtualBGImageInfo@ZOOMSDK@@@2@XZ 00402940 f i settings_ui.obj
 0001:00001940       ?_Getal@?$_List_alloc@U?$_List_base_types@HV?$allocator@H@std@@@std@@@std@@QBEABV?$allocator@U?$_List_node@HPAX@std@@@2@XZ 00402940 f i participant_ui.obj
 0001:00001960       ?_Large_string_engaged@?$_String_val@U?$_Simple_types@_W@std@@@std@@QBE_NXZ 00402960 f i AnnotateBarWindow.obj
 0001:00001990       ?_Myptr@?$_String_val@U?$_Simple_types@_W@std@@@std@@QAEPA_WXZ 00402990 f i AnnotateBarWindow.obj
 0001:00001990       ?_Myptr@?$_String_val@U?$_Simple_types@_W@std@@@std@@QBEPB_WXZ 00402990 f i AnnotateBarWindow.obj
 0001:000019d0       ?_Orphan_all@?$_Vector_alloc@U?$_Vec_base_types@PAVIVirtualBGImageInfo@ZOOMSDK@@V?$allocator@PAVIVirtualBGImageInfo@ZOOMSDK@@@std@@@std@@@std@@QAEXXZ 004029d0 f i settings_ui.obj
 0001:000019d0       ?_Orphan_all@?$_Vector_alloc@U?$_Vec_base_types@PAVIUserInfo@ZOOMSDK@@V?$allocator@PAVIUserInfo@ZOOMSDK@@@std@@@std@@@std@@QAEXXZ 004029d0 f i user_manager.obj
 0001:000019d0       ?_Orphan_all@?$_Vector_alloc@U?$_Vec_base_types@V?$basic_string@_WU?$char_traits@_W@std@@V?$allocator@_W@2@@std@@V?$allocator@V?$basic_string@_WU?$char_traits@_W@std@@V?$allocator@_W@2@@std@@@2@@std@@@std@@QAEXXZ 004029d0 f i custom_ui_share_flow.obj
 0001:000019d0       ?_Orphan_all@?$_Vector_alloc@U?$_Vec_base_types@PAVIInterpreterInfo@ZOOMSDK@@V?$allocator@PAVIInterpreterInfo@ZOOMSDK@@@std@@@std@@@std@@QAEXXZ 004029d0 f i schedule_meeting_ui.obj
 0001:000019d0       ?_Orphan_all@?$_String_alloc@U?$_String_base_types@_WV?$allocator@_W@std@@@std@@@std@@QAEXXZ 004029d0 f i AnnotateBarWindow.obj
 0001:000019d0       ?_Orphan_all@?$_Vector_alloc@U?$_Vec_base_types@PAVIAlternativeHostInfo@ZOOMSDK@@V?$allocator@PAVIAlternativeHostInfo@ZOOMSDK@@@std@@@std@@@std@@QAEXXZ 004029d0 f i schedule_meeting_ui.obj
 0001:000019f0       ?_Tidy_deallocate@?$basic_string@_WU?$char_traits@_W@std@@V?$allocator@_W@2@@std@@QAEXXZ 004029f0 f i AnnotateBarWindow.obj
 0001:00001aa0       ?_Tidy_init@?$basic_string@_WU?$char_traits@_W@std@@V?$allocator@_W@2@@std@@QAEXXZ 00402aa0 f i AnnotateBarWindow.obj
 0001:00001af0       ?_Xlen@?$basic_string@_WU?$char_traits@_W@std@@V?$allocator@_W@2@@std@@SAXXZ 00402af0 f i AnnotateBarWindow.obj
 0001:00001b00       ?allocate@?$allocator@_W@std@@QAEPA_WI@Z 00402b00 f i AnnotateBarWindow.obj
 0001:00001b30       ?assign@?$_WChar_traits@_W@std@@SAXAA_WAB_W@Z 00402b30 f i AnnotateBarWindow.obj
 0001:00001b50       ?assign@?$basic_string@_WU?$char_traits@_W@std@@V?$allocator@_W@2@@std@@QAEAAV12@QB_W@Z 00402b50 f i AnnotateBarWindow.obj
 0001:00001b80       ?assign@?$basic_string@_WU?$char_traits@_W@std@@V?$allocator@_W@2@@std@@QAEAAV12@QB_WI@Z 00402b80 f i AnnotateBarWindow.obj
 0001:00001c10       ?compare@?$_WChar_traits@_W@std@@SAHQB_W0I@Z 00402c10 f i AnnotateBarWindow.obj
 0001:00001c30       ?copy@?$_WChar_traits@_W@std@@SAPA_WQA_WQB_WI@Z 00402c30 f i AnnotateBarWindow.obj
 0001:00001c50       ?deallocate@?$allocator@_W@std@@QAEXQA_WI@Z 00402c50 f i AnnotateBarWindow.obj
 0001:00001c70       ?length@?$_WChar_traits@_W@std@@SAIPB_W@Z 00402c70 f i AnnotateBarWindow.obj
 0001:00001cb0       ?max_size@?$_Default_allocator_traits@V?$allocator@_W@std@@@std@@SAIABV?$allocator@_W@2@@Z 00402cb0 f i AnnotateBarWindow.obj
 0001:00001cb0       ?max@?$numeric_limits@H@std@@SAHXZ 00402cb0 f i AnnotateBarWindow.obj
 0001:00001cc0       ?max_size@?$basic_string@_WU?$char_traits@_W@std@@V?$allocator@_W@2@@std@@QBEIXZ 00402cc0 f i AnnotateBarWindow.obj
 0001:00001d20       ?move@?$_WChar_traits@_W@std@@SAPA_WQA_WQB_WI@Z 00402d20 f i AnnotateBarWindow.obj
 0001:00001d40       ?onClickClear@AnnotateBarWindow@@AAEXPAVICustomizedAnnotationObj@ZOOMSDK@@@Z 00402d40 f   AnnotateBarWindow.obj
 0001:00001ea0       ?onClickDraw@AnnotateBarWindow@@AAEXPAVICustomizedAnnotationObj@ZOOMSDK@@@Z 00402ea0 f   AnnotateBarWindow.obj
 0001:00001fd0       ?onClickFormat@AnnotateBarWindow@@AAEXPAVICustomizedAnnotationObj@ZOOMSDK@@@Z 00402fd0 f   AnnotateBarWindow.obj
 0001:00002100       ?onClickSpotlight@AnnotateBarWindow@@AAEXPAVICustomizedAnnotationObj@ZOOMSDK@@@Z 00403100 f   AnnotateBarWindow.obj
 0001:00002230       ?onClickStamp@AnnotateBarWindow@@AAEXPAVICustomizedAnnotationObj@ZOOMSDK@@@Z 00403230 f   AnnotateBarWindow.obj
 0001:00002360       _HRESULT_FROM_WIN32        00403360 f i AnnotateBarWindow.obj
 0001:000023a0       _wmemcmp                   004033a0 f i AnnotateBarWindow.obj
 0001:00002410       _wmemcpy                   00403410 f i AnnotateBarWindow.obj
 0001:00002430       _wmemmove                  00403430 f i AnnotateBarWindow.obj
 0001:00002450       ??0AnnotateClearWindow@@QAE@PAVICustomizedAnnotationObj@ZOOMSDK@@@Z 00403450 f   AnnotateClearWindow.obj
 0001:000024d0       ??1AnnotateClearWindow@@QAE@XZ 004034d0 f   AnnotateClearWindow.obj
 0001:00002520       ?GetSkinRes@AnnotateClearWindow@@UAEIXZ 00403520 f i AnnotateClearWindow.obj
 0001:00002530       ?HandleMessage@AnnotateClearWindow@@UAEJIIJ@Z 00403530 f   AnnotateClearWindow.obj
 0001:00002750       ?InitWindow@AnnotateClearWindow@@UAEXXZ 00403750 f   AnnotateClearWindow.obj
 0001:000027b0       ?MoveWindowPosTo@AnnotateClearWindow@@QAEXPAUHWND__@@@Z 004037b0 f   AnnotateClearWindow.obj
 0001:00002840       ?Notify@AnnotateClearWindow@@UAEXAAUtagTNotifyUI@DuiLib@@@Z 00403840 f   AnnotateClearWindow.obj
 0001:000028f0       ??0AnnotateDrawWindow@@QAE@PAVICustomizedAnnotationObj@ZOOMSDK@@@Z 004038f0 f   AnnotateDrawWindow.obj
 0001:000029e0       ??1AnnotateDrawWindow@@QAE@XZ 004039e0 f   AnnotateDrawWindow.obj
 0001:00002a30       ?GetSkinRes@AnnotateDrawWindow@@UAEIXZ 00403a30 f i AnnotateDrawWindow.obj
 0001:00002a40       ?HandleMessage@AnnotateDrawWindow@@UAEJIIJ@Z 00403a40 f   AnnotateDrawWindow.obj
 0001:00002c60       ?InitWindow@AnnotateDrawWindow@@UAEXXZ 00403c60 f   AnnotateDrawWindow.obj
 0001:00002da0       ?MoveWindowPosTo@AnnotateDrawWindow@@QAEXPAUHWND__@@@Z 00403da0 f   AnnotateDrawWindow.obj
 0001:00002e30       ?Notify@AnnotateDrawWindow@@UAEXAAUtagTNotifyUI@DuiLib@@@Z 00403e30 f   AnnotateDrawWindow.obj
 0001:000030c0       ??0AnnotateFormatWindow@@QAE@PAVICustomizedAnnotationObj@ZOOMSDK@@@Z 004040c0 f   AnnotateFormatWindow.obj
 0001:00003220       ??1AnnotateFormatWindow@@QAE@XZ 00404220 f   AnnotateFormatWindow.obj
 0001:00003270       ?GetSkinRes@AnnotateFormatWindow@@UAEIXZ 00404270 f i AnnotateFormatWindow.obj
 0001:00003280       ?HandleMessage@AnnotateFormatWindow@@UAEJIIJ@Z 00404280 f   AnnotateFormatWindow.obj
 0001:000034a0       ?InitWindow@AnnotateFormatWindow@@UAEXXZ 004044a0 f   AnnotateFormatWindow.obj
 0001:000036a0       ?MoveWindowPosTo@AnnotateFormatWindow@@QAEXPAUHWND__@@@Z 004046a0 f   AnnotateFormatWindow.obj
 0001:00003730       ?Notify@AnnotateFormatWindow@@UAEXAAUtagTNotifyUI@DuiLib@@@Z 00404730 f   AnnotateFormatWindow.obj
 0001:00003a80       ?onClickColor@AnnotateFormatWindow@@AAEXH@Z 00404a80 f   AnnotateFormatWindow.obj
 0001:00003ba0       ??0AnnotateSpolightWindow@@QAE@PAVICustomizedAnnotationObj@ZOOMSDK@@@Z 00404ba0 f   AnnotateSpolightWindow.obj
 0001:00003c10       ??1AnnotateSpolightWindow@@QAE@XZ 00404c10 f   AnnotateSpolightWindow.obj
 0001:00003c60       ?GetSkinRes@AnnotateSpolightWindow@@UAEIXZ 00404c60 f i AnnotateSpolightWindow.obj
 0001:00003c70       ?HandleMessage@AnnotateSpolightWindow@@UAEJIIJ@Z 00404c70 f   AnnotateSpolightWindow.obj
 0001:00003e90       ?InitWindow@AnnotateSpolightWindow@@UAEXXZ 00404e90 f   AnnotateSpolightWindow.obj
 0001:00003ed0       ?MoveWindowPosTo@AnnotateSpolightWindow@@QAEXPAUHWND__@@@Z 00404ed0 f   AnnotateSpolightWindow.obj
 0001:00003f60       ?Notify@AnnotateSpolightWindow@@UAEXAAUtagTNotifyUI@DuiLib@@@Z 00404f60 f   AnnotateSpolightWindow.obj
 0001:00003ff0       ??0AnnotateStampWindow@@QAE@PAVICustomizedAnnotationObj@ZOOMSDK@@@Z 00404ff0 f   AnnotateStampWindow.obj
 0001:00004090       ??1AnnotateStampWindow@@QAE@XZ 00405090 f   AnnotateStampWindow.obj
 0001:000040e0       ?GetSkinRes@AnnotateStampWindow@@UAEIXZ 004050e0 f i AnnotateStampWindow.obj
 0001:000040f0       ?HandleMessage@AnnotateStampWindow@@UAEJIIJ@Z 004050f0 f   AnnotateStampWindow.obj
 0001:00004310       ?InitWindow@AnnotateStampWindow@@UAEXXZ 00405310 f   AnnotateStampWindow.obj
 0001:000043c0       ?MoveWindowPosTo@AnnotateStampWindow@@QAEXPAUHWND__@@@Z 004053c0 f   AnnotateStampWindow.obj
 0001:00004450       ?Notify@AnnotateStampWindow@@UAEXAAUtagTNotifyUI@DuiLib@@@Z 00405450 f   AnnotateStampWindow.obj
 0001:00004560       ??0CArrowWindow@@QAE@PAVCCustomizeInMeetingUIMgr@@@Z 00405560 f   arrow_window.obj
 0001:000045e0       ??1CArrowWindow@@QAE@XZ    004055e0 f   arrow_window.obj
 0001:00004620       ?DestroyWindow@CParticipantUIMgr@@QAE_NXZ 00405620 f   participant_ui.obj
 0001:00004620       ?DestroyWindow@CArrowWindow@@QAE_NXZ 00405620 f   arrow_window.obj
 0001:00004620       ?DestroyWindow@CToolbarBottom@@QAE_NXZ 00405620 f   toolbar_bottom_ui.obj
 0001:00004660       ?DoButtonClick@CArrowWindow@@AAEXW4ArrowButtonType@@@Z 00405660 f   arrow_window.obj
 0001:00004690       ?EnableUsingButton@CArrowWindow@@QAEXW4ArrowButtonType@@_N@Z 00405690 f   arrow_window.obj
 0001:000047c0       ?GetClassStyle@CParticipantUIMgr@@UBEIXZ 004057c0 f i participant_ui.obj
 0001:000047c0       ?GetClassStyle@CMoreFeaturesUIMgr@@UBEIXZ 004057c0 f i more_features_ui.obj
 0001:000047c0       ?GetClassStyle@CCustomizeUIShareSelectUI@@UBEIXZ 004057c0 f i custom_ui_share_mgr.obj
 0001:000047c0       ?GetClassStyle@CArrowWindow@@UBEIXZ 004057c0 f i arrow_window.obj
 0001:000047c0       ?GetClassStyle@CMoreMenuUIMgr@@UBEIXZ 004057c0 f i more_menu_ui.obj
 0001:000047c0       ?GetClassStyle@CUtilWnd@@UBEIXZ 004057c0 f i util_window.obj
 0001:000047c0       ?GetClassStyle@CToolbarBottom@@UBEIXZ 004057c0 f i toolbar_bottom_ui.obj
 0001:000047d0       ?GetSkinRes@CArrowWindow@@UAEIXZ 004057d0 f i arrow_window.obj
 0001:000047e0       ?HandleMessage@CArrowWindow@@UAEJIIJ@Z 004057e0 f   arrow_window.obj
 0001:00004990       ?HandleSizeChanged@CArrowWindow@@QAEXUtagRECT@@@Z 00405990 f   arrow_window.obj
 0001:00004ab0       ?InitWindow@CArrowWindow@@UAEXXZ 00405ab0 f   arrow_window.obj
 0001:00004bc0       ?IsWindow@CArrowWindow@@QAE_NXZ 00405bc0 f   arrow_window.obj
 0001:00004bc0       ?IsWindow@CParticipantUIMgr@@QAE_NXZ 00405bc0 f   participant_ui.obj
 0001:00004bc0       ?IsWindow@CToolbarBottom@@QAE_NXZ 00405bc0 f   toolbar_bottom_ui.obj
 0001:00004bf0       ?Notify@CArrowWindow@@UAEXAAUtagTNotifyUI@DuiLib@@@Z 00405bf0 f   arrow_window.obj
 0001:00004c60       ??0CameraControlWindow@@QAE@PAVCCustomizeInMeetingUIMgr@@@Z 00405c60 f   CameraControlWindow.obj
 0001:00004d00       ?GetSkinRes@CameraControlWindow@@UAEIXZ 00405d00 f i CameraControlWindow.obj
 0001:00004d10       ?HandleMessage@CameraControlWindow@@UAEJIIJ@Z 00405d10 f   CameraControlWindow.obj
 0001:00004f10       ?InitWindow@CameraControlWindow@@UAEXXZ 00405f10 f   CameraControlWindow.obj
 0001:00005030       ?Notify@CameraControlWindow@@UAEXAAUtagTNotifyUI@DuiLib@@@Z 00406030 f   CameraControlWindow.obj
 0001:000052d0       ??$?0V?$allocator@_W@std@@$$V@?$_Compressed_pair@V?$allocator@_W@std@@V?$_String_val@U?$_Simple_types@_W@std@@@2@$00@std@@QAE@U_One_then_variadic_args_t@1@$$QAV?$allocator@_W@1@@Z 004062d0 f i chat_controller_ui.obj
 0001:00005300       ??$?0V?$allocator@_W@std@@X@?$_String_alloc@U?$_String_base_types@_WV?$allocator@_W@std@@@std@@@std@@QAE@$$QAV?$allocator@_W@1@@Z 00406300 f i chat_controller_ui.obj
 0001:00005330       ??$?H_WU?$char_traits@_W@std@@V?$allocator@_W@1@@std@@YA?AV?$basic_string@_WU?$char_traits@_W@std@@V?$allocator@_W@2@@0@$$QAV10@0@Z 00406330 f i chat_controller_ui.obj
 0001:000053e0       ??$?H_WU?$char_traits@_W@std@@V?$allocator@_W@1@@std@@YA?AV?$basic_string@_WU?$char_traits@_W@std@@V?$allocator@_W@2@@0@$$QAV10@ABV10@@Z 004063e0 f i chat_controller_ui.obj
 0001:00005420       ??$?H_WU?$char_traits@_W@std@@V?$allocator@_W@1@@std@@YA?AV?$basic_string@_WU?$char_traits@_W@std@@V?$allocator@_W@2@@0@$$QAV10@QB_W@Z 00406420 f i chat_controller_ui.obj
 0001:00005460       ??$_Pocma@V?$allocator@_W@std@@@std@@YAXAAV?$allocator@_W@0@0@Z 00406460 f i chat_controller_ui.obj
 0001:00005480       ??$_Pocma@V?$allocator@_W@std@@@std@@YAXAAV?$allocator@_W@0@0U?$integral_constant@_N$00@0@@Z 00406480 f i chat_controller_ui.obj
 0001:000054a0       ??$_Reallocate_grow_by@V<lambda_09fe38f6114539daa867a3e4d6874f49>@@IPB_WI@?$basic_string@_WU?$char_traits@_W@std@@V?$allocator@_W@2@@std@@QAEAAV01@IV<lambda_09fe38f6114539daa867a3e4d6874f49>@@IPB_WI@Z 004064a0 f i chat_controller_ui.obj
 0001:000055e0       ??$_Reallocate_grow_by@V<lambda_2fb699096920f2dc628cb0826b07831d>@@PB_WI@?$basic_string@_WU?$char_traits@_W@std@@V?$allocator@_W@2@@std@@QAEAAV01@IV<lambda_2fb699096920f2dc628cb0826b07831d>@@PB_WI@Z 004065e0 f i chat_controller_ui.obj
 0001:00005710       ??0?$basic_string@_WU?$char_traits@_W@std@@V?$allocator@_W@2@@std@@QAE@$$QAV01@@Z 00406710 f i chat_controller_ui.obj
 0001:00005790       ??0?$basic_string@_WU?$char_traits@_W@std@@V?$allocator@_W@2@@std@@QAE@XZ 00406790 f i chat_controller_ui.obj
 0001:000057e0       ??0CSDKMeetingChatUIMgr@@QAE@PAVCCustomizeInMeetingUIMgr@@@Z 004067e0 f   chat_controller_ui.obj
 0001:000058c0       ??0IMeetingChatCtrlEventWrap@@QAE@XZ 004068c0 f i chat_controller_ui.obj
 0001:000058e0       ??1CSDKMeetingChatUIMgr@@UAE@XZ 004068e0 f   chat_controller_ui.obj
 0001:00005970       ??4?$basic_string@_WU?$char_traits@_W@std@@V?$allocator@_W@2@@std@@QAEAAV01@$$QAV01@@Z 00406970 f i chat_controller_ui.obj
 0001:00005a00       ??R<lambda_09fe38f6114539daa867a3e4d6874f49>@@QBEXQA_WQB_WII1I@Z 00406a00 f i chat_controller_ui.obj
 0001:00005a70       ??R<lambda_2fb699096920f2dc628cb0826b07831d>@@QBEXQA_WQB_WI1I@Z 00406a70 f i chat_controller_ui.obj
 0001:00005ad0       ??_ECSDKMeetingChatUIMgr@@UAEPAXI@Z 00406ad0 f i chat_controller_ui.obj
 0001:00005ad0       ??_GCSDKMeetingChatUIMgr@@UAEPAXI@Z 00406ad0 f i chat_controller_ui.obj
 0001:00005b10       ?DestroyWindow@CSDKMeetingChatUIMgr@@QAE_NXZ 00406b10 f   chat_controller_ui.obj
 0001:00005b10       ?DestroyWindow@CCustomizeUIShareSelectUI@@QAE_NXZ 00406b10 f   custom_ui_share_mgr.obj
 0001:00005b50       ?DoPressEnterKey@CSDKMeetingChatUIMgr@@AAEXXZ 00406b50 f   chat_controller_ui.obj
 0001:00006070       ?GetSkinRes@CSDKMeetingChatUIMgr@@UAEIXZ 00407070 f i chat_controller_ui.obj
 0001:00006080       ?GetUserList@CSDKMeetingChatUIMgr@@AAEXXZ 00407080 f   chat_controller_ui.obj
 0001:000060c0       ?HandleMessage@CSDKMeetingChatUIMgr@@UAEJIIJ@Z 004070c0 f   chat_controller_ui.obj
 0001:000062d0       ?HandleUserChanged@CSDKMeetingChatUIMgr@@QAEXXZ 004072d0 f   chat_controller_ui.obj
 0001:000062f0       ?InitWindow@CSDKMeetingChatUIMgr@@UAEXXZ 004072f0 f   chat_controller_ui.obj
 0001:00006490       ?Notify@CSDKMeetingChatUIMgr@@UAEXAAUtagTNotifyUI@DuiLib@@@Z 00407490 f   chat_controller_ui.obj
 0001:000065d0       ?OnClose@CSDKMeetingChatUIMgr@@QAEJIIJAAH@Z 004075d0 f   chat_controller_ui.obj
 0001:00006600       ?OnDestroy@CSDKMeetingChatUIMgr@@QAEJIIJAAH@Z 00407600 f   chat_controller_ui.obj
 0001:00006620       ?SendChatMsg@CSDKMeetingChatUIMgr@@AAE_NIPA_W@Z 00407620 f   chat_controller_ui.obj
 0001:00006660       ?UpdateUserListCombox@CSDKMeetingChatUIMgr@@AAEXXZ 00407660 f   chat_controller_ui.obj
 0001:000068a0       ?_Assign_rv_contents@?$basic_string@_WU?$char_traits@_W@std@@V?$allocator@_W@2@@std@@QAEX$$QAV12@U?$integral_constant@_N$00@2@@Z 004078a0 f i chat_controller_ui.obj
 0001:000068d0       ?_Assign_rv_contents_with_alloc_always_equal@?$basic_string@_WU?$char_traits@_W@std@@V?$allocator@_W@2@@std@@QAEX$$QAV12@U?$integral_constant@_N$00@2@@Z 004078d0 f i chat_controller_ui.obj
 0001:00006970       ?_Check_offset@?$_String_val@U?$_Simple_types@_W@std@@@std@@QBEXI@Z 00407970 f i chat_controller_ui.obj
 0001:00006990       ?_Move_alloc@?$_String_alloc@U?$_String_base_types@_WV?$allocator@_W@std@@@std@@@std@@QAEXAAV?$allocator@_W@2@@Z 00407990 f i chat_controller_ui.obj
 0001:000069c0       ?_Xran@?$_String_val@U?$_Simple_types@_W@std@@@std@@SAXXZ 004079c0 f i chat_controller_ui.obj
 0001:000069d0       ?append@?$basic_string@_WU?$char_traits@_W@std@@V?$allocator@_W@2@@std@@QAEAAV12@ABV12@@Z 004079d0 f i chat_controller_ui.obj
 0001:00006a10       ?append@?$basic_string@_WU?$char_traits@_W@std@@V?$allocator@_W@2@@std@@QAEAAV12@QB_W@Z 00407a10 f i chat_controller_ui.obj
 0001:00006a40       ?append@?$basic_string@_WU?$char_traits@_W@std@@V?$allocator@_W@2@@std@@QAEAAV12@QB_WI@Z 00407a40 f i chat_controller_ui.obj
 0001:00006af0       ?c_str@?$basic_string@_WU?$char_traits@_W@std@@V?$allocator@_W@2@@std@@QBEPB_WXZ 00407af0 f i chat_controller_ui.obj
 0001:00006b40       ?capacity@?$basic_string@_WU?$char_traits@_W@std@@V?$allocator@_W@2@@std@@QBEIXZ 00407b40 f i chat_controller_ui.obj
 0001:00006b60       ?insert@?$basic_string@_WU?$char_traits@_W@std@@V?$allocator@_W@2@@std@@QAEAAV12@IABV12@@Z 00407b60 f i chat_controller_ui.obj
 0001:00006ba0       ?insert@?$basic_string@_WU?$char_traits@_W@std@@V?$allocator@_W@2@@std@@QAEAAV12@IQB_WI@Z 00407ba0 f i chat_controller_ui.obj
 0001:00006cd0       ?onChatMsgNotifcation@CSDKMeetingChatUIMgr@@UAEXPAVIChatMsgInfo@ZOOMSDK@@PB_W@Z 00407cd0 f   chat_controller_ui.obj
 0001:000074b0       ?size@?$basic_string@_WU?$char_traits@_W@std@@V?$allocator@_W@2@@std@@QBEIXZ 004084b0 f i chat_controller_ui.obj
 0001:000074b0       ?length@?$basic_string@_WU?$char_traits@_W@std@@V?$allocator@_W@2@@std@@QBEIXZ 004084b0 f i custom_ui_share_mgr.obj
 0001:000074d0       ??0CSDKChatControllerWorkFlow@@QAE@XZ 004084d0 f   chat_controller_workflow.obj
 0001:00007520       ??0IMeetingChatCtrlEvent@ZOOMSDK@@QAE@XZ 00408520 f i chat_controller_workflow.obj
 0001:00007540       ??1CSDKChatControllerWorkFlow@@UAE@XZ 00408540 f   chat_controller_workflow.obj
 0001:000075b0       ??_GCSDKChatControllerWorkFlow@@UAEPAXI@Z 004085b0 f i chat_controller_workflow.obj
 0001:000075b0       ??_ECSDKChatControllerWorkFlow@@UAEPAXI@Z 004085b0 f i chat_controller_workflow.obj
 0001:000075e0       ?InitController@CSDKChatControllerWorkFlow@@QAE_NXZ 004085e0 f   chat_controller_workflow.obj
 0001:00007660       ?SendChatMsg@CSDKChatControllerWorkFlow@@QAE?AW4SDKError@ZOOMSDK@@IPA_W@Z 00408660 f   chat_controller_workflow.obj
 0001:000076a0       ?SetEvent@CSDKChatControllerWorkFlow@@QAEXPAVIMeetingChatCtrlEventWrap@@@Z 004086a0 f   chat_controller_workflow.obj
 0001:000076a0       ?SetUserEmail@CZoomHttpRequestHelper@@QAEXPA_W@Z 004086a0 f   HttpRequestHelper.obj
 0001:000076c0       ?UnInit@CSDKChatControllerWorkFlow@@QAEXXZ 004086c0 f   chat_controller_workflow.obj
 0001:00007710       ?onChatMsgNotifcation@CSDKChatControllerWorkFlow@@UAEXPAVIChatMsgInfo@ZOOMSDK@@PB_W@Z 00408710 f   chat_controller_workflow.obj
 0001:00007710       ?onMeetingStatusChanged@CSDKRestAPIUserWorkFlow@@UAEXW4MeetingStatus@ZOOMSDK@@H@Z 00408710 f   LOGIN_restapi_without_login_workflow.obj
 0001:00007710       ?onMeetingStatusChanged@CSDKWithoutLoginStartJoinMeetingFlow@@UAEXW4MeetingStatus@ZOOMSDK@@H@Z 00408710 f   LOGIN_join_meeting_only_workflow.obj
 0001:00007710       ?onMeetingStatusChanged@CSDKJoinMeetingForLoginUserFlow@@UAEXW4MeetingStatus@ZOOMSDK@@H@Z 00408710 f   Join_meeting_for_login_user_workflow.obj
 0001:00007740       ?onChatStautsChangedNotification@CSDKChatControllerWorkFlow@@UAEXPAUtagChatStatus@ZOOMSDK@@@Z 00408740 f   chat_controller_workflow.obj
 0001:00007740       ?onMeetingStatisticsWarningNotification@CSDKRestAPIUserWorkFlow@@UAEXW4StatisticsWarningType@ZOOMSDK@@@Z 00408740 f   LOGIN_restapi_without_login_workflow.obj
 0001:00007770       ??$?8_WU?$char_traits@_W@std@@V?$allocator@_W@1@@std@@YA_NQB_WABV?$basic_string@_WU?$char_traits@_W@std@@V?$allocator@_W@2@@0@@Z 00408770 f i close_caption_ui.obj
 0001:00007790       ??0CCloseCaptionUIMgr@@QAE@PAVCCustomizeInMeetingUIMgr@@@Z 00408790 f   close_caption_ui.obj
 0001:00007870       ??0IClosedCaptionWorkflowEvent@@QAE@XZ 00408870 f i close_caption_ui.obj
 0001:00007890       ??1CCloseCaptionUIMgr@@UAE@XZ 00408890 f   close_caption_ui.obj
 0001:00007960       ??_ECCloseCaptionUIMgr@@UAEPAXI@Z 00408960 f i close_caption_ui.obj
 0001:00007960       ??_GCCloseCaptionUIMgr@@UAEPAXI@Z 00408960 f i close_caption_ui.obj
 0001:000079a0       ?DoClickAssignedBtn@CCloseCaptionUIMgr@@AAEXXZ 004089a0 f   close_caption_ui.obj
 0001:00007e50       ?DoClickCopyBtn@CCloseCaptionUIMgr@@AAEXXZ 00408e50 f   close_caption_ui.obj
 0001:00007eb0       ?DoClickEnterBtn@CCloseCaptionUIMgr@@AAEXXZ 00408eb0 f   close_caption_ui.obj
 0001:000080a0       ?DoClickSaveBtn@CCloseCaptionUIMgr@@AAEXXZ 004090a0 f   close_caption_ui.obj
 0001:00008110       ?GetAssignedStatus@CCloseCaptionUIMgr@@QAE_NXZ 00409110 f   close_caption_ui.obj
 0001:00008130       ?GetSkinRes@CCloseCaptionUIMgr@@UAEIXZ 00409130 f i close_caption_ui.obj
 0001:00008140       ?HandleMessage@CCloseCaptionUIMgr@@UAEJIIJ@Z 00409140 f   close_caption_ui.obj
 0001:00008350       ?HideAssignLayout@CCloseCaptionUIMgr@@QAEXXZ 00409350 f   close_caption_ui.obj
 0001:00008390       ?Init@CCloseCaptionUIMgr@@AAEXXZ 00409390 f   close_caption_ui.obj
 0001:00008460       ?InitWindow@CCloseCaptionUIMgr@@UAEXXZ 00409460 f   close_caption_ui.obj
 0001:00008750       ?IsHost@CCloseCaptionUIMgr@@QAE_NXZ 00409750 f   close_caption_ui.obj
 0001:00008770       ?Notify@CCloseCaptionUIMgr@@UAEXAAUtagTNotifyUI@DuiLib@@@Z 00409770 f   close_caption_ui.obj
 0001:00008830       ?ShowErrorsMsg@CCloseCaptionUIMgr@@AAEXPB_W@Z 00409830 f   close_caption_ui.obj
 0001:00008850       ?UpdateListCombox@CCloseCaptionUIMgr@@QAEXXZ 00409850 f   close_caption_ui.obj
 0001:00008a90       ?onAssignedToSendCC@CCloseCaptionUIMgr@@UAEX_N@Z 00409a90 f   close_caption_ui.obj
 0001:00008af0       ?onClosedCaptionMsgReceived@CCloseCaptionUIMgr@@UAEXPB_W_J@Z 00409af0 f   close_caption_ui.obj
 0001:00008d70       ??0CCloseCaptionWorkflow@@QAE@XZ 00409d70 f   close_caption_workflow.obj
 0001:00008db0       ??0IClosedCaptionControllerEvent@ZOOMSDK@@QAE@XZ 00409db0 f i close_caption_workflow.obj
 0001:00008dd0       ??1CCloseCaptionWorkflow@@UAE@XZ 00409dd0 f   close_caption_workflow.obj
 0001:00008e40       ??_ECCloseCaptionWorkflow@@UAEPAXI@Z 00409e40 f i close_caption_workflow.obj
 0001:00008e40       ??_GCCloseCaptionWorkflow@@UAEPAXI@Z 00409e40 f i close_caption_workflow.obj
 0001:00008e70       ?AssignCCPriviledge@CCloseCaptionWorkflow@@QAE?AW4SDKError@ZOOMSDK@@I_N@Z 00409e70 f   close_caption_workflow.obj
 0001:00008ec0       ?CanBeAssignedToSendCC@CCloseCaptionWorkflow@@QAE_NI@Z 00409ec0 f   close_caption_workflow.obj
 0001:00008f00       ?CanIAssignOthersToSendCC@CCloseCaptionWorkflow@@QAE_NXZ 00409f00 f   close_caption_workflow.obj
 0001:00008f40       ?CanSendClosedCaption@CCloseCaptionWorkflow@@QAE_NXZ 00409f40 f   close_caption_workflow.obj
 0001:00008f80       ?GetClosedCaptionSavePath@CCloseCaptionWorkflow@@QAEPB_WXZ 00409f80 f   close_caption_workflow.obj
 0001:00008fc0       ?GetClosedCaptionUrlFor3rdParty@CCloseCaptionWorkflow@@QAEPB_WXZ 00409fc0 f   close_caption_workflow.obj
 0001:00009000       ?Init@CCloseCaptionWorkflow@@QAEXXZ 0040a000 f   close_caption_workflow.obj
 0001:00009060       ?SaveCCHistory@CCloseCaptionWorkflow@@QAE?AW4SDKError@ZOOMSDK@@XZ 0040a060 f   close_caption_workflow.obj
 0001:000090c0       ?SendClosedCaption@CCloseCaptionWorkflow@@QAE?AW4SDKError@ZOOMSDK@@PB_W@Z 0040a0c0 f   close_caption_workflow.obj
 0001:00009100       ?SetUIEvent@CSDKWithoutLoginStartJoinMeetingFlow@@QAEXPAVCSDKJoinMeetingOnlyFlowUIEvent@@@Z 0040a100 f   LOGIN_join_meeting_only_workflow.obj
 0001:00009100       ?SetEvent@CCloseCaptionWorkflow@@QAEXPAVIClosedCaptionWorkflowEvent@@@Z 0040a100 f   close_caption_workflow.obj
 0001:00009100       ?SetUIEvent@CSDKAudioSettingsWorkFlow@@QAEXPAVCSDKAudioSettingsUIEvent@@@Z 0040a100 f   SETTINGS_audio_workflow.obj
 0001:00009100       ?SetUIEvent@CSDKVideoSettingsWorkFlow@@QAEXPAVCSDKVideoSettingsUIEvent@@@Z 0040a100 f   SETTINGS_video_workflow.obj
 0001:00009100       ?SetUIEvent@CSDKLoggedInUIWorkFlow@@QAEXPAVCSDKLoggedInFlowUIEvent@@@Z 0040a100 f   LoggedIn_sdk_controller_workflow.obj
 0001:00009120       ?onAssignedToSendCC@CCloseCaptionWorkflow@@UAEX_N@Z 0040a120 f   close_caption_workflow.obj
 0001:00009150       ?onClosedCaptionMsgReceived@CCloseCaptionWorkflow@@UAEXPB_W_J@Z 0040a150 f   close_caption_workflow.obj
 0001:00009190       ??0CustomizedUIRecordMgr@@AAE@XZ 0040a190 f   CustomizedUIRecordMgr.obj
 0001:000091c0       ??0IMeetingRecordingCtrlEvent@ZOOMSDK@@QAE@XZ 0040a1c0 f i CustomizedUIRecordMgr.obj
 0001:000091e0       ??4?$basic_string@_WU?$char_traits@_W@std@@V?$allocator@_W@2@@std@@QAEAAV01@QB_W@Z 0040a1e0 f i CustomizedUIRecordMgr.obj
 0001:00009200       ?AllowLocalRecording@CustomizedUIRecordMgr@@QAE_NI@Z 0040a200 f   CustomizedUIRecordMgr.obj
 0001:00009250       ?CanIChangeOthersRecordingPermission@CustomizedUIRecordMgr@@QAE_NXZ 0040a250 f   CustomizedUIRecordMgr.obj
 0001:000092a0       ?CanIStartCloudRecording@CustomizedUIRecordMgr@@QAE_NXZ 0040a2a0 f   CustomizedUIRecordMgr.obj
 0001:000092c0       ?CanIStartLocalRecording@CustomizedUIRecordMgr@@QAE_NXZ 0040a2c0 f   CustomizedUIRecordMgr.obj
 0001:000092e0       ?CanTheUserStartCloudRecording@CustomizedUIRecordMgr@@QAE_NI@Z 0040a2e0 f   CustomizedUIRecordMgr.obj
 0001:00009330       ?CanTheUserStartLocalRecording@CustomizedUIRecordMgr@@QAE_NI@Z 0040a330 f   CustomizedUIRecordMgr.obj
 0001:00009380       ?DisAllowLocalRecording@CustomizedUIRecordMgr@@QAE_NI@Z 0040a380 f   CustomizedUIRecordMgr.obj
 0001:000093d0       ?GetInstance@CustomizedUIRecordMgr@@SAPAV1@XZ 0040a3d0 f   CustomizedUIRecordMgr.obj
 0001:00009460       ?GetRecordController@CustomizedUIRecordMgr@@AAEXXZ 0040a460 f   CustomizedUIRecordMgr.obj
 0001:000094d0       ?StartCloudRecording@CustomizedUIRecordMgr@@QAE_NXZ 0040a4d0 f   CustomizedUIRecordMgr.obj
 0001:00009520       ?StartRecording@CustomizedUIRecordMgr@@QAE_NAA_J@Z 0040a520 f   CustomizedUIRecordMgr.obj
 0001:000095c0       ?StopCloudRecording@CustomizedUIRecordMgr@@QAE_NXZ 0040a5c0 f   CustomizedUIRecordMgr.obj
 0001:00009610       ?StopRecording@CustomizedUIRecordMgr@@QAE_NAA_J@Z 0040a610 f   CustomizedUIRecordMgr.obj
 0001:00009660       ?onCloudRecordingStatus@CustomizedUIRecordMgr@@UAEXW4RecordingStatus@ZOOMSDK@@@Z 0040a660 f   CustomizedUIRecordMgr.obj
 0001:00009750       ?onCustomizedLocalRecordingSourceNotification@CustomizedUIRecordMgr@@UAEXPAVICustomizedLocalRecordingLayoutHelper@ZOOMSDK@@@Z 0040a750 f   CustomizedUIRecordMgr.obj
 0001:00009a80       ?onRecordPriviligeChanged@CustomizedUIRecordMgr@@UAEX_N@Z 0040aa80 f   CustomizedUIRecordMgr.obj
 0001:00009ac0       ?onRecording2MP4Done@CustomizedUIRecordMgr@@UAEX_NHPB_W@Z 0040aac0 f   CustomizedUIRecordMgr.obj
 0001:00009b80       ?onRecording2MP4Processing@CustomizedUIRecordMgr@@UAEXH@Z 0040ab80 f   CustomizedUIRecordMgr.obj
 0001:00009be0       ?onRecordingStatus@CustomizedUIRecordMgr@@UAEXW4RecordingStatus@ZOOMSDK@@@Z 0040abe0 f   CustomizedUIRecordMgr.obj
 0001:00009c80       ??0CCustomizeInMeetingUIMgr@@QAE@XZ 0040ac80 f   custom_ui_mgr.obj
 0001:00009d90       ??0ICustomizedShareRenderEvent@ZOOMSDK@@QAE@XZ 0040ad90 f i custom_ui_mgr.obj
 0001:00009db0       ??0ICustomizedUIMgrEvent@ZOOMSDK@@QAE@XZ 0040adb0 f i custom_ui_mgr.obj
 0001:00009dd0       ??0ICustomizedVideoContainerEvent@ZOOMSDK@@QAE@XZ 0040add0 f i custom_ui_mgr.obj
 0001:00009df0       ??0ICutomizedUIOwnWndInterface@@IAE@XZ 0040adf0 f i custom_ui_mgr.obj
 0001:00009e20       ??0ISDKInMeetingServiceCustomUIEvent@@QAE@XZ 0040ae20 f i custom_ui_mgr.obj
 0001:00009e40       ??_GCArrowWindow@@QAEPAXI@Z 0040ae40 f i custom_ui_mgr.obj
 0001:00009e80       ??_GCMoreMenuUIMgr@@QAEPAXI@Z 0040ae80 f i custom_ui_mgr.obj
 0001:00009ec0       ??_GCParticipantUIMgr@@QAEPAXI@Z 0040aec0 f i custom_ui_mgr.obj
 0001:00009f00       ?ActivateUI@CCustomizeInMeetingUIMgr@@QAEXXZ 0040af00 f   custom_ui_mgr.obj
 0001:00009f60       ?CreateArrowWindow@CCustomizeInMeetingUIMgr@@AAEXXZ 0040af60 f   custom_ui_mgr.obj
 0001:0000a130       ?CreateCameraControlWindow@CCustomizeInMeetingUIMgr@@AAEXXZ 0040b130 f   custom_ui_mgr.obj
 0001:0000a220       ?CreateChatWindow@CCustomizeInMeetingUIMgr@@AAEXXZ 0040b220 f   custom_ui_mgr.obj
 0001:0000a330       ?CreateDisplayCCWnd@CCustomizeInMeetingUIMgr@@QAEPAVClosedCaptionDisplayUI@@XZ 0040b330 f   custom_ui_mgr.obj
 0001:0000a460       ?CreateParticipantWindow@CCustomizeInMeetingUIMgr@@AAEXXZ 0040b460 f   custom_ui_mgr.obj
 0001:0000a560       ?DestroyAllSubWindow@CCustomizeInMeetingUIMgr@@AAEXXZ 0040b560 f   custom_ui_mgr.obj
 0001:0000a5b0       ?DestroyArrowWindow@CCustomizeInMeetingUIMgr@@AAEXXZ 0040b5b0 f   custom_ui_mgr.obj
 0001:0000a6a0       ?DestroyChatWindow@CCustomizeInMeetingUIMgr@@AAEXXZ 0040b6a0 f   custom_ui_mgr.obj
 0001:0000a720       ?DestroyDisplayCCWnd@CCustomizeInMeetingUIMgr@@QAEXXZ 0040b720 f   custom_ui_mgr.obj
 0001:0000a780       ?DestroyMoreMenuWindow@CCustomizeInMeetingUIMgr@@AAEXXZ 0040b780 f   custom_ui_mgr.obj
 0001:0000a7f0       ?DestroyParticipantWindow@CCustomizeInMeetingUIMgr@@AAEXXZ 0040b7f0 f   custom_ui_mgr.obj
 0001:0000a870       ?DoLayout@CCustomizeInMeetingUIMgr@@AAEXXZ 0040b870 f   custom_ui_mgr.obj
 0001:0000a8b0       ?DoLayoutActiveVideo@CCustomizeInMeetingUIMgr@@AAEXXZ 0040b8b0 f   custom_ui_mgr.obj
 0001:0000a8e0       ?DoLayoutArrowWindow@CCustomizeInMeetingUIMgr@@AAEXXZ 0040b8e0 f   custom_ui_mgr.obj
 0001:0000ab10       ?DoLayoutNormalVideo@CCustomizeInMeetingUIMgr@@AAEXXZ 0040bb10 f   custom_ui_mgr.obj
 0001:0000ab60       ?DoLayoutParticipantsWindow@CCustomizeInMeetingUIMgr@@AAEXXZ 0040bb60 f   custom_ui_mgr.obj
 0001:0000ac80       ?GetCustomizedMgr@CCustomizeInMeetingUIMgr@@QAEPAVICustomizedUIMgr@ZOOMSDK@@XZ 0040bc80 f   custom_ui_mgr.obj
 0001:0000aca0       ?GetWindowHandle@CCustomizeUIShareRenderUI@@QAEPAUHWND__@@XZ 0040bca0 f   custom_ui_share_mgr.obj
 0001:0000aca0       ?GetHWND@CCustomizeInMeetingUIMgr@@QAEPAUHWND__@@XZ 0040bca0 f   custom_ui_mgr.obj
 0001:0000acc0       ?GetUserList@CCustomizeInMeetingUIMgr@@QAEPAVCSDKUserList@@XZ 0040bcc0 f   custom_ui_mgr.obj
 0001:0000ace0       ?HandleChatWindowBeClosed@CCustomizeInMeetingUIMgr@@QAEXXZ 0040bce0 f   custom_ui_mgr.obj
 0001:0000ad00       ?HandleInMeeting@CCustomizeInMeetingUIMgr@@AAEXXZ 0040bd00 f   custom_ui_mgr.obj
 0001:0000ada0       ?HandleMoveToWaitingRoom@CCustomizeInMeetingUIMgr@@AAEXXZ 0040bda0 f   custom_ui_mgr.obj
 0001:0000ae10       ?HideMenuWhenMenuVisible@CCustomizeInMeetingUIMgr@@QAE_NXZ 0040be10 f   custom_ui_mgr.obj
 0001:0000ae60       ?Init@CCustomizeInMeetingUIMgr@@QAEXXZ 0040be60 f   custom_ui_mgr.obj
 0001:0000aeb0       ?InitCustomShareRender@CCustomizeInMeetingUIMgr@@AAE_NXZ 0040beb0 f   custom_ui_mgr.obj
 0001:0000afc0       ?InitCustomizeUIVideoMgr@CCustomizeInMeetingUIMgr@@AAE_NXZ 0040bfc0 f   custom_ui_mgr.obj
 0001:0000b100       ?InitUserList@CCustomizeInMeetingUIMgr@@AAEXXZ 0040c100 f   custom_ui_mgr.obj
 0001:0000b1a0       ?PageButtonClick@CCustomizeInMeetingUIMgr@@QAEXW4ArrowButtonType@@@Z 0040c1a0 f   custom_ui_mgr.obj
 0001:0000b1e0       ?Reset@CCustomizeInMeetingUIMgr@@AAEXXZ 0040c1e0 f   custom_ui_mgr.obj
 0001:0000b2d0       ?SetEvent@CCustomizeInMeetingUIMgr@@QAEXPAVCSDKDemoAppEvent@@@Z 0040c2d0 f   custom_ui_mgr.obj
 0001:0000b2f0       ?SetEvent@CToolbarMgr@@QAEXPAVCSDKDemoAppEvent@@@Z 0040c2f0 f   toolbar_manager.obj
 0001:0000b2f0       ?SetUIEvent@CSDKRestAPIUserWorkFlow@@QAEXPAVCSDKRestAPIUserUIEvent@@@Z 0040c2f0 f   LOGIN_restapi_without_login_workflow.obj
 0001:0000b2f0       ?SetUIEvent@CSDKJoinMeetingForLoginUserFlow@@QAEXPAVCSDKJoinMeetingForLoginUserFlowUIEvent@@@Z 0040c2f0 f   Join_meeting_for_login_user_workflow.obj
 0001:0000b2f0       ?SetSDKMeetingService@CCustomizeInMeetingUIMgr@@UAEXPAVIMeetingService@ZOOMSDK@@@Z 0040c2f0 f   custom_ui_mgr.obj
 0001:0000b2f0       ?SetUIEvent@CAuthSDKWorkFlow@@QAEXPAVCAuthSDKWorkFlowUIEvent@@@Z 0040c2f0 f   init_auth_sdk_workflow.obj
 0001:0000b2f0       ?SetUIEvent@CInitSDKWorkFlow@@QAEXPAVCInitSDKWorkFlowUIEvent@@@Z 0040c2f0 f   init_auth_sdk_workflow.obj
 0001:0000b2f0       ?SetFeatureCustomCurrentPage@CSDKFeatureCustomSettingsUIGroup@@QAEXPAVCVerticalLayoutUI@DuiLib@@@Z 0040c2f0 f   settings_ui.obj
 0001:0000b2f0       ?SetUIEvent@CToolbarBottomWorkFlow@@QAEXPAVCToolbarBottomWorkFlowUIEvent@@@Z 0040c2f0 f   toolbar_bottom_workflow.obj
 0001:0000b2f0       ?SetUICustomCurrentPage@CSDKUICustomSettingsUIGroup@@QAEXPAVCVerticalLayoutUI@DuiLib@@@Z 0040c2f0 f   settings_ui.obj
 0001:0000b310       ?ShowHideCameraControlWindow@CCustomizeInMeetingUIMgr@@QAEXXZ 0040c310 f   custom_ui_mgr.obj
 0001:0000b3c0       ?ShowHideChatWindow@CCustomizeInMeetingUIMgr@@QAEXXZ 0040c3c0 f   custom_ui_mgr.obj
 0001:0000b490       ?ShowHideGalleryViewWindow@CCustomizeInMeetingUIMgr@@QAEXXZ 0040c490 f   custom_ui_mgr.obj
 0001:0000b5e0       ?ShowHideMoreMenuWindow@CCustomizeInMeetingUIMgr@@QAEXHH@Z 0040c5e0 f   custom_ui_mgr.obj
 0001:0000b700       ?ShowHideParticipantWindow@CCustomizeInMeetingUIMgr@@QAEXXZ 0040c700 f   custom_ui_mgr.obj
 0001:0000b7a0       ?ShowPreview@CCustomizeInMeetingUIMgr@@AAEXXZ 0040c7a0 f   custom_ui_mgr.obj
 0001:0000b810       ?ShowShareWindow@CCustomizeInMeetingUIMgr@@QAEXXZ 0040c810 f   custom_ui_mgr.obj
 0001:0000b840       ?ShowToolbar@CCustomizeInMeetingUIMgr@@AAEXXZ 0040c840 f   custom_ui_mgr.obj
 0001:0000b900       ?Start@CCustomizeInMeetingUIMgr@@AAEXXZ 0040c900 f   custom_ui_mgr.obj
 0001:0000ba60       ?Stop@CCustomizeInMeetingUIMgr@@AAEXXZ 0040ca60 f   custom_ui_mgr.obj
 0001:0000bb20       ?UninitUserList@CCustomizeInMeetingUIMgr@@AAEXXZ 0040cb20 f   custom_ui_mgr.obj
 0001:0000bb90       ?UpdateMeetingTitle@CCustomizeInMeetingUIMgr@@AAEX_N@Z 0040cb90 f   custom_ui_mgr.obj
 0001:0000bcc0       ?UpdateParticipantsWindow@CCustomizeInMeetingUIMgr@@QAEXXZ 0040ccc0 f   custom_ui_mgr.obj
 0001:0000bcf0       ?UpdateShareButtonStatus@CCustomizeInMeetingUIMgr@@QAEXXZ 0040ccf0 f   custom_ui_mgr.obj
 0001:0000bd50       ?UpdateToolbarButtons@CCustomizeInMeetingUIMgr@@QAEXXZ 0040cd50 f   custom_ui_mgr.obj
 0001:0000be20       ?UpdateUserList@CCustomizeInMeetingUIMgr@@AAEXXZ 0040ce20 f   custom_ui_mgr.obj
 0001:0000bef0       ?adjust_wnd_pos@ICutomizedUIOwnWndInterface@@IAEXHHPAUHWND__@@@Z 0040cef0 f i custom_ui_mgr.obj
 0001:0000bfc0       ?create_owner_hwnd@ICutomizedUIOwnWndInterface@@IAEPAUHWND__@@PAV1@HH@Z 0040cfc0 f i custom_ui_mgr.obj
 0001:0000c0c0       ?destroy_owner_wnd@ICutomizedUIOwnWndInterface@@IAEXXZ 0040d0c0 f i custom_ui_mgr.obj
 0001:0000c100       ?my_wnd_proc@ICutomizedUIOwnWndInterface@@KGJPAUHWND__@@IIJ@Z 0040d100 f i custom_ui_mgr.obj
 0001:0000c210       ?onDestroyed@CCustomizeInMeetingUIMgr@@UAEXXZ 0040d210 f   custom_ui_mgr.obj
 0001:0000c290       ?onLayoutNotification@CCustomizeInMeetingUIMgr@@UAEXUtagRECT@@@Z 0040d290 f   custom_ui_mgr.obj
 0001:0000c2b0       ?onMeetingStatusChanged@CCustomizeInMeetingUIMgr@@UAEXW4MeetingStatus@ZOOMSDK@@H@Z 0040d2b0 f   custom_ui_mgr.obj
 0001:0000c360       ?onMove@CCustomizeInMeetingUIMgr@@UAEXXZ 0040d360 f   custom_ui_mgr.obj
 0001:0000c3b0       ?onRemoteControlStatus@CCustomizeInMeetingUIMgr@@UAEXW4RemoteControlStatus@ZOOMSDK@@I@Z 0040d3b0 f   custom_ui_mgr.obj
 0001:0000c3e0       ?OnMicSpkVolumnChanged@CSDKCustomUIWorkFlow@@UAEXII@Z 0040d3e0 f   custom_ui_mgr_flow.obj
 0001:0000c3e0       ?_Orphan_range@?$vector@PAVIUserInfo@ZOOMSDK@@V?$allocator@PAVIUserInfo@ZOOMSDK@@@std@@@std@@ABEXPAPAVIUserInfo@ZOOMSDK@@0@Z 0040d3e0 f   user_manager.obj
 0001:0000c3e0       ?onLoginRet@CAuthSDKWorkFlow@@UAEXW4LOGINSTATUS@ZOOMSDK@@PAVIAccountInfo@3@@Z 0040d3e0 f   init_auth_sdk_workflow.obj
 0001:0000c3e0       ?onDefaultMicDeviceChanged@CSDKAudioSettingsWorkFlow@@UAEXPB_W0@Z 0040d3e0 f   SETTINGS_audio_workflow.obj
 0001:0000c3e0       ?onChatMsgNotifcation@CSDKCustomUIWorkFlow@@UAEXPAVIChatMsgInfo@ZOOMSDK@@PB_W@Z 0040d3e0 f   custom_ui_mgr_flow.obj
 0001:0000c3e0       ?_Orphan_range@?$vector@PAVIInterpreterInfo@ZOOMSDK@@V?$allocator@PAVIInterpreterInfo@ZOOMSDK@@@std@@@std@@ABEXPAPAVIInterpreterInfo@ZOOMSDK@@0@Z 0040d3e0 f   schedule_meeting_ui.obj
 0001:0000c3e0       ?_Orphan_range@?$vector@PAVIVirtualBGImageInfo@ZOOMSDK@@V?$allocator@PAVIVirtualBGImageInfo@ZOOMSDK@@@std@@@std@@ABEXPAPAVIVirtualBGImageInfo@ZOOMSDK@@0@Z 0040d3e0 f   settings_ui.obj
 0001:0000c3e0       ?onSpotlightVideoChangeNotification@CUtilWnd@@UAEX_NI@Z 0040d3e0 f   util_window.obj
 0001:0000c3e0       ?onLoginRet@CSDKWithoutLoginStartJoinMeetingFlow@@UAEXW4LOGINSTATUS@ZOOMSDK@@PAVIAccountInfo@3@@Z 0040d3e0 f   LOGIN_join_meeting_only_workflow.obj
 0001:0000c3e0       ?onDefaultSpeakerDeviceChanged@CSDKAudioSettingsUIGroup@@UAEXPB_W0@Z 0040d3e0 f   settings_ui.obj
 0001:0000c3e0       ?onSpotlightVideoChangeNotification@CSDKCustomUIWorkFlow@@UAEX_NI@Z 0040d3e0 f   custom_ui_mgr_flow.obj
 0001:0000c3e0       ?_Orphan_range@?$vector@PAVIAlternativeHostInfo@ZOOMSDK@@V?$allocator@PAVIAlternativeHostInfo@ZOOMSDK@@@std@@@std@@ABEXPAPAVIAlternativeHostInfo@ZOOMSDK@@0@Z 0040d3e0 f   schedule_meeting_ui.obj
 0001:0000c3e0       ?onLowOrRaiseHandStatusChanged@CSDKCustomUIWorkFlow@@UAEX_NI@Z 0040d3e0 f   custom_ui_mgr_flow.obj
 0001:0000c3e0       ?onDefaultMicDeviceChanged@CSDKAudioSettingsUIGroup@@UAEXPB_W0@Z 0040d3e0 f   settings_ui.obj
 0001:0000c3e0       ?onAudioBtnClicked@CSDKCustomUIWorkFlow@@UAEXUtagAudioBtnClickedCallbackInfo@ZOOMSDK@@@Z 0040d3e0 f   custom_ui_mgr_flow.obj
 0001:0000c3e0       ?onUserLeft@CMoreFeaturesUIMgr@@UAEXPAV?$IList@I@ZOOMSDK@@PB_W@Z 0040d3e0 f   more_features_ui.obj
 0001:0000c3e0       ?_Orphan_range@?$vector@V?$basic_string@_WU?$char_traits@_W@std@@V?$allocator@_W@2@@std@@V?$allocator@V?$basic_string@_WU?$char_traits@_W@std@@V?$allocator@_W@2@@std@@@2@@std@@ABEXPAV?$basic_string@_WU?$char_traits@_W@std@@V?$allocator@_W@2@@2@0@Z 0040d3e0 f   custom_ui_share_flow.obj
 0001:0000c3e0       ?onRenderDataTypeChanged@CCustomizeInMeetingUIMgr@@UAEXPAVIVideoRenderElement@ZOOMSDK@@W4VideoRenderDataType@3@@Z 0040d3e0 f   custom_ui_mgr.obj
 0001:0000c3e0       ?onDefaultCamDeviceChanged@CSDKVideoSettingsUIGroup@@UAEXPB_W0@Z 0040d3e0 f   settings_ui.obj
 0001:0000c3e0       ?onDefaultSpeakerDeviceChanged@CSDKAudioSettingsWorkFlow@@UAEXPB_W0@Z 0040d3e0 f   SETTINGS_audio_workflow.obj
 0001:0000c3e0       ?OnDirectShareStatusUpdate@CSDKLoggedInUIMgr@@UAEXW4DirectShareStatusStatus_Enum@ZOOMSDK@@PAVIDirectShareViaMeetingIDOrPairingCodeHandler@3@@Z 0040d3e0 f   LoggedIn_sdk_controller_ui.obj
 0001:0000c3e0       ?OnTestMicStatusChanged@CSDKCustomUIWorkFlow@@UAEXW4SDK_TESTMIC_STATUS@ZOOMSDK@@AA_N@Z 0040d3e0 f   custom_ui_mgr_flow.obj
 0001:0000c3e0       ?onRenderUserChanged@CCustomizeInMeetingUIMgr@@UAEXPAVIVideoRenderElement@ZOOMSDK@@I@Z 0040d3e0 f   custom_ui_mgr.obj
 0001:0000c3e0       ?onDefaultCamDeviceChanged@CSDKVideoSettingsWorkFlow@@UAEXPB_W0@Z 0040d3e0 f   SETTINGS_video_workflow.obj
 0001:0000c3e0       ?onCoHostChangeNotification@CSDKCustomUIWorkFlow@@UAEXI_N@Z 0040d3e0 f   custom_ui_mgr_flow.obj
 0001:0000c3e0       ?onUserJoin@CMoreFeaturesUIMgr@@UAEXPAV?$IList@I@ZOOMSDK@@PB_W@Z 0040d3e0 f   more_features_ui.obj
 0001:0000c3f0       ?onShareRenderDestroyed@CCustomizeInMeetingUIMgr@@UAEXPAVICustomizedShareRender@ZOOMSDK@@@Z 0040d3f0 f   custom_ui_mgr.obj
 0001:0000c420       ?onShareRenderWindowMsgNotification@CCustomizeInMeetingUIMgr@@UAEXIIJ@Z 0040d420 f   custom_ui_mgr.obj
 0001:0000c420       ?onVideoContainerWindowMsgNotification@CCustomizeInMeetingUIMgr@@UAEXIIJ@Z 0040d420 f   custom_ui_mgr.obj
 0001:0000c460       ?onSharingShareAnnotationStatusChanged@CCustomizeInMeetingUIMgr@@UAEXPAVICustomizedShareRender@ZOOMSDK@@W4CustomizedShareAnnotationStatus@3@@Z 0040d460 f   custom_ui_mgr.obj
 0001:0000c490       ?onSharingStatus@CCustomizeInMeetingUIMgr@@UAEXW4SharingStatus@ZOOMSDK@@I@Z 0040d490 f   custom_ui_mgr.obj
 0001:0000c4c0       ?onSize@CCustomizeInMeetingUIMgr@@UAEXAAUtagRECT@@@Z 0040d4c0 f   custom_ui_mgr.obj
 0001:0000c660       ?onUserAudioStatusChange@CCustomizeInMeetingUIMgr@@UAEXPAV?$IList@PAVIUserAudioStatus@ZOOMSDK@@@ZOOMSDK@@PB_W@Z 0040d660 f   custom_ui_mgr.obj
 0001:0000c6f0       ?onUserJoin@CCustomizeInMeetingUIMgr@@UAEXPAV?$IList@I@ZOOMSDK@@PB_W@Z 0040d6f0 f   custom_ui_mgr.obj
 0001:0000c840       ?onUserLeft@CCustomizeInMeetingUIMgr@@UAEXPAV?$IList@I@ZOOMSDK@@PB_W@Z 0040d840 f   custom_ui_mgr.obj
 0001:0000c940       ?onUserNameChanged@CCustomizeInMeetingUIMgr@@UAEXIPB_W@Z 0040d940 f   custom_ui_mgr.obj
 0001:0000c960       ?onUserVideoStatusChange@CCustomizeInMeetingUIMgr@@UAEXIW4VideoStatus@ZOOMSDK@@@Z 0040d960 f   custom_ui_mgr.obj
 0001:0000c9f0       ?onVideoContainerDestroyed@CCustomizeInMeetingUIMgr@@UAEXPAVICustomizedVideoContainer@ZOOMSDK@@@Z 0040d9f0 f   custom_ui_mgr.obj
 0001:0000ca20       ?onVideoRenderElementDestroyed@CCustomizeInMeetingUIMgr@@UAEXPAVIVideoRenderElement@ZOOMSDK@@@Z 0040da20 f   custom_ui_mgr.obj
 0001:0000ca50       ?onWindowMsgNotification@CCustomizeInMeetingUIMgr@@UAEXIIJ@Z 0040da50 f i custom_ui_mgr.obj
 0001:0000ca7a       ?onWindowMsgNotification@CCustomizeInMeetingUIMgr@@W3AEXIIJ@Z 0040da7a f i custom_ui_mgr.obj
 0001:0000ca90       ?register_window_class@ICutomizedUIOwnWndInterface@@IAEHPAUHINSTANCE__@@@Z 0040da90 f i custom_ui_mgr.obj
 0001:0000cb40       ??0CSDKCustomUIWorkFlow@@QAE@XZ 0040db40 f   custom_ui_mgr_flow.obj
 0001:0000cc50       ??0ICustomizedAnnotationControllerEvent@ZOOMSDK@@QAE@XZ 0040dc50 f i custom_ui_mgr_flow.obj
 0001:0000cc70       ??0IMeetingAudioCtrlEvent@ZOOMSDK@@QAE@XZ 0040dc70 f i custom_ui_mgr_flow.obj
 0001:0000cc90       ??0IMeetingParticipantsCtrlEvent@ZOOMSDK@@QAE@XZ 0040dc90 f i custom_ui_mgr_flow.obj
 0001:0000ccb0       ??0IMeetingRemoteCtrlEvent@ZOOMSDK@@QAE@XZ 0040dcb0 f i custom_ui_mgr_flow.obj
 0001:0000ccd0       ??0IMeetingServiceEvent@ZOOMSDK@@QAE@XZ 0040dcd0 f i custom_ui_mgr_flow.obj
 0001:0000ccf0       ??0IMeetingShareCtrlEvent@ZOOMSDK@@QAE@XZ 0040dcf0 f i custom_ui_mgr_flow.obj
 0001:0000cd10       ??0IMeetingUIControllerEvent@ZOOMSDK@@QAE@XZ 0040dd10 f i custom_ui_mgr_flow.obj
 0001:0000cd30       ??0IMeetingVideoCtrlEvent@ZOOMSDK@@QAE@XZ 0040dd30 f i custom_ui_mgr_flow.obj
 0001:0000cd50       ??0ISDKInMeetingServiceMgrEvent@@QAE@XZ 0040dd50 f i custom_ui_mgr_flow.obj
 0001:0000ce70       ??0ITestAudioDeviceHelperEvent@ZOOMSDK@@QAE@XZ 0040de70 f i custom_ui_mgr_flow.obj
 0001:0000ce90       ??0ITestVideoDeviceHelperEvent@ZOOMSDK@@QAE@XZ 0040de90 f i custom_ui_mgr_flow.obj
 0001:0000ceb0       ??1CSDKCustomUIWorkFlow@@UAE@XZ 0040deb0 f   custom_ui_mgr_flow.obj
 0001:0000cf80       ??_GCSDKCustomUIWorkFlow@@UAEPAXI@Z 0040df80 f i custom_ui_mgr_flow.obj
 0001:0000cf80       ??_ECSDKCustomUIWorkFlow@@UAEPAXI@Z 0040df80 f i custom_ui_mgr_flow.obj
 0001:0000cfc0       ?GetMeetingID@CSDKCustomUIWorkFlow@@QAE_KXZ 0040dfc0 f   custom_ui_mgr_flow.obj
 0001:0000d010       ?GetServiceControls@CSDKCustomUIWorkFlow@@QAEXXZ 0040e010 f   custom_ui_mgr_flow.obj
 0001:0000d130       ?Init@CSDKCustomUIWorkFlow@@QAEXPAVISDKInMeetingServiceCustomUIEvent@@@Z 0040e130 f   custom_ui_mgr_flow.obj
 0001:0000d160       ?InitMeetingService@CSDKCustomUIWorkFlow@@QAEXXZ 0040e160 f   custom_ui_mgr_flow.obj
 0001:0000d2c0       ?IsAudioOn@CSDKCustomUIWorkFlow@@QAE_NXZ 0040e2c0 f   custom_ui_mgr_flow.obj
 0001:0000d330       ?IsInMeeting@@YA_NW4MeetingStatus@ZOOMSDK@@@Z 0040e330 f i custom_ui_mgr_flow.obj
 0001:0000d360       ?IsMeetingServiceReady@CSDKCustomUIWorkFlow@@QAE_NXZ 0040e360 f   custom_ui_mgr_flow.obj
 0001:0000d3a0       ?IsVideoOn@CSDKCustomUIWorkFlow@@QAE_NXZ 0040e3a0 f   custom_ui_mgr_flow.obj
 0001:0000d400       ?Uninit@CSDKCustomUIWorkFlow@@QAEXXZ 0040e400 f   custom_ui_mgr_flow.obj
 0001:0000d4b0       ?onMeetingSecureKeyNotification@CSDKLoggedInUIMgr@@UAEXPBDHPAVIMeetingExternalSecureKeyHandler@ZOOMSDK@@@Z 0040e4b0 f i LoggedIn_sdk_controller_ui.obj
 0001:0000d4b0       ?onMeetingSecureKeyNotification@CSDKJoinMeetingForLoginUserUIGroup@@UAEXPBDHPAVIMeetingExternalSecureKeyHandler@ZOOMSDK@@@Z 0040e4b0 f i Join_meeting_for_login_user_ui.obj
 0001:0000d4b0       ?onMeetingSecureKeyNotification@CSDKWithoutLoginStartJoinMeetingFlow@@UAEXPBDHPAVIMeetingExternalSecureKeyHandler@ZOOMSDK@@@Z 0040e4b0 f i LOGIN_join_meeting_only_workflow.obj
 0001:0000d4b0       ?onMeetingSecureKeyNotification@CSDKCustomUIWorkFlow@@UAEXPBDHPAVIMeetingExternalSecureKeyHandler@ZOOMSDK@@@Z 0040e4b0 f i custom_ui_mgr_flow.obj
 0001:0000d4b0       ?onMeetingSecureKeyNotification@CSDKJoinMeetingForLoginUserFlow@@UAEXPBDHPAVIMeetingExternalSecureKeyHandler@ZOOMSDK@@@Z 0040e4b0 f i Join_meeting_for_login_user_workflow.obj
 0001:0000d4b0       ?onClosedCaptionMsgReceived@CSDKCustomUIWorkFlow@@UAEXPB_W_J@Z 0040e4b0 f i custom_ui_mgr_flow.obj
 0001:0000d4b0       ?onMeetingSecureKeyNotification@CSDKWithoutLoginStartJoinMeetingUIGroup@@UAEXPBDHPAVIMeetingExternalSecureKeyHandler@ZOOMSDK@@@Z 0040e4b0 f i LOGIN_sdk_login_UI.obj
 0001:0000d4b0       ?onRecording2MP4Done@CSDKCustomUIWorkFlow@@UAEX_NHPB_W@Z 0040e4b0 f i custom_ui_mgr_flow.obj
 0001:0000d4b0       ?onMeetingSecureKeyNotification@CSDKRestAPIUserUIGroup@@UAEXPBDHPAVIMeetingExternalSecureKeyHandler@ZOOMSDK@@@Z 0040e4b0 f i LOGIN_sdk_login_UI.obj
 0001:0000d4c0       ?onCustomizedAnnotationObjDestroyed@CSDKCustomUIWorkFlow@@UAEXPAVICustomizedAnnotationObj@ZOOMSDK@@@Z 0040e4c0 f   custom_ui_mgr_flow.obj
 0001:0000d4f0       ?onCustomizedLocalRecordingSourceNotification@CSDKCustomUIWorkFlow@@UAEXPAVICustomizedLocalRecordingLayoutHelper@ZOOMSDK@@@Z 0040e4f0 f   custom_ui_mgr_flow.obj
 0001:0000d520       ?onMeetingStatusChanged@CSDKCustomUIWorkFlow@@UAEXW4MeetingStatus@ZOOMSDK@@H@Z 0040e520 f   custom_ui_mgr_flow.obj
 0001:0000d560       ?onRemoteControlStatus@CSDKCustomUIWorkFlow@@UAEXW4RemoteControlStatus@ZOOMSDK@@I@Z 0040e560 f   custom_ui_mgr_flow.obj
 0001:0000d5a0       ?onSharingShareAnnotationStatusChanged@CSDKCustomUIWorkFlow@@UAEXPAVICustomizedShareRender@ZOOMSDK@@W4CustomizedShareAnnotationStatus@3@@Z 0040e5a0 f   custom_ui_mgr_flow.obj
 0001:0000d5e0       ?onSharingStatus@CSDKCustomUIWorkFlow@@UAEXW4SharingStatus@ZOOMSDK@@I@Z 0040e5e0 f   custom_ui_mgr_flow.obj
 0001:0000d620       ?onUserAudioStatusChange@CSDKCustomUIWorkFlow@@UAEXPAV?$IList@PAVIUserAudioStatus@ZOOMSDK@@@ZOOMSDK@@PB_W@Z 0040e620 f   custom_ui_mgr_flow.obj
 0001:0000d660       ?onUserJoin@CSDKCustomUIWorkFlow@@UAEXPAV?$IList@I@ZOOMSDK@@PB_W@Z 0040e660 f   custom_ui_mgr_flow.obj
 0001:0000d6a0       ?onUserLeft@CSDKCustomUIWorkFlow@@UAEXPAV?$IList@I@ZOOMSDK@@PB_W@Z 0040e6a0 f   custom_ui_mgr_flow.obj
 0001:0000d6e0       ?onUserNameChanged@CSDKCustomUIWorkFlow@@UAEXIPB_W@Z 0040e6e0 f   custom_ui_mgr_flow.obj
 0001:0000d720       ?onUserVideoStatusChange@CSDKCustomUIWorkFlow@@UAEXIW4VideoStatus@ZOOMSDK@@@Z 0040e720 f   custom_ui_mgr_flow.obj
 0001:0000d760       ??$?0$$V@?$_Compressed_pair@V?$allocator@V?$basic_string@_WU?$char_traits@_W@std@@V?$allocator@_W@2@@std@@@std@@V?$_Vector_val@U?$_Simple_types@V?$basic_string@_WU?$char_traits@_W@std@@V?$allocator@_W@2@@std@@@std@@@2@$00@std@@QAE@U_Zero_then_variadic_args_t@1@@Z 0040e760 f i custom_ui_share_flow.obj
 0001:0000d760       ??$?0$$V@?$_Compressed_pair@V?$allocator@PAVIVirtualBGImageInfo@ZOOMSDK@@@std@@V?$_Vector_val@U?$_Simple_types@PAVIVirtualBGImageInfo@ZOOMSDK@@@std@@@2@$00@std@@QAE@U_Zero_then_variadic_args_t@1@@Z 0040e760 f i settings_ui.obj
 0001:0000d760       ??$?0$$V@?$_Compressed_pair@V?$allocator@PAVIInterpreterInfo@ZOOMSDK@@@std@@V?$_Vector_val@U?$_Simple_types@PAVIInterpreterInfo@ZOOMSDK@@@std@@@2@$00@std@@QAE@U_Zero_then_variadic_args_t@1@@Z 0040e760 f i schedule_meeting_ui.obj
 0001:0000d760       ??$?0$$V@?$_Compressed_pair@V?$allocator@PAVIAlternativeHostInfo@ZOOMSDK@@@std@@V?$_Vector_val@U?$_Simple_types@PAVIAlternativeHostInfo@ZOOMSDK@@@std@@@2@$00@std@@QAE@U_Zero_then_variadic_args_t@1@@Z 0040e760 f i schedule_meeting_ui.obj
 0001:0000d760       ??$?0$$V@?$_Compressed_pair@V?$allocator@PAVIUserInfo@ZOOMSDK@@@std@@V?$_Vector_val@U?$_Simple_types@PAVIUserInfo@ZOOMSDK@@@std@@@2@$00@std@@QAE@U_Zero_then_variadic_args_t@1@@Z 0040e760 f i user_manager.obj
 0001:0000d780       ??0?$tuple@$$V@std@@QAE@ABV01@@Z 0040e780 f i user_manager.obj
 0001:0000d780       ??$?0U?$integral_constant@_N$00@std@@@_Unused_parameter@std@@QAE@$$QAU?$integral_constant@_N$00@1@@Z 0040e780 f i custom_ui_share_flow.obj
 0001:0000d780       ??$?0U_Exact_args_t@std@@$0A@@?$tuple@$$V@std@@QAE@U_Exact_args_t@1@@Z 0040e780 f i user_manager.obj
 0001:0000d790       ??$_Destroy_range1@V?$allocator@V?$basic_string@_WU?$char_traits@_W@std@@V?$allocator@_W@2@@std@@@std@@@std@@YAXPAV?$basic_string@_WU?$char_traits@_W@std@@V?$allocator@_W@2@@0@0AAV?$allocator@V?$basic_string@_WU?$char_traits@_W@std@@V?$allocator@_W@2@@std@@@0@U?$integral_constant@_N$0A@@0@@Z 0040e790 f i custom_ui_share_flow.obj
 0001:0000d7d0       ??$_Destroy_range@V?$allocator@V?$basic_string@_WU?$char_traits@_W@std@@V?$allocator@_W@2@@std@@@std@@@std@@YAXPAV?$basic_string@_WU?$char_traits@_W@std@@V?$allocator@_W@2@@0@0AAV?$allocator@V?$basic_string@_WU?$char_traits@_W@std@@V?$allocator@_W@2@@std@@@0@@Z 0040e7d0 f i custom_ui_share_flow.obj
 0001:0000d800       ??$_Emplace_back@V?$basic_string@_WU?$char_traits@_W@std@@V?$allocator@_W@2@@std@@@?$_Uninitialized_backout_al@PAV?$basic_string@_WU?$char_traits@_W@std@@V?$allocator@_W@2@@std@@V?$allocator@V?$basic_string@_WU?$char_traits@_W@std@@V?$allocator@_W@2@@std@@@2@@std@@QAEX$$QAV?$basic_string@_WU?$char_traits@_W@std@@V?$allocator@_W@2@@1@@Z 0040e800 f i custom_ui_share_flow.obj
 0001:0000d850       ??$_Emplace_back_with_unused_capacity@V?$basic_string@_WU?$char_traits@_W@std@@V?$allocator@_W@2@@std@@@?$vector@V?$basic_string@_WU?$char_traits@_W@std@@V?$allocator@_W@2@@std@@V?$allocator@V?$basic_string@_WU?$char_traits@_W@std@@V?$allocator@_W@2@@std@@@2@@std@@AAEX$$QAV?$basic_string@_WU?$char_traits@_W@std@@V?$allocator@_W@2@@1@@Z 0040e850 f i custom_ui_share_flow.obj
 0001:0000d8e0       ??$_Emplace_reallocate@V?$basic_string@_WU?$char_traits@_W@std@@V?$allocator@_W@2@@std@@@?$vector@V?$basic_string@_WU?$char_traits@_W@std@@V?$allocator@_W@2@@std@@V?$allocator@V?$basic_string@_WU?$char_traits@_W@std@@V?$allocator@_W@2@@std@@@2@@std@@QAEPAV?$basic_string@_WU?$char_traits@_W@std@@V?$allocator@_W@2@@1@QAV21@$$QAV21@@Z 0040e8e0 f i custom_ui_share_flow.obj
 0001:0000dac0       ??$_Get_size_of_n@$0BI@@std@@YAII@Z 0040eac0 f i custom_ui_share_flow.obj
 0001:0000daf0       ??$_Idl_distance1@PAV?$basic_string@_WU?$char_traits@_W@std@@V?$allocator@_W@2@@std@@PAV12@@std@@YAHABQAV?$basic_string@_WU?$char_traits@_W@std@@V?$allocator@_W@2@@0@0Urandom_access_iterator_tag@0@@Z 0040eaf0 f i custom_ui_share_flow.obj
 0001:0000db10       ??$_Idl_distance@PAV?$basic_string@_WU?$char_traits@_W@std@@V?$allocator@_W@2@@std@@PAV12@@std@@YAHABQAV?$basic_string@_WU?$char_traits@_W@std@@V?$allocator@_W@2@@0@0@Z 0040eb10 f i custom_ui_share_flow.obj
 0001:0000db30       ??$_Pocca@V?$allocator@_W@std@@@std@@YAXAAV?$allocator@_W@0@ABV10@@Z 0040eb30 f i custom_ui_share_flow.obj
 0001:0000db50       ??$_Ptr_move_cat@V?$basic_string@_WU?$char_traits@_W@std@@V?$allocator@_W@2@@std@@V12@@std@@YA?AU_General_ptr_iterator_tag@0@ABQAV?$basic_string@_WU?$char_traits@_W@std@@V?$allocator@_W@2@@0@0@Z 0040eb50 f i custom_ui_share_flow.obj
 0001:0000db60       ??$_Seek_wrapped@V?$basic_string@_WU?$char_traits@_W@std@@V?$allocator@_W@2@@std@@@std@@YAXAAPAV?$basic_string@_WU?$char_traits@_W@std@@V?$allocator@_W@2@@0@QAV10@@Z 0040eb60 f i custom_ui_share_flow.obj
 0001:0000db60       ??$_Seek_wrapped@PAVIVirtualBGImageInfo@ZOOMSDK@@@std@@YAXAAPAPAVIVirtualBGImageInfo@ZOOMSDK@@QAPAV12@@Z 0040eb60 f i settings_ui.obj
 0001:0000db60       ??$_Seek_wrapped@PAVIUserInfo@ZOOMSDK@@@std@@YAXAAPAPAVIUserInfo@ZOOMSDK@@QAPAV12@@Z 0040eb60 f i user_manager.obj
 0001:0000db60       ??$_Seek_wrapped@PAVIAlternativeHostInfo@ZOOMSDK@@@std@@YAXAAPAPAVIAlternativeHostInfo@ZOOMSDK@@QAPAV12@@Z 0040eb60 f i schedule_meeting_ui.obj
 0001:0000db60       ??$_Seek_wrapped@PAVIInterpreterInfo@ZOOMSDK@@@std@@YAXAAPAPAVIInterpreterInfo@ZOOMSDK@@QAPAV12@@Z 0040eb60 f i schedule_meeting_ui.obj
 0001:0000db70       ??$_Uninitialized_move@PAV?$basic_string@_WU?$char_traits@_W@std@@V?$allocator@_W@2@@std@@PAV12@V?$allocator@V?$basic_string@_WU?$char_traits@_W@std@@V?$allocator@_W@2@@std@@@2@@std@@YAPAV?$basic_string@_WU?$char_traits@_W@std@@V?$allocator@_W@2@@0@QAV10@0PAV10@AAV?$allocator@V?$basic_string@_WU?$char_traits@_W@std@@V?$allocator@_W@2@@std@@@0@@Z 0040eb70 f i custom_ui_share_flow.obj
 0001:0000dc10       ??$_Uninitialized_move_al_unchecked@PAV?$basic_string@_WU?$char_traits@_W@std@@V?$allocator@_W@2@@std@@PAV12@V?$allocator@V?$basic_string@_WU?$char_traits@_W@std@@V?$allocator@_W@2@@std@@@2@@std@@YAPAV?$basic_string@_WU?$char_traits@_W@std@@V?$allocator@_W@2@@0@PAV10@QAV10@1AAV?$allocator@V?$basic_string@_WU?$char_traits@_W@std@@V?$allocator@_W@2@@std@@@0@U_General_ptr_iterator_tag@0@U_Unused_parameter@0@@Z 0040ec10 f i custom_ui_share_flow.obj
 0001:0000dcb0       ??$construct@V?$basic_string@_WU?$char_traits@_W@std@@V?$allocator@_W@2@@std@@V12@@?$_Default_allocator_traits@V?$allocator@V?$basic_string@_WU?$char_traits@_W@std@@V?$allocator@_W@2@@std@@@std@@@std@@SAXAAV?$allocator@V?$basic_string@_WU?$char_traits@_W@std@@V?$allocator@_W@2@@std@@@1@QAV?$basic_string@_WU?$char_traits@_W@std@@V?$allocator@_W@2@@1@$$QAV31@@Z 0040ecb0 f i custom_ui_share_flow.obj
 0001:0000dce0       ??$destroy@V?$basic_string@_WU?$char_traits@_W@std@@V?$allocator@_W@2@@std@@@?$_Default_allocator_traits@V?$allocator@V?$basic_string@_WU?$char_traits@_W@std@@V?$allocator@_W@2@@std@@@std@@@std@@SAXAAV?$allocator@V?$basic_string@_WU?$char_traits@_W@std@@V?$allocator@_W@2@@std@@@1@QAV?$basic_string@_WU?$char_traits@_W@std@@V?$allocator@_W@2@@1@@Z 0040ece0 f i custom_ui_share_flow.obj
 0001:0000dcf0       ??$emplace_back@V?$basic_string@_WU?$char_traits@_W@std@@V?$allocator@_W@2@@std@@@?$vector@V?$basic_string@_WU?$char_traits@_W@std@@V?$allocator@_W@2@@std@@V?$allocator@V?$basic_string@_WU?$char_traits@_W@std@@V?$allocator@_W@2@@std@@@2@@std@@QAEX$$QAV?$basic_string@_WU?$char_traits@_W@std@@V?$allocator@_W@2@@1@@Z 0040ecf0 f i custom_ui_share_flow.obj
 0001:0000dd50       ??0?$_Uninitialized_backout_al@PAV?$basic_string@_WU?$char_traits@_W@std@@V?$allocator@_W@2@@std@@V?$allocator@V?$basic_string@_WU?$char_traits@_W@std@@V?$allocator@_W@2@@std@@@2@@std@@QAE@PAV?$basic_string@_WU?$char_traits@_W@std@@V?$allocator@_W@2@@1@AAV?$allocator@V?$basic_string@_WU?$char_traits@_W@std@@V?$allocator@_W@2@@std@@@1@@Z 0040ed50 f i custom_ui_share_flow.obj
 0001:0000dd80       ??0?$_Vector_alloc@U?$_Vec_base_types@PAVIInterpreterInfo@ZOOMSDK@@V?$allocator@PAVIInterpreterInfo@ZOOMSDK@@@std@@@std@@@std@@QAE@XZ 0040ed80 f i schedule_meeting_ui.obj
 0001:0000dd80       ??0?$_Vector_alloc@U?$_Vec_base_types@PAVIUserInfo@ZOOMSDK@@V?$allocator@PAVIUserInfo@ZOOMSDK@@@std@@@std@@@std@@QAE@XZ 0040ed80 f i user_manager.obj
 0001:0000dd80       ??0?$_Vector_alloc@U?$_Vec_base_types@PAVIAlternativeHostInfo@ZOOMSDK@@V?$allocator@PAVIAlternativeHostInfo@ZOOMSDK@@@std@@@std@@@std@@QAE@XZ 0040ed80 f i schedule_meeting_ui.obj
 0001:0000dd80       ??0?$_Vector_alloc@U?$_Vec_base_types@PAVIVirtualBGImageInfo@ZOOMSDK@@V?$allocator@PAVIVirtualBGImageInfo@ZOOMSDK@@@std@@@std@@@std@@QAE@XZ 0040ed80 f i settings_ui.obj
 0001:0000dd80       ??0?$_Vector_alloc@U?$_Vec_base_types@V?$basic_string@_WU?$char_traits@_W@std@@V?$allocator@_W@2@@std@@V?$allocator@V?$basic_string@_WU?$char_traits@_W@std@@V?$allocator@_W@2@@std@@@2@@std@@@std@@QAE@XZ 0040ed80 f i custom_ui_share_flow.obj
 0001:0000dda0       ??0?$_Vector_val@U?$_Simple_types@PAVIAlternativeHostInfo@ZOOMSDK@@@std@@@std@@QAE@XZ 0040eda0 f i schedule_meeting_ui.obj
 0001:0000dda0       ??0?$_Vector_val@U?$_Simple_types@PAVIUserInfo@ZOOMSDK@@@std@@@std@@QAE@XZ 0040eda0 f i user_manager.obj
 0001:0000dda0       ??0?$_Vector_val@U?$_Simple_types@PAVIInterpreterInfo@ZOOMSDK@@@std@@@std@@QAE@XZ 0040eda0 f i schedule_meeting_ui.obj
 0001:0000dda0       ??0tagCustomizedLanguageInfo@ZOOMSDK@@QAE@XZ 0040eda0 f i sdk_init_auth_ui.obj
 0001:0000dda0       ??0?$_Vector_val@U?$_Simple_types@V?$basic_string@_WU?$char_traits@_W@std@@V?$allocator@_W@2@@std@@@std@@@std@@QAE@XZ 0040eda0 f i custom_ui_share_flow.obj
 0001:0000dda0       ??0?$_Vector_val@U?$_Simple_types@PAVIVirtualBGImageInfo@ZOOMSDK@@@std@@@std@@QAE@XZ 0040eda0 f i settings_ui.obj
 0001:0000ddd0       ??0?$vector@PAVIUserInfo@ZOOMSDK@@V?$allocator@PAVIUserInfo@ZOOMSDK@@@std@@@std@@QAE@XZ 0040edd0 f i user_manager.obj
 0001:0000ddd0       ??0?$vector@PAVIAlternativeHostInfo@ZOOMSDK@@V?$allocator@PAVIAlternativeHostInfo@ZOOMSDK@@@std@@@std@@QAE@XZ 0040edd0 f i schedule_meeting_ui.obj
 0001:0000ddd0       ??0?$vector@PAVIVirtualBGImageInfo@ZOOMSDK@@V?$allocator@PAVIVirtualBGImageInfo@ZOOMSDK@@@std@@@std@@QAE@XZ 0040edd0 f i settings_ui.obj
 0001:0000ddd0       ??0?$vector@PAVIInterpreterInfo@ZOOMSDK@@V?$allocator@PAVIInterpreterInfo@ZOOMSDK@@@std@@@std@@QAE@XZ 0040edd0 f i schedule_meeting_ui.obj
 0001:0000ddd0       ??0?$vector@V?$basic_string@_WU?$char_traits@_W@std@@V?$allocator@_W@2@@std@@V?$allocator@V?$basic_string@_WU?$char_traits@_W@std@@V?$allocator@_W@2@@std@@@2@@std@@QAE@XZ 0040edd0 f i custom_ui_share_flow.obj
 0001:0000de10       ??0?$_Tree_val@U?$_Tree_simple_types@PAVIMeetingServiceEvent@ZOOMSDK@@@std@@@std@@QAE@XZ 0040ee10 f   sdk_util.obj
 0001:0000de10       ??0?$_Tree_val@U?$_Tree_simple_types@PAVIClosedCaptionControllerEvent@ZOOMSDK@@@std@@@std@@QAE@XZ 0040ee10 f   sdk_util.obj
 0001:0000de10       ??0?$_Tree_val@U?$_Tree_simple_types@PAVIPreMeetingServiceEvent@ZOOMSDK@@@std@@@std@@QAE@XZ 0040ee10 f   sdk_util.obj
 0001:0000de10       ??0?$_Tree_val@U?$_Tree_simple_types@PAVISDKInMeetingServiceMgrEvent@@@std@@@std@@QAE@XZ 0040ee10 f   sdk_util.obj
 0001:0000de10       ??0?$_Tree_val@U?$_Tree_simple_types@PAVIMeetingVideoCtrlEvent@ZOOMSDK@@@std@@@std@@QAE@XZ 0040ee10 f   sdk_util.obj
 0001:0000de10       ??0?$_List_val@U?$_List_simple_types@H@std@@@std@@QAE@XZ 0040ee10 f   participant_ui.obj
 0001:0000de10       ??0CCustomizeUIShareFlow@@QAE@XZ 0040ee10 f   custom_ui_share_flow.obj
 0001:0000de10       ??0?$_Tree_val@U?$_Tree_simple_types@U?$pair@$$CBIPAVIUserInfo@ZOOMSDK@@@std@@@std@@@std@@QAE@XZ 0040ee10 f   user_manager.obj
 0001:0000de10       ??0tagAuthParam@ZOOMSDK@@QAE@XZ 0040ee10 f   sdk_init_auth_ui.obj
 0001:0000de10       ??0?$_Tree_val@U?$_Tree_simple_types@PAVIMeetingParticipantsCtrlEvent@ZOOMSDK@@@std@@@std@@QAE@XZ 0040ee10 f   sdk_util.obj
 0001:0000de10       ??0?$_Tree_val@U?$_Tree_simple_types@PAVIMeetingChatCtrlEvent@ZOOMSDK@@@std@@@std@@QAE@XZ 0040ee10 f   sdk_util.obj
 0001:0000de10       ??0?$_Tree_val@U?$_Tree_simple_types@PAVIAuthServiceEvent@ZOOMSDK@@@std@@@std@@QAE@XZ 0040ee10 f   sdk_util.obj
 0001:0000de40       ??1?$_Uninitialized_backout_al@PAV?$basic_string@_WU?$char_traits@_W@std@@V?$allocator@_W@2@@std@@V?$allocator@V?$basic_string@_WU?$char_traits@_W@std@@V?$allocator@_W@2@@std@@@2@@std@@QAE@XZ 0040ee40 f i custom_ui_share_flow.obj
 0001:0000dea0       ??1?$vector@V?$basic_string@_WU?$char_traits@_W@std@@V?$allocator@_W@2@@std@@V?$allocator@V?$basic_string@_WU?$char_traits@_W@std@@V?$allocator@_W@2@@std@@@2@@std@@QAE@XZ 0040eea0 f i custom_ui_share_flow.obj
 0001:0000dee0       ??4?$basic_string@_WU?$char_traits@_W@std@@V?$allocator@_W@2@@std@@QAEAAV01@ABV01@@Z 0040eee0 f i custom_ui_share_flow.obj
 0001:0000df50       ??A?$vector@V?$basic_string@_WU?$char_traits@_W@std@@V?$allocator@_W@2@@std@@V?$allocator@V?$basic_string@_WU?$char_traits@_W@std@@V?$allocator@_W@2@@std@@@2@@std@@QAEAAV?$basic_string@_WU?$char_traits@_W@std@@V?$allocator@_W@2@@1@I@Z 0040ef50 f i custom_ui_share_flow.obj
 0001:0000df70       ??_G?$basic_string@_WU?$char_traits@_W@std@@V?$allocator@_W@2@@std@@QAEPAXI@Z 0040ef70 f i custom_ui_share_flow.obj
 0001:0000dfa0       ?GetMeetingShareController@CCustomizeUIShareFlow@@QAEPAVIMeetingShareController@ZOOMSDK@@XZ 0040efa0 f   custom_ui_share_flow.obj
 0001:0000dfe0       ?HandleWindowsMoveMsg@CCustomizeUIShareFlow@@QAE?AW4SDKError@ZOOMSDK@@XZ 0040efe0 f   custom_ui_share_flow.obj
 0001:0000e010       ?Hide@CCustomizeUIShareFlow@@QAE?AW4SDKError@ZOOMSDK@@XZ 0040f010 f   custom_ui_share_flow.obj
 0001:0000e040       ?IsMeetingServiceReady@CCustomizeUIShareFlow@@AAE_NXZ 0040f040 f   custom_ui_share_flow.obj
 0001:0000e080       ?MyInfoEnumProc@@YGHPAUHMONITOR__@@PAUHDC__@@PAUtagRECT@@J@Z 0040f080 f   custom_ui_share_flow.obj
 0001:0000e130       ?Resize@CCustomizeUIShareFlow@@QAE?AW4SDKError@ZOOMSDK@@UtagRECT@@@Z 0040f130 f   custom_ui_share_flow.obj
 0001:0000e180       ?SetEvent@CCustomizeUIShareFlow@@QAE?AW4SDKError@ZOOMSDK@@PAVICustomizedShareRenderEvent@3@@Z 0040f180 f   custom_ui_share_flow.obj
 0001:0000e1b0       ?SetVideoContainer@CCustomizeUIVideoFlow@@QAEXPAVICustomizedVideoContainer@ZOOMSDK@@@Z 0040f1b0 f   custom_ui_video_flow.obj
 0001:0000e1b0       ?SetShareRender@CCustomizeUIShareFlow@@QAEXPAVICustomizedShareRender@ZOOMSDK@@@Z 0040f1b0 f   custom_ui_share_flow.obj
 0001:0000e1d0       ?SetUserID@CCustomizeUIShareFlow@@QAE?AW4SDKError@ZOOMSDK@@I@Z 0040f1d0 f   custom_ui_share_flow.obj
 0001:0000e210       ?Show@CCustomizeUIShareFlow@@QAE?AW4SDKError@ZOOMSDK@@XZ 0040f210 f   custom_ui_share_flow.obj
 0001:0000e240       ?StartShare@CCustomizeUIShareFlow@@QAE?AW4SDKError@ZOOMSDK@@W4SDKShareType@@PAUHWND__@@@Z 0040f240 f   custom_ui_share_flow.obj
 0001:0000e460       ?StopShare@CCustomizeUIShareFlow@@QAE?AW4SDKError@ZOOMSDK@@XZ 0040f460 f   custom_ui_share_flow.obj
 0001:0000e500       ?_Calculate_growth@?$vector@V?$basic_string@_WU?$char_traits@_W@std@@V?$allocator@_W@2@@std@@V?$allocator@V?$basic_string@_WU?$char_traits@_W@std@@V?$allocator@_W@2@@std@@@2@@std@@ABEII@Z 0040f500 f i custom_ui_share_flow.obj
 0001:0000e550       ?_Change_array@?$vector@V?$basic_string@_WU?$char_traits@_W@std@@V?$allocator@_W@2@@std@@V?$allocator@V?$basic_string@_WU?$char_traits@_W@std@@V?$allocator@_W@2@@std@@@2@@std@@AAEXQAV?$basic_string@_WU?$char_traits@_W@std@@V?$allocator@_W@2@@2@II@Z 0040f550 f i custom_ui_share_flow.obj
 0001:0000e5f0       ?_Copy_alloc@?$_String_alloc@U?$_String_base_types@_WV?$allocator@_W@std@@@std@@@std@@QAEXABV?$allocator@_W@2@@Z 0040f5f0 f i custom_ui_share_flow.obj
 0001:0000e620       ?_Destroy@?$vector@V?$basic_string@_WU?$char_traits@_W@std@@V?$allocator@_W@2@@std@@V?$allocator@V?$basic_string@_WU?$char_traits@_W@std@@V?$allocator@_W@2@@std@@@2@@std@@AAEXPAV?$basic_string@_WU?$char_traits@_W@std@@V?$allocator@_W@2@@2@0@Z 0040f620 f i custom_ui_share_flow.obj
 0001:0000e650       ?_Has_unused_capacity@?$vector@PAVIInterpreterInfo@ZOOMSDK@@V?$allocator@PAVIInterpreterInfo@ZOOMSDK@@@std@@@std@@ABE_NXZ 0040f650 f i schedule_meeting_ui.obj
 0001:0000e650       ?_Has_unused_capacity@?$vector@V?$basic_string@_WU?$char_traits@_W@std@@V?$allocator@_W@2@@std@@V?$allocator@V?$basic_string@_WU?$char_traits@_W@std@@V?$allocator@_W@2@@std@@@2@@std@@ABE_NXZ 0040f650 f i custom_ui_share_flow.obj
 0001:0000e650       ?_Has_unused_capacity@?$vector@PAVIVirtualBGImageInfo@ZOOMSDK@@V?$allocator@PAVIVirtualBGImageInfo@ZOOMSDK@@@std@@@std@@ABE_NXZ 0040f650 f i settings_ui.obj
 0001:0000e650       ?_Has_unused_capacity@?$vector@PAVIAlternativeHostInfo@ZOOMSDK@@V?$allocator@PAVIAlternativeHostInfo@ZOOMSDK@@@std@@@std@@ABE_NXZ 0040f650 f i schedule_meeting_ui.obj
 0001:0000e650       ?_Has_unused_capacity@?$vector@PAVIUserInfo@ZOOMSDK@@V?$allocator@PAVIUserInfo@ZOOMSDK@@@std@@@std@@ABE_NXZ 0040f650 f i user_manager.obj
 0001:0000e690       ?_Myend@?$_Vector_alloc@U?$_Vec_base_types@PAVIUserInfo@ZOOMSDK@@V?$allocator@PAVIUserInfo@ZOOMSDK@@@std@@@std@@@std@@QAEAAPAPAVIUserInfo@ZOOMSDK@@XZ 0040f690 f i user_manager.obj
 0001:0000e690       ?_Myend@?$_Vector_alloc@U?$_Vec_base_types@V?$basic_string@_WU?$char_traits@_W@std@@V?$allocator@_W@2@@std@@V?$allocator@V?$basic_string@_WU?$char_traits@_W@std@@V?$allocator@_W@2@@std@@@2@@std@@@std@@QBEABQAV?$basic_string@_WU?$char_traits@_W@std@@V?$allocator@_W@2@@2@XZ 0040f690 f i custom_ui_share_flow.obj
 0001:0000e690       ?_Myend@?$_Vector_alloc@U?$_Vec_base_types@PAVIAlternativeHostInfo@ZOOMSDK@@V?$allocator@PAVIAlternativeHostInfo@ZOOMSDK@@@std@@@std@@@std@@QAEAAPAPAVIAlternativeHostInfo@ZOOMSDK@@XZ 0040f690 f i schedule_meeting_ui.obj
 0001:0000e690       ?_Myend@?$_Vector_alloc@U?$_Vec_base_types@PAVIVirtualBGImageInfo@ZOOMSDK@@V?$allocator@PAVIVirtualBGImageInfo@ZOOMSDK@@@std@@@std@@@std@@QAEAAPAPAVIVirtualBGImageInfo@ZOOMSDK@@XZ 0040f690 f i settings_ui.obj
 0001:0000e690       ?_Myend@?$_Vector_alloc@U?$_Vec_base_types@PAVIUserInfo@ZOOMSDK@@V?$allocator@PAVIUserInfo@ZOOMSDK@@@std@@@std@@@std@@QBEABQAPAVIUserInfo@ZOOMSDK@@XZ 0040f690 f i user_manager.obj
 0001:0000e690       ?_Myend@?$_Vector_alloc@U?$_Vec_base_types@V?$basic_string@_WU?$char_traits@_W@std@@V?$allocator@_W@2@@std@@V?$allocator@V?$basic_string@_WU?$char_traits@_W@std@@V?$allocator@_W@2@@std@@@2@@std@@@std@@QAEAAPAV?$basic_string@_WU?$char_traits@_W@std@@V?$allocator@_W@2@@2@XZ 0040f690 f i custom_ui_share_flow.obj
 0001:0000e690       ?_Myend@?$_Vector_alloc@U?$_Vec_base_types@PAVIVirtualBGImageInfo@ZOOMSDK@@V?$allocator@PAVIVirtualBGImageInfo@ZOOMSDK@@@std@@@std@@@std@@QBEABQAPAVIVirtualBGImageInfo@ZOOMSDK@@XZ 0040f690 f i settings_ui.obj
 0001:0000e690       ?_Myend@?$_Vector_alloc@U?$_Vec_base_types@PAVIAlternativeHostInfo@ZOOMSDK@@V?$allocator@PAVIAlternativeHostInfo@ZOOMSDK@@@std@@@std@@@std@@QBEABQAPAVIAlternativeHostInfo@ZOOMSDK@@XZ 0040f690 f i schedule_meeting_ui.obj
 0001:0000e690       ?_Myend@?$_Vector_alloc@U?$_Vec_base_types@PAVIInterpreterInfo@ZOOMSDK@@V?$allocator@PAVIInterpreterInfo@ZOOMSDK@@@std@@@std@@@std@@QBEABQAPAVIInterpreterInfo@ZOOMSDK@@XZ 0040f690 f i schedule_meeting_ui.obj
 0001:0000e690       ?_Myend@?$_Vector_alloc@U?$_Vec_base_types@PAVIInterpreterInfo@ZOOMSDK@@V?$allocator@PAVIInterpreterInfo@ZOOMSDK@@@std@@@std@@@std@@QAEAAPAPAVIInterpreterInfo@ZOOMSDK@@XZ 0040f690 f i schedule_meeting_ui.obj
 0001:0000e6b0       ?_Myfirst@?$_Vector_alloc@U?$_Vec_base_types@PAVIVirtualBGImageInfo@ZOOMSDK@@V?$allocator@PAVIVirtualBGImageInfo@ZOOMSDK@@@std@@@std@@@std@@QAEAAPAPAVIVirtualBGImageInfo@ZOOMSDK@@XZ 0040f6b0 f i settings_ui.obj
 0001:0000e6b0       ?_Myhead@?$_List_alloc@U?$_List_base_types@HV?$allocator@H@std@@@std@@@std@@QAEAAPAU?$_List_node@HPAX@2@XZ 0040f6b0 f i participant_ui.obj
 0001:0000e6b0       ?_Myfirst@?$_Vector_alloc@U?$_Vec_base_types@PAVIInterpreterInfo@ZOOMSDK@@V?$allocator@PAVIInterpreterInfo@ZOOMSDK@@@std@@@std@@@std@@QAEAAPAPAVIInterpreterInfo@ZOOMSDK@@XZ 0040f6b0 f i schedule_meeting_ui.obj
 0001:0000e6b0       ?_Myfirst@?$_Vector_alloc@U?$_Vec_base_types@PAVIAlternativeHostInfo@ZOOMSDK@@V?$allocator@PAVIAlternativeHostInfo@ZOOMSDK@@@std@@@std@@@std@@QAEAAPAPAVIAlternativeHostInfo@ZOOMSDK@@XZ 0040f6b0 f i schedule_meeting_ui.obj
 0001:0000e6b0       ?_Myfirst@?$_Vector_alloc@U?$_Vec_base_types@V?$basic_string@_WU?$char_traits@_W@std@@V?$allocator@_W@2@@std@@V?$allocator@V?$basic_string@_WU?$char_traits@_W@std@@V?$allocator@_W@2@@std@@@2@@std@@@std@@QBEABQAV?$basic_string@_WU?$char_traits@_W@std@@V?$allocator@_W@2@@2@XZ 0040f6b0 f i custom_ui_share_flow.obj
 0001:0000e6b0       ?_Myfirst@?$_Vector_alloc@U?$_Vec_base_types@PAVIVirtualBGImageInfo@ZOOMSDK@@V?$allocator@PAVIVirtualBGImageInfo@ZOOMSDK@@@std@@@std@@@std@@QBEABQAPAVIVirtualBGImageInfo@ZOOMSDK@@XZ 0040f6b0 f i settings_ui.obj
 0001:0000e6b0       ?_Myfirst@?$_Vector_alloc@U?$_Vec_base_types@PAVIInterpreterInfo@ZOOMSDK@@V?$allocator@PAVIInterpreterInfo@ZOOMSDK@@@std@@@std@@@std@@QBEABQAPAVIInterpreterInfo@ZOOMSDK@@XZ 0040f6b0 f i schedule_meeting_ui.obj
 0001:0000e6b0       ?_Myfirst@?$_Vector_alloc@U?$_Vec_base_types@V?$basic_string@_WU?$char_traits@_W@std@@V?$allocator@_W@2@@std@@V?$allocator@V?$basic_string@_WU?$char_traits@_W@std@@V?$allocator@_W@2@@std@@@2@@std@@@std@@QAEAAPAV?$basic_string@_WU?$char_traits@_W@std@@V?$allocator@_W@2@@2@XZ 0040f6b0 f i custom_ui_share_flow.obj
 0001:0000e6b0       ?_Myfirst@?$_Vector_alloc@U?$_Vec_base_types@PAVIAlternativeHostInfo@ZOOMSDK@@V?$allocator@PAVIAlternativeHostInfo@ZOOMSDK@@@std@@@std@@@std@@QBEABQAPAVIAlternativeHostInfo@ZOOMSDK@@XZ 0040f6b0 f i schedule_meeting_ui.obj
 0001:0000e6b0       ?_Myfirst@?$_Vector_alloc@U?$_Vec_base_types@PAVIUserInfo@ZOOMSDK@@V?$allocator@PAVIUserInfo@ZOOMSDK@@@std@@@std@@@std@@QAEAAPAPAVIUserInfo@ZOOMSDK@@XZ 0040f6b0 f i user_manager.obj
 0001:0000e6b0       ?_Myfirst@?$_Vector_alloc@U?$_Vec_base_types@PAVIUserInfo@ZOOMSDK@@V?$allocator@PAVIUserInfo@ZOOMSDK@@@std@@@std@@@std@@QBEABQAPAVIUserInfo@ZOOMSDK@@XZ 0040f6b0 f i user_manager.obj
 0001:0000e6d0       ?_Mylast@?$_Vector_alloc@U?$_Vec_base_types@PAVIVirtualBGImageInfo@ZOOMSDK@@V?$allocator@PAVIVirtualBGImageInfo@ZOOMSDK@@@std@@@std@@@std@@QAEAAPAPAVIVirtualBGImageInfo@ZOOMSDK@@XZ 0040f6d0 f i settings_ui.obj
 0001:0000e6d0       ?_Mylast@?$_Vector_alloc@U?$_Vec_base_types@PAVIInterpreterInfo@ZOOMSDK@@V?$allocator@PAVIInterpreterInfo@ZOOMSDK@@@std@@@std@@@std@@QAEAAPAPAVIInterpreterInfo@ZOOMSDK@@XZ 0040f6d0 f i schedule_meeting_ui.obj
 0001:0000e6d0       ?_Mylast@?$_Vector_alloc@U?$_Vec_base_types@PAVIVirtualBGImageInfo@ZOOMSDK@@V?$allocator@PAVIVirtualBGImageInfo@ZOOMSDK@@@std@@@std@@@std@@QBEABQAPAVIVirtualBGImageInfo@ZOOMSDK@@XZ 0040f6d0 f i settings_ui.obj
 0001:0000e6d0       ?_Mylast@?$_Vector_alloc@U?$_Vec_base_types@PAVIUserInfo@ZOOMSDK@@V?$allocator@PAVIUserInfo@ZOOMSDK@@@std@@@std@@@std@@QAEAAPAPAVIUserInfo@ZOOMSDK@@XZ 0040f6d0 f i user_manager.obj
 0001:0000e6d0       ?_Mylast@?$_Vector_alloc@U?$_Vec_base_types@PAVIInterpreterInfo@ZOOMSDK@@V?$allocator@PAVIInterpreterInfo@ZOOMSDK@@@std@@@std@@@std@@QBEABQAPAVIInterpreterInfo@ZOOMSDK@@XZ 0040f6d0 f i schedule_meeting_ui.obj
 0001:0000e6d0       ?_Mylast@?$_Vector_alloc@U?$_Vec_base_types@PAVIAlternativeHostInfo@ZOOMSDK@@V?$allocator@PAVIAlternativeHostInfo@ZOOMSDK@@@std@@@std@@@std@@QBEABQAPAVIAlternativeHostInfo@ZOOMSDK@@XZ 0040f6d0 f i schedule_meeting_ui.obj
 0001:0000e6d0       ?_Mysize@?$_List_alloc@U?$_List_base_types@HV?$allocator@H@std@@@std@@@std@@QBEABIXZ 0040f6d0 f i participant_ui.obj
 0001:0000e6d0       ?_Mylast@?$_Vector_alloc@U?$_Vec_base_types@PAVIAlternativeHostInfo@ZOOMSDK@@V?$allocator@PAVIAlternativeHostInfo@ZOOMSDK@@@std@@@std@@@std@@QAEAAPAPAVIAlternativeHostInfo@ZOOMSDK@@XZ 0040f6d0 f i schedule_meeting_ui.obj
 0001:0000e6d0       ?_Mysize@?$_List_alloc@U?$_List_base_types@HV?$allocator@H@std@@@std@@@std@@QAEAAIXZ 0040f6d0 f i participant_ui.obj
 0001:0000e6d0       ?_Mylast@?$_Vector_alloc@U?$_Vec_base_types@V?$basic_string@_WU?$char_traits@_W@std@@V?$allocator@_W@2@@std@@V?$allocator@V?$basic_string@_WU?$char_traits@_W@std@@V?$allocator@_W@2@@std@@@2@@std@@@std@@QBEABQAV?$basic_string@_WU?$char_traits@_W@std@@V?$allocator@_W@2@@2@XZ 0040f6d0 f i custom_ui_share_flow.obj
 0001:0000e6d0       ?_Mylast@?$_Vector_alloc@U?$_Vec_base_types@PAVIUserInfo@ZOOMSDK@@V?$allocator@PAVIUserInfo@ZOOMSDK@@@std@@@std@@@std@@QBEABQAPAVIUserInfo@ZOOMSDK@@XZ 0040f6d0 f i user_manager.obj
 0001:0000e6d0       ?_Mylast@?$_Vector_alloc@U?$_Vec_base_types@V?$basic_string@_WU?$char_traits@_W@std@@V?$allocator@_W@2@@std@@V?$allocator@V?$basic_string@_WU?$char_traits@_W@std@@V?$allocator@_W@2@@std@@@2@@std@@@std@@QAEAAPAV?$basic_string@_WU?$char_traits@_W@std@@V?$allocator@_W@2@@2@XZ 0040f6d0 f i custom_ui_share_flow.obj
 0001:0000e6f0       ?_Release@?$_Uninitialized_backout_al@PAV?$basic_string@_WU?$char_traits@_W@std@@V?$allocator@_W@2@@std@@V?$allocator@V?$basic_string@_WU?$char_traits@_W@std@@V?$allocator@_W@2@@std@@@2@@std@@QAEPAV?$basic_string@_WU?$char_traits@_W@std@@V?$allocator@_W@2@@2@XZ 0040f6f0 f i custom_ui_share_flow.obj
 0001:0000e710       ?_Tidy@?$vector@V?$basic_string@_WU?$char_traits@_W@std@@V?$allocator@_W@2@@std@@V?$allocator@V?$basic_string@_WU?$char_traits@_W@std@@V?$allocator@_W@2@@std@@@2@@std@@AAEXXZ 0040f710 f i custom_ui_share_flow.obj
 0001:0000e7a0       ?_Umove@?$vector@V?$basic_string@_WU?$char_traits@_W@std@@V?$allocator@_W@2@@std@@V?$allocator@V?$basic_string@_WU?$char_traits@_W@std@@V?$allocator@_W@2@@std@@@2@@std@@AAEPAV?$basic_string@_WU?$char_traits@_W@std@@V?$allocator@_W@2@@2@PAV32@00@Z 0040f7a0 f i custom_ui_share_flow.obj
 0001:0000e7d0       ?_Umove_if_noexcept1@?$vector@V?$basic_string@_WU?$char_traits@_W@std@@V?$allocator@_W@2@@std@@V?$allocator@V?$basic_string@_WU?$char_traits@_W@std@@V?$allocator@_W@2@@std@@@2@@std@@AAEXPAV?$basic_string@_WU?$char_traits@_W@std@@V?$allocator@_W@2@@2@00U?$integral_constant@_N$00@2@@Z 0040f7d0 f i custom_ui_share_flow.obj
 0001:0000e800       ?_Umove_if_noexcept@?$vector@V?$basic_string@_WU?$char_traits@_W@std@@V?$allocator@_W@2@@std@@V?$allocator@V?$basic_string@_WU?$char_traits@_W@std@@V?$allocator@_W@2@@std@@@2@@std@@AAEXPAV?$basic_string@_WU?$char_traits@_W@std@@V?$allocator@_W@2@@2@00@Z 0040f800 f i custom_ui_share_flow.obj
 0001:0000e830       ?_Xlength@?$vector@PAVIUserInfo@ZOOMSDK@@V?$allocator@PAVIUserInfo@ZOOMSDK@@@std@@@std@@CAXXZ 0040f830 f i user_manager.obj
 0001:0000e830       ?_Xlength@?$vector@PAVIVirtualBGImageInfo@ZOOMSDK@@V?$allocator@PAVIVirtualBGImageInfo@ZOOMSDK@@@std@@@std@@CAXXZ 0040f830 f i settings_ui.obj
 0001:0000e830       ?_Xlength@?$vector@V?$basic_string@_WU?$char_traits@_W@std@@V?$allocator@_W@2@@std@@V?$allocator@V?$basic_string@_WU?$char_traits@_W@std@@V?$allocator@_W@2@@std@@@2@@std@@CAXXZ 0040f830 f i custom_ui_share_flow.obj
 0001:0000e830       ?_Xlength@?$vector@PAVIInterpreterInfo@ZOOMSDK@@V?$allocator@PAVIInterpreterInfo@ZOOMSDK@@@std@@@std@@CAXXZ 0040f830 f i schedule_meeting_ui.obj
 0001:0000e830       ?_Xlength@?$vector@PAVIAlternativeHostInfo@ZOOMSDK@@V?$allocator@PAVIAlternativeHostInfo@ZOOMSDK@@@std@@@std@@CAXXZ 0040f830 f i schedule_meeting_ui.obj
 0001:0000e840       ?allocate@?$allocator@V?$basic_string@_WU?$char_traits@_W@std@@V?$allocator@_W@2@@std@@@std@@QAEPAV?$basic_string@_WU?$char_traits@_W@std@@V?$allocator@_W@2@@2@I@Z 0040f840 f i custom_ui_share_flow.obj
 0001:0000e840       ?allocate@?$allocator@U?$_Tree_node@U?$pair@$$CBIPAVIUserInfo@ZOOMSDK@@@std@@PAX@std@@@std@@QAEPAU?$_Tree_node@U?$pair@$$CBIPAVIUserInfo@ZOOMSDK@@@std@@PAX@2@I@Z 0040f840 f i user_manager.obj
 0001:0000e870       ?capacity@?$vector@V?$basic_string@_WU?$char_traits@_W@std@@V?$allocator@_W@2@@std@@V?$allocator@V?$basic_string@_WU?$char_traits@_W@std@@V?$allocator@_W@2@@std@@@2@@std@@QBEIXZ 0040f870 f i custom_ui_share_flow.obj
 0001:0000e8a0       ?deallocate@?$allocator@U?$_Tree_node@U?$pair@$$CBIPAVIUserInfo@ZOOMSDK@@@std@@PAX@std@@@std@@QAEXQAU?$_Tree_node@U?$pair@$$CBIPAVIUserInfo@ZOOMSDK@@@std@@PAX@2@I@Z 0040f8a0 f i user_manager.obj
 0001:0000e8a0       ?deallocate@?$allocator@V?$basic_string@_WU?$char_traits@_W@std@@V?$allocator@_W@2@@std@@@std@@QAEXQAV?$basic_string@_WU?$char_traits@_W@std@@V?$allocator@_W@2@@2@I@Z 0040f8a0 f i custom_ui_share_flow.obj
 0001:0000e8c0       ?max_size@?$_Default_allocator_traits@V?$allocator@U?$_Tree_node@U?$pair@$$CBIPAVIUserInfo@ZOOMSDK@@@std@@PAX@std@@@std@@@std@@SAIABV?$allocator@U?$_Tree_node@U?$pair@$$CBIPAVIUserInfo@ZOOMSDK@@@std@@PAX@std@@@2@@Z 0040f8c0 f i user_manager.obj
 0001:0000e8c0       ?max_size@?$_Default_allocator_traits@V?$allocator@V?$basic_string@_WU?$char_traits@_W@std@@V?$allocator@_W@2@@std@@@std@@@std@@SAIABV?$allocator@V?$basic_string@_WU?$char_traits@_W@std@@V?$allocator@_W@2@@std@@@2@@Z 0040f8c0 f i custom_ui_share_flow.obj
 0001:0000e8d0       ?max_size@?$vector@V?$basic_string@_WU?$char_traits@_W@std@@V?$allocator@_W@2@@std@@V?$allocator@V?$basic_string@_WU?$char_traits@_W@std@@V?$allocator@_W@2@@std@@@2@@std@@QBEIXZ 0040f8d0 f i custom_ui_share_flow.obj
 0001:0000e910       ?push_back@?$vector@V?$basic_string@_WU?$char_traits@_W@std@@V?$allocator@_W@2@@std@@V?$allocator@V?$basic_string@_WU?$char_traits@_W@std@@V?$allocator@_W@2@@std@@@2@@std@@QAEX$$QAV?$basic_string@_WU?$char_traits@_W@std@@V?$allocator@_W@2@@2@@Z 0040f910 f i custom_ui_share_flow.obj
 0001:0000e940       ?size@?$vector@V?$basic_string@_WU?$char_traits@_W@std@@V?$allocator@_W@2@@std@@V?$allocator@V?$basic_string@_WU?$char_traits@_W@std@@V?$allocator@_W@2@@std@@@2@@std@@QBEIXZ 0040f940 f i custom_ui_share_flow.obj
 0001:0000e970       ??0CCustomizeUIShareMgr@@QAE@PAVCCustomizeInMeetingUIMgr@@@Z 0040f970 f   custom_ui_share_mgr.obj
 0001:0000e9b0       ??0CCustomizeUIShareRenderUI@@QAE@PAVCCustomizeUIShareMgr@@@Z 0040f9b0 f   custom_ui_share_mgr.obj
 0001:0000e9e0       ??0CCustomizeUIShareSelectUI@@QAE@PAVCCustomizeUIShareMgr@@@Z 0040f9e0 f   custom_ui_share_mgr.obj
 0001:0000ea80       ??0CRect@@QAE@HHHH@Z       0040fa80 f i custom_ui_share_mgr.obj
 0001:0000eac0       ??1CCustomizeUIShareRenderUI@@QAE@XZ 0040fac0 f   custom_ui_share_mgr.obj
 0001:0000eae0       ??1CCustomizeUIShareSelectUI@@QAE@XZ 0040fae0 f   custom_ui_share_mgr.obj
 0001:0000eb20       ??_GCCustomizeUIShareRenderUI@@QAEPAXI@Z 0040fb20 f i custom_ui_share_mgr.obj
 0001:0000eb50       ??_GCCustomizeUIShareSelectUI@@QAEPAXI@Z 0040fb50 f i custom_ui_share_mgr.obj
 0001:0000eb90       ??_GShareToolbarWindow@@QAEPAXI@Z 0040fb90 f i custom_ui_share_mgr.obj
 0001:0000ebd0       ??_GViewOptionsWindow@@QAEPAXI@Z 0040fbd0 f i custom_ui_share_mgr.obj
 0001:0000ec10       ?AddToAppList@CCustomizeUIShareSelectUI@@QAEXPAUHWND__@@@Z 0040fc10 f   custom_ui_share_mgr.obj
 0001:0000ee50       ?AdjustListUIPos@CCustomizeUIShareSelectUI@@AAEXXZ 0040fe50 f   custom_ui_share_mgr.obj
 0001:0000ef80       ?CreateCustomShareRender@CCustomizeUIShareMgr@@QAEXPAVICustomizedUIMgr@ZOOMSDK@@@Z 0040ff80 f   custom_ui_share_mgr.obj
 0001:0000f090       ?CreateSelectShareUI@CCustomizeUIShareMgr@@AAEXXZ 00410090 f   custom_ui_share_mgr.obj
 0001:0000f190       ?CreateShareRenderUI@CCustomizeUIShareMgr@@AAEXXZ 00410190 f   custom_ui_share_mgr.obj
 0001:0000f240       ?DestroyAllShareWindows@CCustomizeUIShareMgr@@QAEXXZ 00410240 f   custom_ui_share_mgr.obj
 0001:0000f270       ?DestroyCustomShareRender@CCustomizeUIShareMgr@@QAEXXZ 00410270 f   custom_ui_share_mgr.obj
 0001:0000f2d0       ?DestroySelectShareUI@CCustomizeUIShareMgr@@AAEXXZ 004102d0 f   custom_ui_share_mgr.obj
 0001:0000f350       ?DestroyShareRenderUI@CCustomizeUIShareMgr@@AAEXXZ 00410350 f   custom_ui_share_mgr.obj
 0001:0000f3c0       ?DestroyShareToolbarWindow@CCustomizeUIShareMgr@@QAEXXZ 004103c0 f   custom_ui_share_mgr.obj
 0001:0000f410       ?DestroyViewOptionsWindow@CCustomizeUIShareMgr@@QAEXXZ 00410410 f   custom_ui_share_mgr.obj
 0001:0000f460       ?DoShareButtonClick@CCustomizeUIShareSelectUI@@AAEXW4SDKShareType@@@Z 00410460 f   custom_ui_share_mgr.obj
 0001:0000f4a0       ?EnumAllWindows@CCustomizeUIShareSelectUI@@QAEXXZ 004104a0 f   custom_ui_share_mgr.obj
 0001:0000f4c0       ?EnumWindowsProc@@YGHPAUHWND__@@J@Z 004104c0 f   custom_ui_share_mgr.obj
 0001:0000f520       ?GetShareContentSender@CCustomizeUIShareMgr@@AAEIXZ 00410520 f   custom_ui_share_mgr.obj
 0001:0000f5a0       ?GetSkinRes@CCustomizeUIShareSelectUI@@UAEIXZ 004105a0 f i custom_ui_share_mgr.obj
 0001:0000f5b0       ?HandleDestroyWindow@CCustomizeUIShareRenderUI@@QAEXXZ 004105b0 f   custom_ui_share_mgr.obj
 0001:0000f5d0       ?HandleMessage@CCustomizeUIShareSelectUI@@UAEJIIJ@Z 004105d0 f   custom_ui_share_mgr.obj
 0001:0000f7a0       ?HandleRenderUIDestroyed@CCustomizeUIShareMgr@@QAEXXZ 004107a0 f   custom_ui_share_mgr.obj
 0001:0000f7c0       ?HandleShareRenderDestroyed@CCustomizeUIShareMgr@@QAEXPAVICustomizedShareRender@ZOOMSDK@@@Z 004107c0 f   custom_ui_share_mgr.obj
 0001:0000f7f0       ?HandleShareRenderWindowMsgNotification@CCustomizeUIShareMgr@@QAEXIIJ@Z 004107f0 f   custom_ui_share_mgr.obj
 0001:0000f870       ?HandleSharingShareAnnotationStatusChanged@CCustomizeUIShareMgr@@QAEXPAVICustomizedShareRender@ZOOMSDK@@W4CustomizedShareAnnotationStatus@3@@Z 00410870 f   custom_ui_share_mgr.obj
 0001:0000f890       ?HandleSharingStatus@CCustomizeUIShareMgr@@QAEXW4SharingStatus@ZOOMSDK@@I@Z 00410890 f   custom_ui_share_mgr.obj
 0001:0000f9d0       ?HandleSizeChanged@CCustomizeUIShareMgr@@QAEXAAUtagRECT@@@Z 004109d0 f   custom_ui_share_mgr.obj
 0001:0000fa10       ?HandleUserChanged@CCustomizeUIShareMgr@@QAEXXZ 00410a10 f   custom_ui_share_mgr.obj
 0001:0000fa30       ?HandleWindowMoveMsg@CCustomizeUIShareMgr@@QAEXXZ 00410a30 f   custom_ui_share_mgr.obj
 0001:0000fa50       ?Height@CRect@@QBEHXZ      00410a50 f i custom_ui_share_mgr.obj
 0001:0000fa70       ?HideMe@CCustomizeUIShareRenderUI@@QAEXXZ 00410a70 f   custom_ui_share_mgr.obj
 0001:0000fab0       ?Init@CCustomizeUIShareMgr@@QAEXXZ 00410ab0 f   custom_ui_share_mgr.obj
 0001:0000fb10       ?InitAppList@CCustomizeUIShareSelectUI@@QAEXXZ 00410b10 f   custom_ui_share_mgr.obj
 0001:0000fb70       ?InitWindow@CCustomizeUIShareRenderUI@@QAEXXZ 00410b70 f   custom_ui_share_mgr.obj
 0001:0000fbc0       ?InitWindow@CCustomizeUIShareSelectUI@@UAEXXZ 00410bc0 f   custom_ui_share_mgr.obj
 0001:0000fd60       ?IsInSendShareMode@CCustomizeUIShareMgr@@QAE_NXZ 00410d60 f   custom_ui_share_mgr.obj
 0001:0000fd80       ?Notify@CCustomizeUIShareSelectUI@@UAEXAAUtagTNotifyUI@DuiLib@@@Z 00410d80 f   custom_ui_share_mgr.obj
 0001:0000ff10       ?SetDefaultRenderPos@CCustomizeUIShareRenderUI@@QAEXXZ 00410f10 f   custom_ui_share_mgr.obj
 0001:0000ff80       ?SetEvent@CCustomizeUIShareMgr@@QAEXPAVICustomizedShareRenderEvent@ZOOMSDK@@@Z 00410f80 f   custom_ui_share_mgr.obj
 0001:0000ffa0       ?ShouldWindowBeDisplayed@@YAHPAUHWND__@@J@Z 00410fa0 f   custom_ui_share_mgr.obj
 0001:00010100       ?ShowMe@CCustomizeUIShareRenderUI@@QAEXXZ 00411100 f   custom_ui_share_mgr.obj
 0001:00010140       ?ShowNextShareContent@CCustomizeUIShareMgr@@AAEXI@Z 00411140 f   custom_ui_share_mgr.obj
 0001:00010240       ?ShowSelectShareUI@CCustomizeUIShareMgr@@QAEXXZ 00411240 f   custom_ui_share_mgr.obj
 0001:000102b0       ?ShowShareToolbarWindow@CCustomizeUIShareMgr@@QAEX_N@Z 004112b0 f   custom_ui_share_mgr.obj
 0001:000103a0       ?ShowSharedContent@CCustomizeUIShareMgr@@QAEXXZ 004113a0 f   custom_ui_share_mgr.obj
 0001:000103d0       ?ShowViewOptionsWindow@CCustomizeUIShareMgr@@QAEX_N@Z 004113d0 f   custom_ui_share_mgr.obj
 0001:000104c0       ?StartShare@CCustomizeUIShareMgr@@QAEXW4SDKShareType@@PAUHWND__@@@Z 004114c0 f   custom_ui_share_mgr.obj
 0001:00010500       ?StopShare@CCustomizeUIShareMgr@@QAEXXZ 00411500 f   custom_ui_share_mgr.obj
 0001:00010530       ?Width@CRect@@QBEHXZ       00411530 f i custom_ui_share_mgr.obj
 0001:00010550       ?onDestroyed@CCustomizeUIShareRenderUI@@UAEXXZ 00411550 f   custom_ui_share_mgr.obj
 0001:00010570       ?onMove@CCustomizeUIShareRenderUI@@UAEXXZ 00411570 f   custom_ui_share_mgr.obj
 0001:00010590       ?onRemoteControlStatus@CCustomizeUIShareMgr@@QAEXW4RemoteControlStatus@ZOOMSDK@@I@Z 00411590 f   custom_ui_share_mgr.obj
 0001:000107c0       ?onSelectShareUIClosed@CCustomizeUIShareMgr@@QAEXXZ 004117c0 f   custom_ui_share_mgr.obj
 0001:000107e0       ?onSize@CCustomizeUIShareRenderUI@@UAEXAAUtagRECT@@@Z 004117e0 f   custom_ui_share_mgr.obj
 0001:00010810       ?uninit@CCustomizeUIShareMgr@@QAEXXZ 00411810 f   custom_ui_share_mgr.obj
 0001:00010840       ___local_stdio_scanf_options 00411840 f i custom_ui_share_mgr.obj
 0001:00010850       __vswscanf_s_l             00411850 f i custom_ui_share_mgr.obj
 0001:00010880       _swscanf_s                 00411880 f i custom_ui_share_mgr.obj
 0001:000108c0       ??0CCustomizeUIVideoFlow@@QAE@XZ 004118c0 f   custom_ui_video_flow.obj
 0001:000108e0       ?CreateVideoElementFlow@CCustomizeUIVideoFlow@@QAE?AW4SDKError@ZOOMSDK@@PAPAVIVideoRenderElement@3@W4VideoRenderElementType@3@@Z 004118e0 f   custom_ui_video_flow.obj
 0001:00010930       ?DestroryVideoElementFlow@CCustomizeUIVideoFlow@@QAE?AW4SDKError@ZOOMSDK@@PAVIVideoRenderElement@3@@Z 00411930 f   custom_ui_video_flow.obj
 0001:00010980       ?HandleSizeChanged@CCustomizeUIVideoFlow@@QAE?AW4SDKError@ZOOMSDK@@UtagRECT@@@Z 00411980 f   custom_ui_video_flow.obj
 0001:000109d0       ?HideActiveViewVideo@CCustomizeUIVideoFlow@@QAE?AW4SDKError@ZOOMSDK@@PAVIActiveVideoRenderElement@3@@Z 004119d0 f   custom_ui_video_flow.obj
 0001:000109d0       ?HidePreviewVideo@CCustomizeUIVideoFlow@@QAE?AW4SDKError@ZOOMSDK@@PAVIPreviewVideoRenderElement@3@@Z 004119d0 f   custom_ui_video_flow.obj
 0001:00010a10       ?HideGalleryViewVideo@CCustomizeUIVideoFlow@@QAE?AW4SDKError@ZOOMSDK@@PAVINormalVideoRenderElement@3@@Z 00411a10 f   custom_ui_video_flow.obj
 0001:00010a50       ?Reset@CCustomizeUIVideoFlow@@QAEXXZ 00411a50 f   custom_ui_video_flow.obj
 0001:00010a70       ?Show@CCustomizeUIVideoFlow@@QAEXXZ 00411a70 f   custom_ui_video_flow.obj
 0001:00010aa0       ?ShowActiveViewVideo@CCustomizeUIVideoFlow@@QAE?AW4SDKError@ZOOMSDK@@PAVIActiveVideoRenderElement@3@UtagRECT@@@Z 00411aa0 f   custom_ui_video_flow.obj
 0001:00010aa0       ?ShowPreviewVideo@CCustomizeUIVideoFlow@@QAE?AW4SDKError@ZOOMSDK@@PAVIPreviewVideoRenderElement@3@UtagRECT@@@Z 00411aa0 f   custom_ui_video_flow.obj
 0001:00010b10       ?ShowGalleryViewVideo@CCustomizeUIVideoFlow@@QAE?AW4SDKError@ZOOMSDK@@PAVINormalVideoRenderElement@3@UtagRECT@@@Z 00411b10 f   custom_ui_video_flow.obj
 0001:00010ba0       ??0CCustomizeUIVideoMgr@@QAE@PAVCCustomizeInMeetingUIMgr@@@Z 00411ba0 f   custom_ui_video_mgr.obj
 0001:00010bd0       ?CalculateCountInOnePages@CCustomizeUIVideoMgr@@AAEXXZ 00411bd0 f   custom_ui_video_mgr.obj
 0001:00010c40       ?CalculateCurrentActiveViewRect@CCustomizeUIVideoMgr@@AAEXXZ 00411c40 f   custom_ui_video_mgr.obj
 0001:00010d10       ?CalculateCurrentGalleryViewRect@CCustomizeUIVideoMgr@@AAEXXZ 00411d10 f   custom_ui_video_mgr.obj
 0001:00010de0       ?CalculateTotalPages@CCustomizeUIVideoMgr@@AAEXXZ 00411de0 f   custom_ui_video_mgr.obj
 0001:00010e70       ?CalulateViewRect@CCustomizeUIVideoMgr@@QAEXXZ 00411e70 f   custom_ui_video_mgr.obj
 0001:00010e90       ?CreateCustomVideoContainer@CCustomizeUIVideoMgr@@QAEXPAVICustomizedUIMgr@ZOOMSDK@@PAUHWND__@@UtagRECT@@@Z 00411e90 f   custom_ui_video_mgr.obj
 0001:00010f90       ?CreateGalleryViewVideo@CCustomizeUIVideoMgr@@QAEXXZ 00411f90 f   custom_ui_video_mgr.obj
 0001:00011010       ?DestroyActiveViewVideo@CCustomizeUIVideoMgr@@QAEXXZ 00412010 f   custom_ui_video_mgr.obj
 0001:00011060       ?DestroyCustomVideoContainer@CCustomizeUIVideoMgr@@AAEXXZ 00412060 f   custom_ui_video_mgr.obj
 0001:000110b0       ?DestroyGalleryViewVideo@CCustomizeUIVideoMgr@@QAEXXZ 004120b0 f   custom_ui_video_mgr.obj
 0001:00011130       ?DestroyPreviewVideo@CCustomizeUIVideoMgr@@QAEXXZ 00412130 f   custom_ui_video_mgr.obj
 0001:00011180       ?GetCurrentAcviteViewRect@CCustomizeUIVideoMgr@@QAE?AUtagRECT@@XZ 00412180 f   custom_ui_video_mgr.obj
 0001:000111b0       ?GetCurrentGalleryViewRect@CCustomizeUIVideoMgr@@QAE?AUtagRECT@@XZ 004121b0 f   custom_ui_video_mgr.obj
 0001:000111e0       ?HandleSizeChanged@CCustomizeUIVideoMgr@@QAEXUtagRECT@@@Z 004121e0 f   custom_ui_video_mgr.obj
 0001:00011220       ?HandleSwitchGalleryPage@CCustomizeUIVideoMgr@@QAEXW4ArrowButtonType@@@Z 00412220 f   custom_ui_video_mgr.obj
 0001:00011270       ?HandleUserChanged@CCustomizeUIVideoMgr@@QAEXXZ 00412270 f   custom_ui_video_mgr.obj
 0001:000112a0       ?HandleVideoRenderElementDestroyed@CCustomizeUIVideoMgr@@QAEXPAVIVideoRenderElement@ZOOMSDK@@@Z 004122a0 f   custom_ui_video_mgr.obj
 0001:00011350       ?HideGalleryViewVideo@CCustomizeUIVideoMgr@@QAEXXZ 00412350 f   custom_ui_video_mgr.obj
 0001:000113b0       ?HidePreviewVideo@CCustomizeUIVideoMgr@@QAEXXZ 004123b0 f   custom_ui_video_mgr.obj
 0001:000113e0       ?ReSubscribeNormalUser@CCustomizeUIVideoMgr@@AAEXW4GalleryViewSubscribeType@@@Z 004123e0 f   custom_ui_video_mgr.obj
 0001:00011640       ?SetGalleryViewStatus@CCustomizeUIVideoMgr@@QAEX_N@Z 00412640 f   custom_ui_video_mgr.obj
 0001:00011660       ?SetParentHWND@CCustomizeUIVideoMgr@@AAEXPAUHWND__@@@Z 00412660 f i custom_ui_video_mgr.obj
 0001:00011680       ?Show@CCustomizeUIVideoMgr@@QAEXXZ 00412680 f   custom_ui_video_mgr.obj
 0001:000116a0       ?ShowActiveViewVideo@CCustomizeUIVideoMgr@@QAEXXZ 004126a0 f   custom_ui_video_mgr.obj
 0001:00011730       ?ShowGalleryViewVideo@CCustomizeUIVideoMgr@@QAEXW4GalleryViewSubscribeType@@@Z 00412730 f   custom_ui_video_mgr.obj
 0001:00011880       ?ShowPreviewVideo@CCustomizeUIVideoMgr@@QAEXUtagRECT@@@Z 00412880 f   custom_ui_video_mgr.obj
 0001:00011930       ?getVideoGalleryCurrPage@CCustomizeUIVideoMgr@@QAEHXZ 00412930 f   custom_ui_video_mgr.obj
 0001:00011950       ?getVideoGalleryPage@CCustomizeUIVideoMgr@@QAEHXZ 00412950 f   custom_ui_video_mgr.obj
 0001:00011970       ?init@CCustomizeUIVideoMgr@@QAEXXZ 00412970 f   custom_ui_video_mgr.obj
 0001:000119f0       ?uninit@CCustomizeUIVideoMgr@@QAEXXZ 004129f0 f   custom_ui_video_mgr.obj
 0001:00011a20       ??0CCheckBoxUI@DuiLib@@QAE@XZ 00412a20 f i dial_in_country_ui.obj
 0001:00011a40       ??0CDialInCountryUIMgr@@QAE@PAVCSDKSheduleMeetingUIGroup@@PAVIScheduleMeetingItem@ZOOMSDK@@@Z 00412a40 f   dial_in_country_ui.obj
 0001:00011b50       ??1CCheckBoxUI@DuiLib@@UAE@XZ 00412b50 f i dial_in_country_ui.obj
 0001:00011b70       ??1CDialInCountryUIMgr@@QAE@XZ 00412b70 f   dial_in_country_ui.obj
 0001:00011c00       ?AddElement@CDialInCountryUIMgr@@AAEXPB_W@Z 00412c00 f   dial_in_country_ui.obj
 0001:00011d90       ?DoClickSaveChangeBtn@CDialInCountryUIMgr@@AAEXXZ 00412d90 f   dial_in_country_ui.obj
 0001:000120b0       ?FindElement@CDialInCountryUIMgr@@AAEPAVCControlUI@DuiLib@@PB_W@Z 004130b0 f   dial_in_country_ui.obj
 0001:000120e0       ?GetSelectedDialinCountryCode@CDialInCountryUIMgr@@QAEPAV?$IList@PB_W@ZOOMSDK@@XZ 004130e0 f   dial_in_country_ui.obj
 0001:00012120       ?GetSkinRes@CDialInCountryUIMgr@@UAEIXZ 00413120 f i dial_in_country_ui.obj
 0001:00012130       ?HandleMessage@CDialInCountryUIMgr@@UAEJIIJ@Z 00413130 f   dial_in_country_ui.obj
 0001:00012310       ?InitCountryListUI@CDialInCountryUIMgr@@AAEXXZ 00413310 f   dial_in_country_ui.obj
 0001:000124a0       ?InitWindow@CDialInCountryUIMgr@@UAEXXZ 004134a0 f   dial_in_country_ui.obj
 0001:00012690       ?Notify@CDialInCountryUIMgr@@UAEXAAUtagTNotifyUI@DuiLib@@@Z 00413690 f   dial_in_country_ui.obj
 0001:000126f0       ?UpdateShowList@CDialInCountryUIMgr@@AAEXXZ 004136f0 f   dial_in_country_ui.obj
 0001:00012930       ??0ClosedCaptionDisplayUI@@QAE@HH@Z 00413930 f   display_cc_ui.obj
 0001:000129a0       ??1ClosedCaptionDisplayUI@@UAE@XZ 004139a0 f   display_cc_ui.obj
 0001:000129e0       ??_EClosedCaptionDisplayUI@@UAEPAXI@Z 004139e0 f i display_cc_ui.obj
 0001:000129e0       ??_GClosedCaptionDisplayUI@@UAEPAXI@Z 004139e0 f i display_cc_ui.obj
 0001:00012a20       ?GetWindowClassName@CInvitationUIMgr@@UBEPB_WXZ 00413a20 f i invitation_ui.obj
 0001:00012a20       ?GetWindowClassName@ClosedCaptionDisplayUI@@UBEPB_WXZ 00413a20 f i display_cc_ui.obj
 0001:00012a30       ?HandleMessage@ClosedCaptionDisplayUI@@UAEJIIJ@Z 00413a30 f   display_cc_ui.obj
 0001:00012b70       ?HandleSizeChanged@ClosedCaptionDisplayUI@@QAEXPAUHWND__@@@Z 00413b70 f   display_cc_ui.obj
 0001:00012c00       ?HideWnd@@YGXPAUHWND__@@IIK@Z 00413c00 f   display_cc_ui.obj
 0001:00012c20       ?Init@ClosedCaptionDisplayUI@@AAEXXZ 00413c20 f   display_cc_ui.obj
 0001:00012d80       ?SetDisplayContent@ClosedCaptionDisplayUI@@QAEXPB_W@Z 00413d80 f   display_cc_ui.obj
 0001:00012e10       ??0CZoomHttpRequestHelper@@QAE@XZ 00413e10 f   HttpRequestHelper.obj
 0001:00012e90       ?CharToWchar@zoomHmacSHA256@@QAE_NPBDPA_W@Z 00413e90 f   zoomHmacSHA256.obj
 0001:00012e90       ?CharToWchar@CZoomHttpRequestHelper@@AAE_NPBDPA_W@Z 00413e90 f   HttpRequestHelper.obj
 0001:00012f50       ?DeleteTempFile@CZoomHttpRequestHelper@@AAEXPA_W@Z 00413f50 f   HttpRequestHelper.obj
 0001:00012fc0       ?GetTokenFromFile@CZoomHttpRequestHelper@@AAE_NW4infoType@@@Z 00413fc0 f   HttpRequestHelper.obj
 0001:00013280       ?GetUserBasicInfoFromFile@CZoomHttpRequestHelper@@AAE_NXZ 00414280 f   HttpRequestHelper.obj
 0001:000136b0       ?MakeAPIUrlTokens@CZoomHttpRequestHelper@@QAE_NXZ 004146b0 f   HttpRequestHelper.obj
 0001:00013730       ?SetRestAPIAccessToken@CZoomHttpRequestHelper@@QAEXPA_W@Z 00414730 f   HttpRequestHelper.obj
 0001:00013750       ?SetRestAPIDomain@CZoomHttpRequestHelper@@QAEXPA_W@Z 00414750 f   HttpRequestHelper.obj
 0001:00013770       ?WcharToChar@CZoomHttpRequestHelper@@AAE_NPB_WPAD@Z 00414770 f   HttpRequestHelper.obj
 0001:00013770       ?WcharToChar@zoomHmacSHA256@@QAE_NPB_WPAD@Z 00414770 f   zoomHmacSHA256.obj
 0001:000137c0       ?getAPIUserInfo@CZoomHttpRequestHelper@@AAE_NW4infoType@@@Z 004147c0 f   HttpRequestHelper.obj
 0001:00013d20       ?strstr@@YAPADQADQBD@Z     00414d20 f i HttpRequestHelper.obj
 0001:00013d40       ?wcsrchr@@YAPA_WPA_W_W@Z   00414d40 f i HttpRequestHelper.obj
 0001:00013d60       ??0CAuthSDKWorkFlow@@QAE@XZ 00414d60 f   init_auth_sdk_workflow.obj
 0001:00013da0       ??0CInitSDKWorkFlow@@QAE@XZ 00414da0 f   init_auth_sdk_workflow.obj
 0001:00013dd0       ??0IAuthServiceEvent@ZOOMSDK@@QAE@XZ 00414dd0 f i init_auth_sdk_workflow.obj
 0001:00013df0       ??0INetworkConnectionHandler@ZOOMSDK@@QAE@XZ 00414df0 f i init_auth_sdk_workflow.obj
 0001:00013e10       ??1CAuthSDKWorkFlow@@UAE@XZ 00414e10 f   init_auth_sdk_workflow.obj
 0001:00013e80       ??1CInitSDKWorkFlow@@UAE@XZ 00414e80 f   init_auth_sdk_workflow.obj
 0001:00013ea0       ??_ECAuthSDKWorkFlow@@UAEPAXI@Z 00414ea0 f i init_auth_sdk_workflow.obj
 0001:00013ea0       ??_GCAuthSDKWorkFlow@@UAEPAXI@Z 00414ea0 f i init_auth_sdk_workflow.obj
 0001:00013ed0       ??_ECInitSDKWorkFlow@@UAEPAXI@Z 00414ed0 f i init_auth_sdk_workflow.obj
 0001:00013ed0       ??_GCInitSDKWorkFlow@@UAEPAXI@Z 00414ed0 f i init_auth_sdk_workflow.obj
 0001:00013f00       ?Auth@CAuthSDKWorkFlow@@QAE?AW4SDKError@ZOOMSDK@@AAUtagAuthContext@3@@Z 00414f00 f   init_auth_sdk_workflow.obj
 0001:00013f70       ?Auth@CAuthSDKWorkFlow@@QAE?AW4SDKError@ZOOMSDK@@AAUtagAuthParam@3@@Z 00414f70 f   init_auth_sdk_workflow.obj
 0001:00013fe0       ?CleanupSDK@CInitSDKWorkFlow@@QAE?AW4SDKError@ZOOMSDK@@XZ 00414fe0 f   init_auth_sdk_workflow.obj
 0001:00014030       ?InitSDK@CInitSDKWorkFlow@@QAE?AW4SDKError@ZOOMSDK@@AAUtagInitParam@3@_N@Z 00415030 f   init_auth_sdk_workflow.obj
 0001:000140e0       ?onAuthenticationReturn@CAuthSDKWorkFlow@@UAEXW4AuthResult@ZOOMSDK@@@Z 004150e0 f   init_auth_sdk_workflow.obj
 0001:00014110       ?onProxyDetectComplete@CInitSDKWorkFlow@@UAEXXZ 00415110 f   init_auth_sdk_workflow.obj
 0001:00014150       ??0CInvitationUIMgr@@QAE@XZ 00415150 f   invitation_ui.obj
 0001:00014200       ??1CInvitationUIMgr@@QAE@XZ 00415200 f   invitation_ui.obj
 0001:00014260       ?DoClickCopyInviteInfoBtn@CInvitationUIMgr@@IAEXXZ 00415260 f   invitation_ui.obj
 0001:00014390       ?DoClickCopyLinkBtn@CInvitationUIMgr@@IAEXXZ 00415390 f   invitation_ui.obj
 0001:00014400       ?GetSkinRes@CInvitationUIMgr@@UAEIXZ 00415400 f i invitation_ui.obj
 0001:00014410       ?HandleMessage@CInvitationUIMgr@@UAEJIIJ@Z 00415410 f   invitation_ui.obj
 0001:00014650       ?InitWindow@CInvitationUIMgr@@IAEXXZ 00415650 f   invitation_ui.obj
 0001:00014810       ?Notify@CInvitationUIMgr@@UAEXAAUtagTNotifyUI@DuiLib@@@Z 00415810 f   invitation_ui.obj
 0001:00014880       ??0CInvitationWorkflow@@QAE@XZ 00415880 f   invitation_workflow.obj
 0001:000148b0       ??1CInvitationWorkflow@@UAE@XZ 004158b0 f   invitation_workflow.obj
 0001:000148d0       ??_GCInvitationWorkflow@@UAEPAXI@Z 004158d0 f i invitation_workflow.obj
 0001:000148d0       ??_ECInvitationWorkflow@@UAEPAXI@Z 004158d0 f i invitation_workflow.obj
 0001:00014900       ?GetInviteEmailTeamplate@CInvitationWorkflow@@QAEPB_WXZ 00415900 f   invitation_workflow.obj
 0001:00014930       ?GetInviteEmailTitle@CInvitationWorkflow@@QAEPB_WXZ 00415930 f   invitation_workflow.obj
 0001:00014960       ?GetJoinMeetingUrl@CInvitationWorkflow@@QAEPB_WXZ 00415960 f   invitation_workflow.obj
 0001:00014990       ?Init@CInvitationWorkflow@@QAEXXZ 00415990 f   invitation_workflow.obj
 0001:000149d0       ??0CSDKJoinMeetingForLoginUserFlowUIEvent@@QAE@XZ 004159d0 f i Join_meeting_for_login_user_ui.obj
 0001:000149f0       ??0CSDKJoinMeetingForLoginUserUIGroup@@QAE@XZ 004159f0 f   Join_meeting_for_login_user_ui.obj
 0001:00014a60       ??0CSDKJoinMeetingForLoginUserUIMgr@@QAE@XZ 00415a60 f   Join_meeting_for_login_user_ui.obj
 0001:00014b00       ??0tagJoinParam@ZOOMSDK@@QAE@XZ 00415b00 f i Join_meeting_for_login_user_ui.obj
 0001:00014b40       ??1CSDKJoinMeetingForLoginUserUIGroup@@UAE@XZ 00415b40 f   Join_meeting_for_login_user_ui.obj
 0001:00014bb0       ??1CSDKJoinMeetingForLoginUserUIMgr@@UAE@XZ 00415bb0 f   Join_meeting_for_login_user_ui.obj
 0001:00014c00       ??_ECSDKJoinMeetingForLoginUserUIGroup@@UAEPAXI@Z 00415c00 f i Join_meeting_for_login_user_ui.obj
 0001:00014c00       ??_GCSDKJoinMeetingForLoginUserUIGroup@@UAEPAXI@Z 00415c00 f i Join_meeting_for_login_user_ui.obj
 0001:00014c30       ??_ECSDKJoinMeetingForLoginUserUIMgr@@UAEPAXI@Z 00415c30 f i Join_meeting_for_login_user_ui.obj
 0001:00014c30       ??_GCSDKJoinMeetingForLoginUserUIMgr@@UAEPAXI@Z 00415c30 f i Join_meeting_for_login_user_ui.obj
 0001:00014c70       ?DoJoinMeetingBtnClick@CSDKJoinMeetingForLoginUserUIGroup@@QAEXXZ 00415c70 f   Join_meeting_for_login_user_ui.obj
 0001:00014fd0       ?GetAppEvent@CSDKJoinMeetingForLoginUserUIMgr@@QAEPAVCSDKDemoAppEvent@@XZ 00415fd0 f   Join_meeting_for_login_user_ui.obj
 0001:00014fd0       ?GetParent@CToolbarBottom@@QAEPAUHWND__@@XZ 00415fd0 f   toolbar_manager.obj
 0001:00014ff0       ?GetSkinRes@CSDKJoinMeetingForLoginUserUIMgr@@UAEIXZ 00415ff0 f i Join_meeting_for_login_user_ui.obj
 0001:00015000       ?HandleMessage@CSDKJoinMeetingForLoginUserUIMgr@@UAEJIIJ@Z 00416000 f   Join_meeting_for_login_user_ui.obj
 0001:00015200       ?InitWindow@CSDKJoinMeetingForLoginUserUIGroup@@QAEXAAVCPaintManagerUI@DuiLib@@PAVCSDKJoinMeetingForLoginUserUIMgr@@@Z 00416200 f   Join_meeting_for_login_user_ui.obj
 0001:00015290       ?InitWindow@CSDKJoinMeetingForLoginUserUIMgr@@UAEXXZ 00416290 f   Join_meeting_for_login_user_ui.obj
 0001:000153d0       ?IsSelectCustomizedUIMode@SDKInterfaceWrap@@QAE_NXZ 004163d0 f i Join_meeting_for_login_user_ui.obj
 0001:000153f0       ?Notify@CSDKJoinMeetingForLoginUserUIGroup@@QAEXAAUtagTNotifyUI@DuiLib@@@Z 004163f0 f   Join_meeting_for_login_user_ui.obj
 0001:00015430       ?Notify@CSDKJoinMeetingForLoginUserUIMgr@@UAEXAAUtagTNotifyUI@DuiLib@@@Z 00416430 f   Join_meeting_for_login_user_ui.obj
 0001:00015450       ?OnDestroy@CSDKJoinMeetingForLoginUserUIMgr@@QAEJIIJAAH@Z 00416450 f   Join_meeting_for_login_user_ui.obj
 0001:00015470       ?SetEvent@CSDKJoinMeetingForLoginUserUIMgr@@QAEXPAVCSDKDemoAppEvent@@@Z 00416470 f   Join_meeting_for_login_user_ui.obj
 0001:00015470       ?SetParent@CToolbarBottom@@QAEXPAUHWND__@@@Z 00416470 f   toolbar_bottom_ui.obj
 0001:00015490       ?ShowErrorMessage@CSDKJoinMeetingForLoginUserUIMgr@@QAEXPB_W@Z 00416490 f   Join_meeting_for_login_user_ui.obj
 0001:000154c0       ?UninitWindow@CSDKJoinMeetingForLoginUserUIGroup@@QAEXXZ 004164c0 f   Join_meeting_for_login_user_ui.obj
 0001:000154f0       ?onMeetingStatusChanged@CSDKJoinMeetingForLoginUserUIGroup@@UAEXW4MeetingStatus@ZOOMSDK@@H@Z 004164f0 f   Join_meeting_for_login_user_ui.obj
 0001:00015560       ??0CSDKJoinMeetingForLoginUserFlow@@QAE@XZ 00416560 f   Join_meeting_for_login_user_workflow.obj
 0001:000155a0       ??1CSDKJoinMeetingForLoginUserFlow@@UAE@XZ 004165a0 f   Join_meeting_for_login_user_workflow.obj
 0001:00015610       ??_ECSDKJoinMeetingForLoginUserFlow@@UAEPAXI@Z 00416610 f i Join_meeting_for_login_user_workflow.obj
 0001:00015610       ??_GCSDKJoinMeetingForLoginUserFlow@@UAEPAXI@Z 00416610 f i Join_meeting_for_login_user_workflow.obj
 0001:00015640       ?IsMeetingServiceReady@CSDKJoinMeetingForLoginUserFlow@@QAE_NXZ 00416640 f   Join_meeting_for_login_user_workflow.obj
 0001:00015640       ?IsMeetingServiceReady@CSDKRestAPIUserWorkFlow@@QAE_NXZ 00416640 f   LOGIN_restapi_without_login_workflow.obj
 0001:00015690       ?JoinMeeting@CSDKJoinMeetingForLoginUserFlow@@QAE?AW4SDKError@ZOOMSDK@@AAUtagJoinParam@3@@Z 00416690 f   Join_meeting_for_login_user_workflow.obj
 0001:00015730       ??0CSDKLoggedInFlowUIEvent@@QAE@XZ 00416730 f i LoggedIn_sdk_controller_ui.obj
 0001:00015750       ??0CSDKLoggedInUIMgr@@QAE@XZ 00416750 f   LoggedIn_sdk_controller_ui.obj
 0001:00015820       ??0tagStartParam@ZOOMSDK@@QAE@XZ 00416820 f i LoggedIn_sdk_controller_ui.obj
 0001:00015850       ??1CSDKLoggedInUIMgr@@UAE@XZ 00416850 f   LoggedIn_sdk_controller_ui.obj
 0001:000158a0       ??_GCSDKLoggedInUIMgr@@UAEPAXI@Z 004168a0 f i LoggedIn_sdk_controller_ui.obj
 0001:000158a0       ??_ECSDKLoggedInUIMgr@@UAEPAXI@Z 004168a0 f i LoggedIn_sdk_controller_ui.obj
 0001:000158e0       ?DisableMeetingButton@CSDKLoggedInUIMgr@@IAEXXZ 004168e0 f   LoggedIn_sdk_controller_ui.obj
 0001:00015ae0       ?DoBackToMeetingBtnClick@CSDKLoggedInUIMgr@@IAEXXZ 00416ae0 f   LoggedIn_sdk_controller_ui.obj
 0001:00015b20       ?DoConfigureBtnClick@CSDKLoggedInUIMgr@@IAEXXZ 00416b20 f   LoggedIn_sdk_controller_ui.obj
 0001:00015b60       ?DoJoinMeetingBtnClick@CSDKLoggedInUIMgr@@IAEXXZ 00416b60 f   LoggedIn_sdk_controller_ui.obj
 0001:00015b90       ?DoLogoutBtnClick@CSDKLoggedInUIMgr@@IAEXXZ 00416b90 f   LoggedIn_sdk_controller_ui.obj
 0001:00015bb0       ?DoScheduleBtnClick@CSDKLoggedInUIMgr@@IAEXXZ 00416bb0 f   LoggedIn_sdk_controller_ui.obj
 0001:00015be0       ?DoStartDirectShareBtnClick@CSDKLoggedInUIMgr@@IAEXXZ 00416be0 f   LoggedIn_sdk_controller_ui.obj
 0001:00015c00       ?DoStartMeetingBtnClick@CSDKLoggedInUIMgr@@IAEX_N@Z 00416c00 f   LoggedIn_sdk_controller_ui.obj
 0001:00015d30       ?GetSkinRes@CSDKLoggedInUIMgr@@UAEIXZ 00416d30 f i LoggedIn_sdk_controller_ui.obj
 0001:00015d40       ?HandleMessage@CSDKLoggedInUIMgr@@UAEJIIJ@Z 00416d40 f   LoggedIn_sdk_controller_ui.obj
 0001:00015f40       ?InitWindow@CSDKLoggedInUIMgr@@UAEXXZ 00416f40 f   LoggedIn_sdk_controller_ui.obj
 0001:00016320       ?Notify@CSDKLoggedInUIMgr@@UAEXAAUtagTNotifyUI@DuiLib@@@Z 00417320 f   LoggedIn_sdk_controller_ui.obj
 0001:000164e0       ?OnClose@CSDKLoggedInUIMgr@@QAEJIIJAAH@Z 004174e0 f   LoggedIn_sdk_controller_ui.obj
 0001:00016580       ?OnDestroy@CSDKLoggedInUIMgr@@QAEJIIJAAH@Z 00417580 f   LoggedIn_sdk_controller_ui.obj
 0001:000165a0       ?SetEvent@CSDKLoggedInUIMgr@@QAEXPAVCSDKDemoAppEvent@@@Z 004175a0 f   LoggedIn_sdk_controller_ui.obj
 0001:000165c0       ?ShowBackToMeetingButton@CSDKLoggedInUIMgr@@IAEXXZ 004175c0 f   LoggedIn_sdk_controller_ui.obj
 0001:000169d0       ?ShowErrorMessage@CSDKLoggedInUIMgr@@QAEXPB_W@Z 004179d0 f   LoggedIn_sdk_controller_ui.obj
 0001:00016a00       ?ShowUI@CSDKLoggedInUIMgr@@QAEXW4LoggedIn_MeetingUI_type@@@Z 00417a00 f   LoggedIn_sdk_controller_ui.obj
 0001:00016b60       ?onMeetingStatusChanged@CSDKLoggedInUIMgr@@UAEXW4MeetingStatus@ZOOMSDK@@H@Z 00417b60 f   LoggedIn_sdk_controller_ui.obj
 0001:00016c60       ?updateUI@CSDKLoggedInUIMgr@@IAEXXZ 00417c60 f   LoggedIn_sdk_controller_ui.obj
 0001:00016c80       ??0CSDKLoggedInUIWorkFlow@@QAE@XZ 00417c80 f   LoggedIn_sdk_controller_workflow.obj
 0001:00016ce0       ??0IDirectShareServiceHelperEvent@ZOOMSDK@@QAE@XZ 00417ce0 f i LoggedIn_sdk_controller_workflow.obj
 0001:00016d00       ??1CSDKLoggedInUIWorkFlow@@UAE@XZ 00417d00 f   LoggedIn_sdk_controller_workflow.obj
 0001:00016d80       ??_ECSDKLoggedInUIWorkFlow@@UAEPAXI@Z 00417d80 f i LoggedIn_sdk_controller_workflow.obj
 0001:00016d80       ??_GCSDKLoggedInUIWorkFlow@@UAEPAXI@Z 00417d80 f i LoggedIn_sdk_controller_workflow.obj
 0001:00016db0       ?BringMeetingToFront@CSDKLoggedInUIWorkFlow@@QAE?AW4SDKError@ZOOMSDK@@XZ 00417db0 f   LoggedIn_sdk_controller_workflow.obj
 0001:00016e10       ?DirectShare@CSDKLoggedInUIWorkFlow@@QAE?AW4SDKError@ZOOMSDK@@XZ 00417e10 f   LoggedIn_sdk_controller_workflow.obj
 0001:00016ec0       ?EndMeeting@CSDKLoggedInUIWorkFlow@@QAE?AW4SDKError@ZOOMSDK@@XZ 00417ec0 f   LoggedIn_sdk_controller_workflow.obj
 0001:00016f20       ?IsMeetingServiceReady@CSDKLoggedInUIWorkFlow@@QAE_NXZ 00417f20 f   LoggedIn_sdk_controller_workflow.obj
 0001:00016f70       ?LeaveMeeting@CSDKLoggedInUIWorkFlow@@QAE?AW4SDKError@ZOOMSDK@@XZ 00417f70 f   LoggedIn_sdk_controller_workflow.obj
 0001:00016fd0       ?OnDirectShareStatusUpdate@CSDKLoggedInUIWorkFlow@@UAEXW4DirectShareStatusStatus_Enum@ZOOMSDK@@PAVIDirectShareViaMeetingIDOrPairingCodeHandler@3@@Z 00417fd0 f   LoggedIn_sdk_controller_workflow.obj
 0001:00017010       ?StartMeeting@CSDKLoggedInUIWorkFlow@@QAE?AW4SDKError@ZOOMSDK@@AAUtagStartParam@3@@Z 00418010 f   LoggedIn_sdk_controller_workflow.obj
 0001:00017090       ?onMeetingParameterNotification@CSDKLoggedInUIWorkFlow@@UAEXPBUtagMeetingParameter@ZOOMSDK@@@Z 00418090 f   LoggedIn_sdk_controller_workflow.obj
 0001:000170c0       ?onMeetingSecureKeyNotification@CSDKLoggedInUIWorkFlow@@UAEXPBDHPAVIMeetingExternalSecureKeyHandler@ZOOMSDK@@@Z 004180c0 f   LoggedIn_sdk_controller_workflow.obj
 0001:00017100       ?onMeetingStatisticsWarningNotification@CSDKLoggedInUIWorkFlow@@UAEXW4StatisticsWarningType@ZOOMSDK@@@Z 00418100 f   LoggedIn_sdk_controller_workflow.obj
 0001:00017130       ?OnMicSpkVolumnChanged@CSDKAudioSettingsWorkFlow@@UAEXII@Z 00418130 f   SETTINGS_audio_workflow.obj
 0001:00017130       ?onMeetingStatusChanged@CSDKLoggedInUIWorkFlow@@UAEXW4MeetingStatus@ZOOMSDK@@H@Z 00418130 f   LoggedIn_sdk_controller_workflow.obj
 0001:00017160       ??0CSDKWithoutLoginStartJoinMeetingFlow@@QAE@XZ 00418160 f   LOGIN_join_meeting_only_workflow.obj
 0001:000171c0       ??1CSDKWithoutLoginStartJoinMeetingFlow@@UAE@XZ 004181c0 f   LOGIN_join_meeting_only_workflow.obj
 0001:00017250       ??_ECSDKWithoutLoginStartJoinMeetingFlow@@UAEPAXI@Z 00418250 f i LOGIN_join_meeting_only_workflow.obj
 0001:00017250       ??_GCSDKWithoutLoginStartJoinMeetingFlow@@UAEPAXI@Z 00418250 f i LOGIN_join_meeting_only_workflow.obj
 0001:00017280       ?IsMeetingServiceReady@CSDKWithoutLoginStartJoinMeetingFlow@@QAE_NXZ 00418280 f   LOGIN_join_meeting_only_workflow.obj
 0001:000172e0       ?JoinMeeting@CSDKWithoutLoginStartJoinMeetingFlow@@QAE?AW4SDKError@ZOOMSDK@@AAUtagJoinParam@3@@Z 004182e0 f   LOGIN_join_meeting_only_workflow.obj
 0001:000173d0       ??0CSDKLoginWithEmailFlow@@QAE@XZ 004183d0 f   LOGIN_login_with_email_workflow.obj
 0001:00017400       ??1CSDKLoginWithEmailFlow@@UAE@XZ 00418400 f   LOGIN_login_with_email_workflow.obj
 0001:00017420       ??_ECSDKLoginWithEmailFlow@@UAEPAXI@Z 00418420 f i LOGIN_login_with_email_workflow.obj
 0001:00017420       ??_GCSDKLoginWithEmailFlow@@UAEPAXI@Z 00418420 f i LOGIN_login_with_email_workflow.obj
 0001:00017450       ?LogOut@CSDKLoginWithEmailFlow@@QAE?AW4SDKError@ZOOMSDK@@XZ 00418450 f   LOGIN_login_with_email_workflow.obj
 0001:000174b0       ?Login@CSDKLoginWithSSOFlow@@QAE?AW4SDKError@ZOOMSDK@@AAUtagLoginParam@3@@Z 004184b0 f   LOGIN_login_with_sso_workflow.obj
 0001:000174b0       ?Login@CSDKLoginWithEmailFlow@@QAE?AW4SDKError@ZOOMSDK@@AAUtagLoginParam@3@@Z 004184b0 f   LOGIN_login_with_email_workflow.obj
 0001:00017510       ??0CSDKLoginWithSSOFlow@@QAE@XZ 00418510 f   LOGIN_login_with_sso_workflow.obj
 0001:00017540       ??1CSDKLoginWithSSOFlow@@UAE@XZ 00418540 f   LOGIN_login_with_sso_workflow.obj
 0001:00017560       ??_GCSDKLoginWithSSOFlow@@UAEPAXI@Z 00418560 f i LOGIN_login_with_sso_workflow.obj
 0001:00017560       ??_ECSDKLoginWithSSOFlow@@UAEPAXI@Z 00418560 f i LOGIN_login_with_sso_workflow.obj
 0001:00017590       ??0CSDKRestAPIUserWorkFlow@@QAE@XZ 00418590 f   LOGIN_restapi_without_login_workflow.obj
 0001:000175d0       ??1CSDKRestAPIUserWorkFlow@@UAE@XZ 004185d0 f   LOGIN_restapi_without_login_workflow.obj
 0001:00017640       ??_GCSDKRestAPIUserWorkFlow@@UAEPAXI@Z 00418640 f i LOGIN_restapi_without_login_workflow.obj
 0001:00017640       ??_ECSDKRestAPIUserWorkFlow@@UAEPAXI@Z 00418640 f i LOGIN_restapi_without_login_workflow.obj
 0001:00017670       ?RestAPIStartMeeting@CSDKRestAPIUserWorkFlow@@QAE?AW4SDKError@ZOOMSDK@@AAUtagStartParam@3@@Z 00418670 f   LOGIN_restapi_without_login_workflow.obj
 0001:00017720       ?onMeetingParameterNotification@CSDKRestAPIUserWorkFlow@@UAEXPBUtagMeetingParameter@ZOOMSDK@@@Z 00418720 f   LOGIN_restapi_without_login_workflow.obj
 0001:00017720       ?onComputerCamDeviceChanged@CSDKVideoSettingsWorkFlow@@UAEXPAV?$IList@PAVICameraInfo@ZOOMSDK@@@ZOOMSDK@@@Z 00418720 f   SETTINGS_video_workflow.obj
 0001:00017750       ?onMeetingSecureKeyNotification@CSDKRestAPIUserWorkFlow@@UAEXPBDHPAVIMeetingExternalSecureKeyHandler@ZOOMSDK@@@Z 00418750 f   LOGIN_restapi_without_login_workflow.obj
 0001:00017790       ??0CSDKJoinMeetingOnlyFlowUIEvent@@QAE@XZ 00418790 f i LOGIN_sdk_login_UI.obj
 0001:000177b0       ??0CSDKLoginCBHandler@@QAE@XZ 004187b0 f   LOGIN_sdk_login_UI.obj
 0001:000177e0       ??0CSDKLoginUIMgr@@QAE@XZ  004187e0 f   LOGIN_sdk_login_UI.obj
 0001:00017970       ??0CSDKLoginWithEmailUIGroup@@QAE@XZ 00418970 f   LOGIN_sdk_login_UI.obj
 0001:000179e0       ??0CSDKLoginWithSSOUIGroup@@QAE@XZ 004189e0 f   LOGIN_sdk_login_UI.obj
 0001:00017a40       ??0CSDKRestAPIUserUIEvent@@QAE@XZ 00418a40 f i LOGIN_sdk_login_UI.obj
 0001:00017a60       ??0CSDKRestAPIUserUIGroup@@QAE@XZ 00418a60 f   LOGIN_sdk_login_UI.obj
 0001:00017ae0       ??0CSDKWithoutLoginStartJoinMeetingUIGroup@@QAE@XZ 00418ae0 f   LOGIN_sdk_login_UI.obj
 0001:00017b60       ??0tagLoginParam@ZOOMSDK@@QAE@XZ 00418b60 f i LOGIN_sdk_login_UI.obj
 0001:00017b90       ??1CSDKLoginCBHandler@@UAE@XZ 00418b90 f   LOGIN_sdk_login_UI.obj
 0001:00017bf0       ??1CSDKLoginUIMgr@@UAE@XZ  00418bf0 f   LOGIN_sdk_login_UI.obj
 0001:00017d50       ??1CSDKLoginWithEmailUIGroup@@UAE@XZ 00418d50 f   LOGIN_sdk_login_UI.obj
 0001:00017dc0       ??1CSDKLoginWithSSOUIGroup@@UAE@XZ 00418dc0 f   LOGIN_sdk_login_UI.obj
 0001:00017e20       ??1CSDKRestAPIUserUIGroup@@UAE@XZ 00418e20 f   LOGIN_sdk_login_UI.obj
 0001:00017e90       ??1CSDKWithoutLoginStartJoinMeetingUIGroup@@UAE@XZ 00418e90 f   LOGIN_sdk_login_UI.obj
 0001:00017f00       ??_ECSDKLoginCBHandler@@UAEPAXI@Z 00418f00 f i LOGIN_sdk_login_UI.obj
 0001:00017f00       ??_GCSDKLoginCBHandler@@UAEPAXI@Z 00418f00 f i LOGIN_sdk_login_UI.obj
 0001:00017f30       ??_ECSDKLoginUIMgr@@UAEPAXI@Z 00418f30 f i LOGIN_sdk_login_UI.obj
 0001:00017f30       ??_GCSDKLoginUIMgr@@UAEPAXI@Z 00418f30 f i LOGIN_sdk_login_UI.obj
 0001:00017f70       ??_ECSDKLoginWithEmailUIGroup@@UAEPAXI@Z 00418f70 f i LOGIN_sdk_login_UI.obj
 0001:00017f70       ??_GCSDKLoginWithEmailUIGroup@@UAEPAXI@Z 00418f70 f i LOGIN_sdk_login_UI.obj
 0001:00017fa0       ??_ECSDKLoginWithSSOUIGroup@@UAEPAXI@Z 00418fa0 f i LOGIN_sdk_login_UI.obj
 0001:00017fa0       ??_GCSDKLoginWithSSOUIGroup@@UAEPAXI@Z 00418fa0 f i LOGIN_sdk_login_UI.obj
 0001:00017fd0       ??_ECSDKRestAPIUserUIGroup@@UAEPAXI@Z 00418fd0 f i LOGIN_sdk_login_UI.obj
 0001:00017fd0       ??_GCSDKRestAPIUserUIGroup@@UAEPAXI@Z 00418fd0 f i LOGIN_sdk_login_UI.obj
 0001:00018000       ??_GCSDKWithoutLoginStartJoinMeetingUIGroup@@UAEPAXI@Z 00419000 f i LOGIN_sdk_login_UI.obj
 0001:00018000       ??_ECSDKWithoutLoginStartJoinMeetingUIGroup@@UAEPAXI@Z 00419000 f i LOGIN_sdk_login_UI.obj
 0001:00018030       ??_GCZoomHttpRequestHelper@@QAEPAXI@Z 00419030 f i LOGIN_sdk_login_UI.obj
 0001:00018070       ??_GzoomHmacSHA256@@QAEPAXI@Z 00419070 f i LOGIN_sdk_login_UI.obj
 0001:000180b0       ?ChangeUIforJoinFailed@CSDKLoginUIMgr@@QAEXXZ 004190b0 f   LOGIN_sdk_login_UI.obj
 0001:00018100       ?ChangeUIforLoginFailed@CSDKLoginUIMgr@@QAEXXZ 00419100 f   LOGIN_sdk_login_UI.obj
 0001:00018160       ?DoLoginWithEmailBtnClick@CSDKLoginWithEmailUIGroup@@QAEXXZ 00419160 f   LOGIN_sdk_login_UI.obj
 0001:00018360       ?DoLoginWithSSOBtnClick@CSDKLoginWithSSOUIGroup@@QAEXXZ 00419360 f   LOGIN_sdk_login_UI.obj
 0001:000184f0       ?DoWithoutLoginStartJoinMeetingBtnClick@CSDKWithoutLoginStartJoinMeetingUIGroup@@QAEXXZ 004194f0 f   LOGIN_sdk_login_UI.obj
 0001:000188e0       ?DoWithoutLoginStartMeetingBtnClick@CSDKRestAPIUserUIGroup@@QAEXXZ 004198e0 f   LOGIN_sdk_login_UI.obj
 0001:00019080       ?GetAppEvent@CSDKLoginUIMgr@@QAEPAVCSDKDemoAppEvent@@XZ 0041a080 f   LOGIN_sdk_login_UI.obj
 0001:000190a0       ?GetSDKURLUserID@CZoomHttpRequestHelper@@QAEPB_WXZ 0041a0a0 f i LOGIN_sdk_login_UI.obj
 0001:000190c0       ?GetSDKURLUserToken@CZoomHttpRequestHelper@@QAEPB_WXZ 0041a0c0 f i LOGIN_sdk_login_UI.obj
 0001:000190e0       ?GetSDKURLZakToken@CZoomHttpRequestHelper@@QAEPB_WXZ 0041a0e0 f i LOGIN_sdk_login_UI.obj
 0001:00019100       ?GetSDKUserPMI@CZoomHttpRequestHelper@@QAE?B_KXZ 0041a100 f i LOGIN_sdk_login_UI.obj
 0001:00019120       ?GetSkinRes@CSDKLoginUIMgr@@UAEIXZ 0041a120 f i LOGIN_sdk_login_UI.obj
 0001:00019130       ?HandleMessage@CSDKLoginUIMgr@@UAEJIIJ@Z 0041a130 f   LOGIN_sdk_login_UI.obj
 0001:00019330       ?Hide@CAuthSDKUIGroup@@QAEXXZ 0041a330 f   sdk_init_auth_ui.obj
 0001:00019330       ?Hide@CSDKLoginWithEmailUIGroup@@QAEXXZ 0041a330 f   LOGIN_sdk_login_UI.obj
 0001:00019330       ?Hide@CSDKLoginWithSSOUIGroup@@QAEXXZ 0041a330 f   LOGIN_sdk_login_UI.obj
 0001:00019330       ?Hide@CSDKWithoutLoginStartJoinMeetingUIGroup@@QAEXXZ 0041a330 f   LOGIN_sdk_login_UI.obj
 0001:00019330       ?Hide@CInitSDKUIGroup@@QAEXXZ 0041a330 f   sdk_init_auth_ui.obj
 0001:00019330       ?Hide@CSDKRestAPIUserUIGroup@@QAEXXZ 0041a330 f   LOGIN_sdk_login_UI.obj
 0001:00019330       ?Hide@CSDKGeneralSettingsUIGroup@@QAEXXZ 0041a330 f   settings_ui.obj
 0001:00019330       ?Hide@CSDKRecordingSettingsUIGroup@@QAEXXZ 0041a330 f   settings_ui.obj
 0001:00019360       ?InitWindow@CSDKLoginUIMgr@@UAEXXZ 0041a360 f   LOGIN_sdk_login_UI.obj
 0001:00019650       ?InitWindow@CSDKLoginWithEmailUIGroup@@QAEXAAVCPaintManagerUI@DuiLib@@PAVCSDKLoginUIMgr@@@Z 0041a650 f   LOGIN_sdk_login_UI.obj
 0001:000196f0       ?InitWindow@CSDKLoginWithSSOUIGroup@@QAEXAAVCPaintManagerUI@DuiLib@@PAVCSDKLoginUIMgr@@@Z 0041a6f0 f   LOGIN_sdk_login_UI.obj
 0001:00019770       ?InitWindow@CSDKRestAPIUserUIGroup@@QAEXAAVCPaintManagerUI@DuiLib@@PAVCSDKLoginUIMgr@@@Z 0041a770 f   LOGIN_sdk_login_UI.obj
 0001:00019850       ?InitWindow@CSDKWithoutLoginStartJoinMeetingUIGroup@@QAEXAAVCPaintManagerUI@DuiLib@@PAVCSDKLoginUIMgr@@@Z 0041a850 f   LOGIN_sdk_login_UI.obj
 0001:000198f0       ?LogOut@CSDKLoginUIMgr@@QAE_NXZ 0041a8f0 f   LOGIN_sdk_login_UI.obj
 0001:00019910       ?LogOut@CSDKLoginWithEmailUIGroup@@QAE_NXZ 0041a910 f   LOGIN_sdk_login_UI.obj
 0001:00019940       ?Notify@CSDKLoginUIMgr@@UAEXAAUtagTNotifyUI@DuiLib@@@Z 0041a940 f   LOGIN_sdk_login_UI.obj
 0001:00019af0       ?Notify@CSDKLoginWithEmailUIGroup@@QAEXAAUtagTNotifyUI@DuiLib@@@Z 0041aaf0 f   LOGIN_sdk_login_UI.obj
 0001:00019b50       ?Notify@CSDKLoginWithSSOUIGroup@@QAEXAAUtagTNotifyUI@DuiLib@@@Z 0041ab50 f   LOGIN_sdk_login_UI.obj
 0001:00019bb0       ?Notify@CSDKRestAPIUserUIGroup@@QAEXAAUtagTNotifyUI@DuiLib@@@Z 0041abb0 f   LOGIN_sdk_login_UI.obj
 0001:00019c10       ?Notify@CSDKWithoutLoginStartJoinMeetingUIGroup@@QAEXAAUtagTNotifyUI@DuiLib@@@Z 0041ac10 f   LOGIN_sdk_login_UI.obj
 0001:00019c70       ?NotifyAuthDone@CSDKLoginUIMgr@@QAEXXZ 0041ac70 f   LOGIN_sdk_login_UI.obj
 0001:00019cc0       ?OnClose@CSDKLoginUIMgr@@QAEJIIJAAH@Z 0041acc0 f   LOGIN_sdk_login_UI.obj
 0001:00019d00       ?OnDestroy@CSDKLoginUIMgr@@QAEJIIJAAH@Z 0041ad00 f   LOGIN_sdk_login_UI.obj
 0001:00019d50       ?SetCurrentPage@CSDKLoginUIMgr@@QAEXPAVCVerticalLayoutUI@DuiLib@@@Z 0041ad50 f i LOGIN_sdk_login_UI.obj
 0001:00019d70       ?SetEvent@CSDKLoginUIMgr@@QAEXPAVCSDKDemoAppEvent@@@Z 0041ad70 f   LOGIN_sdk_login_UI.obj
 0001:00019d90       ?SetUIEvent@CSDKLoginCBHandler@@QAEXPAVCSDKLoginUIMgr@@@Z 0041ad90 f   LOGIN_sdk_login_UI.obj
 0001:00019de0       ?Show@CSDKLoginWithEmailUIGroup@@QAEXXZ 0041ade0 f   LOGIN_sdk_login_UI.obj
 0001:00019e70       ?Show@CSDKLoginWithSSOUIGroup@@QAEXXZ 0041ae70 f   LOGIN_sdk_login_UI.obj
 0001:00019f00       ?Show@CSDKRestAPIUserUIGroup@@QAEXXZ 0041af00 f   LOGIN_sdk_login_UI.obj
 0001:00019f90       ?Show@CSDKWithoutLoginStartJoinMeetingUIGroup@@QAEXXZ 0041af90 f   LOGIN_sdk_login_UI.obj
 0001:0001a020       ?ShowErrorMessage@CSDKLoginUIMgr@@QAEXPB_W@Z 0041b020 f   LOGIN_sdk_login_UI.obj
 0001:0001a050       ?SwitchToPage@CSDKLoginUIMgr@@QAEXW4loginTabPage@@@Z 0041b050 f   LOGIN_sdk_login_UI.obj
 0001:0001a100       ?SwitchToWaitingPage@CSDKLoginUIMgr@@QAEXPB_W_N@Z 0041b100 f   LOGIN_sdk_login_UI.obj
 0001:0001a230       ?UninitWindow@CSDKLoginWithSSOUIGroup@@QAEXXZ 0041b230 f   LOGIN_sdk_login_UI.obj
 0001:0001a250       ?UninitWindow@CSDKRestAPIUserUIGroup@@QAEXXZ 0041b250 f   LOGIN_sdk_login_UI.obj
 0001:0001a280       ?UninitWindow@CSDKWithoutLoginStartJoinMeetingUIGroup@@QAEXXZ 0041b280 f   LOGIN_sdk_login_UI.obj
 0001:0001a2b0       ?onLoginRet@CSDKLoginCBHandler@@UAEXW4LOGINSTATUS@ZOOMSDK@@PAVIAccountInfo@3@@Z 0041b2b0 f   LOGIN_sdk_login_UI.obj
 0001:0001a3d0       ?onMeetingStatusChanged@CSDKRestAPIUserUIGroup@@UAEXW4MeetingStatus@ZOOMSDK@@H@Z 0041b3d0 f   LOGIN_sdk_login_UI.obj
 0001:0001a4d0       ?onMeetingStatusChanged@CSDKWithoutLoginStartJoinMeetingUIGroup@@UAEXW4MeetingStatus@ZOOMSDK@@H@Z 0041b4d0 f   LOGIN_sdk_login_UI.obj
 0001:0001a5e0       ??0CSDKMessInfo@@AAE@XZ    0041b5e0 f   mess_info.obj
 0001:0001a660       ??1CSDKMessInfo@@AAE@XZ    0041b660 f   mess_info.obj
 0001:0001a6d0       ?Cleanup@CSDKMessInfo@@QAEXXZ 0041b6d0 f   mess_info.obj
 0001:0001a710       ?GetErrorCode@CSDKMessInfo@@QAEHXZ 0041b710 f   mess_info.obj
 0001:0001a750       ?GetErrorDescription@CSDKMessInfo@@QAEPB_WXZ 0041b750 f   mess_info.obj
 0001:0001a7a0       ?GetErrorMessInfo@CSDKMessInfo@@QAEPA_WXZ 0041b7a0 f   mess_info.obj
 0001:0001a810       ?GetErrorType@CSDKMessInfo@@QAEPB_WXZ 0041b810 f   mess_info.obj
 0001:0001a8d0       ?GetInst@CSDKMessInfo@@SAAAV1@XZ 0041b8d0 f   mess_info.obj
 0001:0001a970       ?Init@CSDKMessInfo@@QAE_NXZ 0041b970 f   mess_info.obj
 0001:0001a9e0       ??0CMoreFeaturesUIMgr@@QAE@HHPAVCCustomizeInMeetingUIMgr@@@Z 0041b9e0 f   more_features_ui.obj
 0001:0001aaf0       ??1CMoreFeaturesUIMgr@@QAE@XZ 0041baf0 f   more_features_ui.obj
 0001:0001abc0       ?AddElement@CMoreFeaturesUIMgr@@QAE_NPB_W@Z 0041bbc0 f   more_features_ui.obj
 0001:0001ad10       ?DestroyUtilWindow@CMoreFeaturesUIMgr@@AAEXXZ 0041bd10 f   more_features_ui.obj
 0001:0001ad70       ?DoClickLowerAllHandsBtn@CMoreFeaturesUIMgr@@AAEXXZ 0041bd70 f   more_features_ui.obj
 0001:0001adb0       ?DoClickMuteAllBtn@CMoreFeaturesUIMgr@@AAEXXZ 0041bdb0 f   more_features_ui.obj
 0001:0001ae10       ?DoClickMuteOnEntry@CMoreFeaturesUIMgr@@AAEX_N@Z 0041be10 f   more_features_ui.obj
 0001:0001ae50       ?DoClickRaiseHandBtn@CMoreFeaturesUIMgr@@AAEXXZ 0041be50 f   more_features_ui.obj
 0001:0001ae90       ?DoClickUnmuteAllBtn@CMoreFeaturesUIMgr@@AAEXXZ 0041be90 f   more_features_ui.obj
 0001:0001aef0       ?DoUtilWindowShow@CMoreFeaturesUIMgr@@AAEXPB_WW4FEATURE_TYPE@@@Z 0041bef0 f   more_features_ui.obj
 0001:0001b030       ?GetSkinRes@CMoreFeaturesUIMgr@@UAEIXZ 0041c030 f i more_features_ui.obj
 0001:0001b030       ?GetSkinRes@CMoreMenuUIMgr@@UAEIXZ 0041c030 f i more_menu_ui.obj
 0001:0001b040       ?HandleMessage@CMoreFeaturesUIMgr@@UAEJIIJ@Z 0041c040 f   more_features_ui.obj
 0001:0001b230       ?InitWindow@CMoreFeaturesUIMgr@@UAEXXZ 0041c230 f   more_features_ui.obj
 0001:0001b280       ?Notify@CMoreFeaturesUIMgr@@UAEXAAUtagTNotifyUI@DuiLib@@@Z 0041c280 f   more_features_ui.obj
 0001:0001b600       ?RepaintClient@CMoreFeaturesUIMgr@@QAE_NHH@Z 0041c600 f   more_features_ui.obj
 0001:0001b6e0       ?ShowErrorMsg@CMoreFeaturesUIMgr@@AAEXPB_W@Z 0041c6e0 f   more_features_ui.obj
 0001:0001b700       ?UpdateUI@CMoreFeaturesUIMgr@@AAEXXZ 0041c700 f   more_features_ui.obj
 0001:0001b840       ?onCoHostChangeNotification@CMoreFeaturesUIMgr@@UAEXI_N@Z 0041c840 f   more_features_ui.obj
 0001:0001b920       ?onHostChangeNotification@CMoreFeaturesUIMgr@@UAEXI@Z 0041c920 f   more_features_ui.obj
 0001:0001ba00       ?onLowOrRaiseHandStatusChanged@CMoreFeaturesUIMgr@@UAEX_NI@Z 0041ca00 f   more_features_ui.obj
 0001:0001ba00       ?onUserNameChanged@CMoreFeaturesUIMgr@@UAEXIPB_W@Z 0041ca00 f   more_features_ui.obj
 0001:0001ba30       ?AssignCoHost@CMoreFeaturesWorkflow@@QAE?AW4SDKError@ZOOMSDK@@I@Z 0041ca30 f   more_features_workflow.obj
 0001:0001ba90       ?ChangeUserName@CMoreFeaturesWorkflow@@QAE?AW4SDKError@ZOOMSDK@@IPB_W_N@Z 0041ca90 f   more_features_workflow.obj
 0001:0001bad0       ?EnableMuteOnEntry@CMoreFeaturesWorkflow@@QAE?AW4SDKError@ZOOMSDK@@_N@Z 0041cad0 f   more_features_workflow.obj
 0001:0001bb10       ?ExpelUser@CMoreFeaturesWorkflow@@QAE?AW4SDKError@ZOOMSDK@@I@Z 0041cb10 f   more_features_workflow.obj
 0001:0001bb40       ?LowerAllHands@CMoreFeaturesWorkflow@@QAE?AW4SDKError@ZOOMSDK@@XZ 0041cb40 f   more_features_workflow.obj
 0001:0001bb70       ?LowerHand@CMoreFeaturesWorkflow@@QAE?AW4SDKError@ZOOMSDK@@I@Z 0041cb70 f   more_features_workflow.obj
 0001:0001bba0       ?MakeHost@CMoreFeaturesWorkflow@@QAE?AW4SDKError@ZOOMSDK@@I@Z 0041cba0 f   more_features_workflow.obj
 0001:0001bbd0       ?MuteAll@CMoreFeaturesWorkflow@@QAE_NPAVCSDKUserList@@@Z 0041cbd0 f   more_features_workflow.obj
 0001:0001bc20       ?MuteAudio@CMoreFeaturesWorkflow@@QAE?AW4SDKError@ZOOMSDK@@I_N@Z 0041cc20 f   more_features_workflow.obj
 0001:0001bc70       ?PinVideo@CMoreFeaturesWorkflow@@QAE?AW4SDKError@ZOOMSDK@@_N0I@Z 0041cc70 f   more_features_workflow.obj
 0001:0001bcb0       ?RaiseHand@CMoreFeaturesWorkflow@@QAE?AW4SDKError@ZOOMSDK@@XZ 0041ccb0 f   more_features_workflow.obj
 0001:0001bce0       ?ReclaimHost@CMoreFeaturesWorkflow@@QAE?AW4SDKError@ZOOMSDK@@XZ 0041cce0 f   more_features_workflow.obj
 0001:0001bd50       ?RevokeCoHost@CMoreFeaturesWorkflow@@QAE?AW4SDKError@ZOOMSDK@@I@Z 0041cd50 f   more_features_workflow.obj
 0001:0001bd80       ?SpotlightVideo@CMoreFeaturesWorkflow@@QAE?AW4SDKError@ZOOMSDK@@_NI@Z 0041cd80 f   more_features_workflow.obj
 0001:0001bdc0       ?StartAttendeeVideo@CMoreFeaturesWorkflow@@QAE?AW4SDKError@ZOOMSDK@@I@Z 0041cdc0 f   more_features_workflow.obj
 0001:0001be20       ?StopAttendeeVideo@CMoreFeaturesWorkflow@@QAE?AW4SDKError@ZOOMSDK@@I@Z 0041ce20 f   more_features_workflow.obj
 0001:0001be80       ?UnMuteAll@CMoreFeaturesWorkflow@@QAE_NPAVCSDKUserList@@@Z 0041ce80 f   more_features_workflow.obj
 0001:0001bed0       ?UnMuteAudio@CMoreFeaturesWorkflow@@QAE?AW4SDKError@ZOOMSDK@@I@Z 0041ced0 f   more_features_workflow.obj
 0001:0001bf10       ??0CMoreMenuUIMgr@@QAE@HHPAVCCustomizeInMeetingUIMgr@@@Z 0041cf10 f   more_menu_ui.obj
 0001:0001bfe0       ??1CMoreMenuUIMgr@@QAE@XZ  0041cfe0 f   more_menu_ui.obj
 0001:0001c080       ??_GCInvitationUIMgr@@QAEPAXI@Z 0041d080 f i more_menu_ui.obj
 0001:0001c0c0       ??_GCMoreFeaturesUIMgr@@QAEPAXI@Z 0041d0c0 f i more_menu_ui.obj
 0001:0001c100       ?AddElement@CMoreMenuUIMgr@@QAE_NPB_W@Z 0041d100 f   more_menu_ui.obj
 0001:0001c250       ?DestroyClosedCaptionWnd@CMoreMenuUIMgr@@AAEXXZ 0041d250 f   more_menu_ui.obj
 0001:0001c2e0       ?DestroyInvitationWnd@CMoreMenuUIMgr@@AAEXXZ 0041d2e0 f   more_menu_ui.obj
 0001:0001c370       ?DestroyMoreFeaturesWnd@CMoreMenuUIMgr@@AAEXXZ 0041d370 f   more_menu_ui.obj
 0001:0001c400       ?DoClickClosedCaptionBtn@CMoreMenuUIMgr@@AAEXXZ 0041d400 f   more_menu_ui.obj
 0001:0001c5e0       ?DoClickInviteBtn@CMoreMenuUIMgr@@AAEXXZ 0041d5e0 f   more_menu_ui.obj
 0001:0001c6e0       ?DoClickMoreFeaturesBtn@CMoreMenuUIMgr@@AAEXXZ 0041d6e0 f   more_menu_ui.obj
 0001:0001c8a0       ?HandleMessage@CMoreMenuUIMgr@@UAEJIIJ@Z 0041d8a0 f   more_menu_ui.obj
 0001:0001cac0       ?HandleMoveAndResize@CMoreMenuUIMgr@@QAEXXZ 0041dac0 f   more_menu_ui.obj
 0001:0001caf0       ?HandleUserChange@CMoreMenuUIMgr@@QAEXXZ 0041daf0 f   more_menu_ui.obj
 0001:0001cb20       ?InitWindow@CMoreMenuUIMgr@@UAEXXZ 0041db20 f   more_menu_ui.obj
 0001:0001cce0       ?Notify@CMoreMenuUIMgr@@UAEXAAUtagTNotifyUI@DuiLib@@@Z 0041dce0 f   more_menu_ui.obj
 0001:0001d080       ?RepaintClient@CMoreMenuUIMgr@@QAE_NHH@Z 0041e080 f   more_menu_ui.obj
 0001:0001d1a0       ??0ParticipantPopMenu@@QAE@XZ 0041e1a0 f   ParticipantPopMenu.obj
 0001:0001d1e0       ??1ParticipantPopMenu@@QAE@XZ 0041e1e0 f   ParticipantPopMenu.obj
 0001:0001d210       ?OnClickMenuItem@ParticipantPopMenu@@QAEXH@Z 0041e210 f   ParticipantPopMenu.obj
 0001:0001d2a0       ?PopMenu@ParticipantPopMenu@@QAEXPAUHWND__@@ABUtagPOINT@@@Z 0041e2a0 f   ParticipantPopMenu.obj
 0001:0001d2d0       ?PopMenu@ParticipantPopMenu@@QAEXPAUHWND__@@HH@Z 0041e2d0 f   ParticipantPopMenu.obj
 0001:0001d310       ?SetUserID@ParticipantPopMenu@@QAEXI@Z 0041e310 f   ParticipantPopMenu.obj
 0001:0001d380       ??$?0$$V@?$_Compressed_pair@V?$allocator@U?$_Tree_node@PAVIMeetingChatCtrlEvent@ZOOMSDK@@PAX@std@@@std@@V?$_Tree_val@U?$_Tree_simple_types@PAVIMeetingChatCtrlEvent@ZOOMSDK@@@std@@@2@$00@std@@QAE@U_Zero_then_variadic_args_t@1@@Z 0041e380 f i sdk_util.obj
 0001:0001d380       ??$?0$$V@?$_Compressed_pair@V?$allocator@U?$_Tree_node@PAVIMeetingVideoCtrlEvent@ZOOMSDK@@PAX@std@@@std@@V?$_Tree_val@U?$_Tree_simple_types@PAVIMeetingVideoCtrlEvent@ZOOMSDK@@@std@@@2@$00@std@@QAE@U_Zero_then_variadic_args_t@1@@Z 0041e380 f i sdk_util.obj
 0001:0001d380       ??$?0$$V@?$_Compressed_pair@V?$allocator@U?$_Tree_node@PAVIAuthServiceEvent@ZOOMSDK@@PAX@std@@@std@@V?$_Tree_val@U?$_Tree_simple_types@PAVIAuthServiceEvent@ZOOMSDK@@@std@@@2@$00@std@@QAE@U_Zero_then_variadic_args_t@1@@Z 0041e380 f i sdk_util.obj
 0001:0001d380       ??$?0$$V@?$_Compressed_pair@V?$allocator@U?$_Tree_node@PAVIClosedCaptionControllerEvent@ZOOMSDK@@PAX@std@@@std@@V?$_Tree_val@U?$_Tree_simple_types@PAVIClosedCaptionControllerEvent@ZOOMSDK@@@std@@@2@$00@std@@QAE@U_Zero_then_variadic_args_t@1@@Z 0041e380 f i sdk_util.obj
 0001:0001d380       ??$?0$$V@?$_Compressed_pair@V?$allocator@U?$_List_node@HPAX@std@@@std@@V?$_List_val@U?$_List_simple_types@H@std@@@2@$00@std@@QAE@U_Zero_then_variadic_args_t@1@@Z 0041e380 f i participant_ui.obj
 0001:0001d380       ??$?0$$V@?$_Compressed_pair@V?$allocator@U?$_Tree_node@U?$pair@$$CBIPAVIUserInfo@ZOOMSDK@@@std@@PAX@std@@@std@@V?$_Tree_val@U?$_Tree_simple_types@U?$pair@$$CBIPAVIUserInfo@ZOOMSDK@@@std@@@std@@@2@$00@std@@QAE@U_Zero_then_variadic_args_t@1@@Z 0041e380 f i user_manager.obj
 0001:0001d380       ??$?0$$V@?$_Compressed_pair@V?$allocator@U?$_Tree_node@PAVISDKInMeetingServiceMgrEvent@@PAX@std@@@std@@V?$_Tree_val@U?$_Tree_simple_types@PAVISDKInMeetingServiceMgrEvent@@@std@@@2@$00@std@@QAE@U_Zero_then_variadic_args_t@1@@Z 0041e380 f i sdk_util.obj
 0001:0001d380       ??$?0$$V@?$_Compressed_pair@V?$allocator@U?$_Tree_node@PAVIMeetingServiceEvent@ZOOMSDK@@PAX@std@@@std@@V?$_Tree_val@U?$_Tree_simple_types@PAVIMeetingServiceEvent@ZOOMSDK@@@std@@@2@$00@std@@QAE@U_Zero_then_variadic_args_t@1@@Z 0041e380 f i sdk_util.obj
 0001:0001d380       ??$?0$$V@?$_Compressed_pair@V?$allocator@U?$_Tree_node@PAVIPreMeetingServiceEvent@ZOOMSDK@@PAX@std@@@std@@V?$_Tree_val@U?$_Tree_simple_types@PAVIPreMeetingServiceEvent@ZOOMSDK@@@std@@@2@$00@std@@QAE@U_Zero_then_variadic_args_t@1@@Z 0041e380 f i sdk_util.obj
 0001:0001d380       ??$?0$$V@?$_Compressed_pair@V?$allocator@U?$_Tree_node@PAVIMeetingParticipantsCtrlEvent@ZOOMSDK@@PAX@std@@@std@@V?$_Tree_val@U?$_Tree_simple_types@PAVIMeetingParticipantsCtrlEvent@ZOOMSDK@@@std@@@2@$00@std@@QAE@U_Zero_then_variadic_args_t@1@@Z 0041e380 f i sdk_util.obj
 0001:0001d3a0       ??$MakeDelegate@VCPUserItemEx@@V1@@DuiLib@@YA?AV?$CDelegate@VCPUserItemEx@@V1@@0@PAVCPUserItemEx@@P82@AE_NPAX@Z@Z 0041e3a0 f i participant_ui.obj
 0001:0001d3d0       ??$_Buynode@ABH@?$_List_buy@HV?$allocator@H@std@@@std@@QAEPAU?$_List_node@HPAX@1@PAU21@0ABH@Z 0041e3d0 f i participant_ui.obj
 0001:0001d4a0       ??$_Freenode0@V?$allocator@U?$_List_node@HPAX@std@@@std@@@?$_List_node@HPAX@std@@SAXAAV?$allocator@U?$_List_node@HPAX@std@@@1@PAU01@@Z 0041e4a0 f i participant_ui.obj
 0001:0001d520       ??$_Get_size_of_n@$0M@@std@@YAII@Z 0041e520 f i participant_ui.obj
 0001:0001d550       ??$_Insert@ABH@?$list@HV?$allocator@H@std@@@std@@QAEXV?$_List_unchecked_const_iterator@V?$_List_val@U?$_List_simple_types@H@std@@@std@@U_Iterator_base0@2@@1@ABH@Z 0041e550 f i participant_ui.obj
 0001:0001d5b0       ??0?$CDelegate@VCPUserItemEx@@V1@@DuiLib@@QAE@ABV01@@Z 0041e5b0 f i participant_ui.obj
 0001:0001d5e0       ??0?$CDelegate@VCPUserItemEx@@V1@@DuiLib@@QAE@PAVCPUserItemEx@@P82@AE_NPAX@Z@Z 0041e5e0 f i participant_ui.obj
 0001:0001d610       ??0?$_List_alloc@U?$_List_base_types@HV?$allocator@H@std@@@std@@@std@@QAE@XZ 0041e610 f i participant_ui.obj
 0001:0001d650       ??0?$_List_buy@HV?$allocator@H@std@@@std@@QAE@XZ 0041e650 f i participant_ui.obj
 0001:0001d670       ??0?$_Tree_const_iterator@V?$_Tree_val@U?$_Tree_simple_types@PAVIMeetingServiceEvent@ZOOMSDK@@@std@@@std@@@std@@QAE@PAU?$_Tree_node@PAVIMeetingServiceEvent@ZOOMSDK@@PAX@1@PBV?$_Tree_val@U?$_Tree_simple_types@PAVIMeetingServiceEvent@ZOOMSDK@@@std@@@1@@Z 0041e670 f i sdk_util.obj
 0001:0001d670       ??0?$_Tree_const_iterator@V?$_Tree_val@U?$_Tree_simple_types@PAVIPreMeetingServiceEvent@ZOOMSDK@@@std@@@std@@@std@@QAE@PAU?$_Tree_node@PAVIPreMeetingServiceEvent@ZOOMSDK@@PAX@1@PBV?$_Tree_val@U?$_Tree_simple_types@PAVIPreMeetingServiceEvent@ZOOMSDK@@@std@@@1@@Z 0041e670 f i sdk_util.obj
 0001:0001d670       ??0?$_Tree_const_iterator@V?$_Tree_val@U?$_Tree_simple_types@PAVIClosedCaptionControllerEvent@ZOOMSDK@@@std@@@std@@@std@@QAE@PAU?$_Tree_node@PAVIClosedCaptionControllerEvent@ZOOMSDK@@PAX@1@PBV?$_Tree_val@U?$_Tree_simple_types@PAVIClosedCaptionControllerEvent@ZOOMSDK@@@std@@@1@@Z 0041e670 f i sdk_util.obj
 0001:0001d670       ??0?$_Tree_const_iterator@V?$_Tree_val@U?$_Tree_simple_types@PAVIAuthServiceEvent@ZOOMSDK@@@std@@@std@@@std@@QAE@PAU?$_Tree_node@PAVIAuthServiceEvent@ZOOMSDK@@PAX@1@PBV?$_Tree_val@U?$_Tree_simple_types@PAVIAuthServiceEvent@ZOOMSDK@@@std@@@1@@Z 0041e670 f i sdk_util.obj
 0001:0001d670       ??0?$_Vector_iterator@V?$_Vector_val@U?$_Simple_types@PAVIUserInfo@ZOOMSDK@@@std@@@std@@@std@@QAE@PAPAVIUserInfo@ZOOMSDK@@PBU_Container_base0@1@@Z 0041e670 f i user_manager.obj
 0001:0001d670       ??0?$_List_const_iterator@V?$_List_val@U?$_List_simple_types@H@std@@@std@@@std@@QAE@PAU?$_List_node@HPAX@1@PBV?$_List_val@U?$_List_simple_types@H@std@@@1@@Z 0041e670 f i participant_ui.obj
 0001:0001d670       ??0?$_Tree_const_iterator@V?$_Tree_val@U?$_Tree_simple_types@PAVIMeetingVideoCtrlEvent@ZOOMSDK@@@std@@@std@@@std@@QAE@PAU?$_Tree_node@PAVIMeetingVideoCtrlEvent@ZOOMSDK@@PAX@1@PBV?$_Tree_val@U?$_Tree_simple_types@PAVIMeetingVideoCtrlEvent@ZOOMSDK@@@std@@@1@@Z 0041e670 f i sdk_util.obj
 0001:0001d670       ??0?$_Tree_const_iterator@V?$_Tree_val@U?$_Tree_simple_types@PAVIMeetingChatCtrlEvent@ZOOMSDK@@@std@@@std@@@std@@QAE@PAU?$_Tree_node@PAVIMeetingChatCtrlEvent@ZOOMSDK@@PAX@1@PBV?$_Tree_val@U?$_Tree_simple_types@PAVIMeetingChatCtrlEvent@ZOOMSDK@@@std@@@1@@Z 0041e670 f i sdk_util.obj
 0001:0001d670       ??0?$_Tree_const_iterator@V?$_Tree_val@U?$_Tree_simple_types@U?$pair@$$CBIPAVIUserInfo@ZOOMSDK@@@std@@@std@@@std@@@std@@QAE@PAU?$_Tree_node@U?$pair@$$CBIPAVIUserInfo@ZOOMSDK@@@std@@PAX@1@PBV?$_Tree_val@U?$_Tree_simple_types@U?$pair@$$CBIPAVIUserInfo@ZOOMSDK@@@std@@@std@@@1@@Z 0041e670 f i user_manager.obj
 0001:0001d670       ??0?$_List_unchecked_iterator@V?$_List_val@U?$_List_simple_types@H@std@@@std@@@std@@QAE@PAU?$_List_node@HPAX@1@PBV?$_List_val@U?$_List_simple_types@H@std@@@1@@Z 0041e670 f i participant_ui.obj
 0001:0001d670       ??0?$_Tree_const_iterator@V?$_Tree_val@U?$_Tree_simple_types@PAVIMeetingParticipantsCtrlEvent@ZOOMSDK@@@std@@@std@@@std@@QAE@PAU?$_Tree_node@PAVIMeetingParticipantsCtrlEvent@ZOOMSDK@@PAX@1@PBV?$_Tree_val@U?$_Tree_simple_types@PAVIMeetingParticipantsCtrlEvent@ZOOMSDK@@@std@@@1@@Z 0041e670 f i sdk_util.obj
 0001:0001d670       ??0?$_Tree_const_iterator@V?$_Tree_val@U?$_Tree_simple_types@PAVISDKInMeetingServiceMgrEvent@@@std@@@std@@@std@@QAE@PAU?$_Tree_node@PAVISDKInMeetingServiceMgrEvent@@PAX@1@PBV?$_Tree_val@U?$_Tree_simple_types@PAVISDKInMeetingServiceMgrEvent@@@std@@@1@@Z 0041e670 f i sdk_util.obj
 0001:0001d690       ??0?$_Tree_iterator@V?$_Tree_val@U?$_Tree_simple_types@U?$pair@$$CBIPAVIUserInfo@ZOOMSDK@@@std@@@std@@@std@@@std@@QAE@PAU?$_Tree_node@U?$pair@$$CBIPAVIUserInfo@ZOOMSDK@@@std@@PAX@1@PBV?$_Tree_val@U?$_Tree_simple_types@U?$pair@$$CBIPAVIUserInfo@ZOOMSDK@@@std@@@std@@@1@@Z 0041e690 f i user_manager.obj
 0001:0001d690       ??0?$_List_iterator@V?$_List_val@U?$_List_simple_types@H@std@@@std@@@std@@QAE@PAU?$_List_node@HPAX@1@PBV?$_List_val@U?$_List_simple_types@H@std@@@1@@Z 0041e690 f i participant_ui.obj
 0001:0001d6b0       ??0?$_Tree_unchecked_const_iterator@V?$_Tree_val@U?$_Tree_simple_types@U?$pair@$$CBIPAVIUserInfo@ZOOMSDK@@@std@@@std@@@std@@U_Iterator_base0@2@@std@@QAE@PAU?$_Tree_node@U?$pair@$$CBIPAVIUserInfo@ZOOMSDK@@@std@@PAX@1@PBV?$_Tree_val@U?$_Tree_simple_types@U?$pair@$$CBIPAVIUserInfo@ZOOMSDK@@@std@@@std@@@1@@Z 0041e6b0 f i user_manager.obj
 0001:0001d6b0       ??0?$_Tree_unchecked_const_iterator@V?$_Tree_val@U?$_Tree_simple_types@PAVIMeetingVideoCtrlEvent@ZOOMSDK@@@std@@@std@@U_Iterator_base0@2@@std@@QAE@PAU?$_Tree_node@PAVIMeetingVideoCtrlEvent@ZOOMSDK@@PAX@1@PBV?$_Tree_val@U?$_Tree_simple_types@PAVIMeetingVideoCtrlEvent@ZOOMSDK@@@std@@@1@@Z 0041e6b0 f i sdk_util.obj
 0001:0001d6b0       ??0?$_Tree_unchecked_const_iterator@V?$_Tree_val@U?$_Tree_simple_types@PAVIAuthServiceEvent@ZOOMSDK@@@std@@@std@@U_Iterator_base0@2@@std@@QAE@PAU?$_Tree_node@PAVIAuthServiceEvent@ZOOMSDK@@PAX@1@PBV?$_Tree_val@U?$_Tree_simple_types@PAVIAuthServiceEvent@ZOOMSDK@@@std@@@1@@Z 0041e6b0 f i sdk_util.obj
 0001:0001d6b0       ??0?$_Tree_unchecked_const_iterator@V?$_Tree_val@U?$_Tree_simple_types@PAVIClosedCaptionControllerEvent@ZOOMSDK@@@std@@@std@@U_Iterator_base0@2@@std@@QAE@PAU?$_Tree_node@PAVIClosedCaptionControllerEvent@ZOOMSDK@@PAX@1@PBV?$_Tree_val@U?$_Tree_simple_types@PAVIClosedCaptionControllerEvent@ZOOMSDK@@@std@@@1@@Z 0041e6b0 f i sdk_util.obj
 0001:0001d6b0       ??0?$_Vector_const_iterator@V?$_Vector_val@U?$_Simple_types@PAVIUserInfo@ZOOMSDK@@@std@@@std@@@std@@QAE@PAPAVIUserInfo@ZOOMSDK@@PBU_Container_base0@1@@Z 0041e6b0 f i user_manager.obj
 0001:0001d6b0       ??0?$_Tree_unchecked_const_iterator@V?$_Tree_val@U?$_Tree_simple_types@PAVIPreMeetingServiceEvent@ZOOMSDK@@@std@@@std@@U_Iterator_base0@2@@std@@QAE@PAU?$_Tree_node@PAVIPreMeetingServiceEvent@ZOOMSDK@@PAX@1@PBV?$_Tree_val@U?$_Tree_simple_types@PAVIPreMeetingServiceEvent@ZOOMSDK@@@std@@@1@@Z 0041e6b0 f i sdk_util.obj
 0001:0001d6b0       ??0?$_Tree_unchecked_const_iterator@V?$_Tree_val@U?$_Tree_simple_types@PAVIMeetingServiceEvent@ZOOMSDK@@@std@@@std@@U_Iterator_base0@2@@std@@QAE@PAU?$_Tree_node@PAVIMeetingServiceEvent@ZOOMSDK@@PAX@1@PBV?$_Tree_val@U?$_Tree_simple_types@PAVIMeetingServiceEvent@ZOOMSDK@@@std@@@1@@Z 0041e6b0 f i sdk_util.obj
 0001:0001d6b0       ??0?$_List_unchecked_const_iterator@V?$_List_val@U?$_List_simple_types@H@std@@@std@@U_Iterator_base0@2@@std@@QAE@PAU?$_List_node@HPAX@1@PBV?$_List_val@U?$_List_simple_types@H@std@@@1@@Z 0041e6b0 f i participant_ui.obj
 0001:0001d6b0       ??0?$_Tree_unchecked_const_iterator@V?$_Tree_val@U?$_Tree_simple_types@PAVIMeetingChatCtrlEvent@ZOOMSDK@@@std@@@std@@U_Iterator_base0@2@@std@@QAE@PAU?$_Tree_node@PAVIMeetingChatCtrlEvent@ZOOMSDK@@PAX@1@PBV?$_Tree_val@U?$_Tree_simple_types@PAVIMeetingChatCtrlEvent@ZOOMSDK@@@std@@@1@@Z 0041e6b0 f i sdk_util.obj
 0001:0001d6b0       ??0?$_Tree_unchecked_const_iterator@V?$_Tree_val@U?$_Tree_simple_types@PAVIMeetingParticipantsCtrlEvent@ZOOMSDK@@@std@@@std@@U_Iterator_base0@2@@std@@QAE@PAU?$_Tree_node@PAVIMeetingParticipantsCtrlEvent@ZOOMSDK@@PAX@1@PBV?$_Tree_val@U?$_Tree_simple_types@PAVIMeetingParticipantsCtrlEvent@ZOOMSDK@@@std@@@1@@Z 0041e6b0 f i sdk_util.obj
 0001:0001d6b0       ??0?$_Tree_unchecked_const_iterator@V?$_Tree_val@U?$_Tree_simple_types@PAVISDKInMeetingServiceMgrEvent@@@std@@@std@@U_Iterator_base0@2@@std@@QAE@PAU?$_Tree_node@PAVISDKInMeetingServiceMgrEvent@@PAX@1@PBV?$_Tree_val@U?$_Tree_simple_types@PAVISDKInMeetingServiceMgrEvent@@@std@@@1@@Z 0041e6b0 f i sdk_util.obj
 0001:0001d6e0       ??0?$list@HV?$allocator@H@std@@@std@@QAE@XZ 0041e6e0 f i participant_ui.obj
 0001:0001d700       ??0CPUserItemEx@@QAE@XZ    0041e700 f   participant_ui.obj
 0001:0001d7f0       ??0CParticipantUIMgr@@QAE@PAVCCustomizeInMeetingUIMgr@@@Z 0041e7f0 f   participant_ui.obj
 0001:0001d890       ??0CRect@@QAE@ABUtagRECT@@@Z 0041e890 f i participant_ui.obj
 0001:0001d8b0       ??0IDialogBuilderCallback@DuiLib@@QAE@XZ 0041e8b0 f i participant_ui.obj
 0001:0001d8d0       ??1?$CDelegate@VCPUserItemEx@@V1@@DuiLib@@UAE@XZ 0041e8d0 f i participant_ui.obj
 0001:0001d8f0       ??1?$_List_alloc@U?$_List_base_types@HV?$allocator@H@std@@@std@@@std@@QAE@XZ 0041e8f0 f i participant_ui.obj
 0001:0001d940       ??1?$_List_buy@HV?$allocator@H@std@@@std@@QAE@XZ 0041e940 f i participant_ui.obj
 0001:0001d960       ??1?$list@HV?$allocator@H@std@@@std@@QAE@XZ 0041e960 f i participant_ui.obj
 0001:0001d9b0       ??1CListContainerElementUI@DuiLib@@UAE@XZ 0041e9b0 f i participant_ui.obj
 0001:0001d9d0       ??1CPUserItemEx@@UAE@XZ    0041e9d0 f   participant_ui.obj
 0001:0001da70       ??1CParticipantUIMgr@@QAE@XZ 0041ea70 f   participant_ui.obj
 0001:0001db10       ??8?$_Tree_const_iterator@V?$_Tree_val@U?$_Tree_simple_types@PAVIMeetingServiceEvent@ZOOMSDK@@@std@@@std@@@std@@QBE_NABV01@@Z 0041eb10 f i sdk_util.obj
 0001:0001db10       ??8?$_Tree_unchecked_const_iterator@V?$_Tree_val@U?$_Tree_simple_types@PAVIMeetingVideoCtrlEvent@ZOOMSDK@@@std@@@std@@U_Iterator_base0@2@@std@@QBE_NABV01@@Z 0041eb10 f i sdk_util.obj
 0001:0001db10       ??8?$_Tree_const_iterator@V?$_Tree_val@U?$_Tree_simple_types@U?$pair@$$CBIPAVIUserInfo@ZOOMSDK@@@std@@@std@@@std@@@std@@QBE_NABV01@@Z 0041eb10 f i user_manager.obj
 0001:0001db10       ??8?$_Tree_unchecked_const_iterator@V?$_Tree_val@U?$_Tree_simple_types@PAVIClosedCaptionControllerEvent@ZOOMSDK@@@std@@@std@@U_Iterator_base0@2@@std@@QBE_NABV01@@Z 0041eb10 f i sdk_util.obj
 0001:0001db10       ??8?$_Tree_unchecked_const_iterator@V?$_Tree_val@U?$_Tree_simple_types@PAVIMeetingChatCtrlEvent@ZOOMSDK@@@std@@@std@@U_Iterator_base0@2@@std@@QBE_NABV01@@Z 0041eb10 f i sdk_util.obj
 0001:0001db10       ??8?$_Tree_const_iterator@V?$_Tree_val@U?$_Tree_simple_types@PAVIAuthServiceEvent@ZOOMSDK@@@std@@@std@@@std@@QBE_NABV01@@Z 0041eb10 f i sdk_util.obj
 0001:0001db10       ??8?$_Tree_unchecked_const_iterator@V?$_Tree_val@U?$_Tree_simple_types@PAVISDKInMeetingServiceMgrEvent@@@std@@@std@@U_Iterator_base0@2@@std@@QBE_NABV01@@Z 0041eb10 f i sdk_util.obj
 0001:0001db10       ??8?$_Tree_unchecked_const_iterator@V?$_Tree_val@U?$_Tree_simple_types@PAVIAuthServiceEvent@ZOOMSDK@@@std@@@std@@U_Iterator_base0@2@@std@@QBE_NABV01@@Z 0041eb10 f i sdk_util.obj
 0001:0001db10       ??8?$_Tree_unchecked_const_iterator@V?$_Tree_val@U?$_Tree_simple_types@PAVIPreMeetingServiceEvent@ZOOMSDK@@@std@@@std@@U_Iterator_base0@2@@std@@QBE_NABV01@@Z 0041eb10 f i sdk_util.obj
 0001:0001db10       ??8?$_Tree_unchecked_const_iterator@V?$_Tree_val@U?$_Tree_simple_types@PAVIMeetingServiceEvent@ZOOMSDK@@@std@@@std@@U_Iterator_base0@2@@std@@QBE_NABV01@@Z 0041eb10 f i sdk_util.obj
 0001:0001db10       ??8?$_List_const_iterator@V?$_List_val@U?$_List_simple_types@H@std@@@std@@@std@@QBE_NABV01@@Z 0041eb10 f i participant_ui.obj
 0001:0001db10       ??8?$_Tree_const_iterator@V?$_Tree_val@U?$_Tree_simple_types@PAVISDKInMeetingServiceMgrEvent@@@std@@@std@@@std@@QBE_NABV01@@Z 0041eb10 f i sdk_util.obj
 0001:0001db10       ??8?$_Tree_unchecked_const_iterator@V?$_Tree_val@U?$_Tree_simple_types@PAVIMeetingParticipantsCtrlEvent@ZOOMSDK@@@std@@@std@@U_Iterator_base0@2@@std@@QBE_NABV01@@Z 0041eb10 f i sdk_util.obj
 0001:0001db10       ??8?$_Tree_const_iterator@V?$_Tree_val@U?$_Tree_simple_types@PAVIMeetingVideoCtrlEvent@ZOOMSDK@@@std@@@std@@@std@@QBE_NABV01@@Z 0041eb10 f i sdk_util.obj
 0001:0001db10       ??8?$_Tree_const_iterator@V?$_Tree_val@U?$_Tree_simple_types@PAVIMeetingChatCtrlEvent@ZOOMSDK@@@std@@@std@@@std@@QBE_NABV01@@Z 0041eb10 f i sdk_util.obj
 0001:0001db10       ??8?$_Tree_const_iterator@V?$_Tree_val@U?$_Tree_simple_types@PAVIPreMeetingServiceEvent@ZOOMSDK@@@std@@@std@@@std@@QBE_NABV01@@Z 0041eb10 f i sdk_util.obj
 0001:0001db10       ??8?$_Tree_const_iterator@V?$_Tree_val@U?$_Tree_simple_types@PAVIClosedCaptionControllerEvent@ZOOMSDK@@@std@@@std@@@std@@QBE_NABV01@@Z 0041eb10 f i sdk_util.obj
 0001:0001db10       ??8?$_Tree_const_iterator@V?$_Tree_val@U?$_Tree_simple_types@PAVIMeetingParticipantsCtrlEvent@ZOOMSDK@@@std@@@std@@@std@@QBE_NABV01@@Z 0041eb10 f i sdk_util.obj
 0001:0001db40       ??9?$_Tree_const_iterator@V?$_Tree_val@U?$_Tree_simple_types@PAVIMeetingParticipantsCtrlEvent@ZOOMSDK@@@std@@@std@@@std@@QBE_NABV01@@Z 0041eb40 f i sdk_util.obj
 0001:0001db40       ??9?$_Tree_unchecked_const_iterator@V?$_Tree_val@U?$_Tree_simple_types@PAVIMeetingParticipantsCtrlEvent@ZOOMSDK@@@std@@@std@@U_Iterator_base0@2@@std@@QBE_NABV01@@Z 0041eb40 f i sdk_util.obj
 0001:0001db40       ??9?$_Tree_const_iterator@V?$_Tree_val@U?$_Tree_simple_types@PAVIClosedCaptionControllerEvent@ZOOMSDK@@@std@@@std@@@std@@QBE_NABV01@@Z 0041eb40 f i sdk_util.obj
 0001:0001db40       ??9?$_Tree_const_iterator@V?$_Tree_val@U?$_Tree_simple_types@PAVIPreMeetingServiceEvent@ZOOMSDK@@@std@@@std@@@std@@QBE_NABV01@@Z 0041eb40 f i sdk_util.obj
 0001:0001db40       ??9?$_Tree_unchecked_const_iterator@V?$_Tree_val@U?$_Tree_simple_types@PAVISDKInMeetingServiceMgrEvent@@@std@@@std@@U_Iterator_base0@2@@std@@QBE_NABV01@@Z 0041eb40 f i sdk_util.obj
 0001:0001db40       ??9?$_Tree_unchecked_const_iterator@V?$_Tree_val@U?$_Tree_simple_types@PAVIClosedCaptionControllerEvent@ZOOMSDK@@@std@@@std@@U_Iterator_base0@2@@std@@QBE_NABV01@@Z 0041eb40 f i sdk_util.obj
 0001:0001db40       ??9?$_Tree_unchecked_const_iterator@V?$_Tree_val@U?$_Tree_simple_types@PAVIAuthServiceEvent@ZOOMSDK@@@std@@@std@@U_Iterator_base0@2@@std@@QBE_NABV01@@Z 0041eb40 f i sdk_util.obj
 0001:0001db40       ??9?$_Tree_const_iterator@V?$_Tree_val@U?$_Tree_simple_types@U?$pair@$$CBIPAVIUserInfo@ZOOMSDK@@@std@@@std@@@std@@@std@@QBE_NABV01@@Z 0041eb40 f i user_manager.obj
 0001:0001db40       ??9?$_List_const_iterator@V?$_List_val@U?$_List_simple_types@H@std@@@std@@@std@@QBE_NABV01@@Z 0041eb40 f i participant_ui.obj
 0001:0001db40       ??9?$_Tree_unchecked_const_iterator@V?$_Tree_val@U?$_Tree_simple_types@PAVIMeetingChatCtrlEvent@ZOOMSDK@@@std@@@std@@U_Iterator_base0@2@@std@@QBE_NABV01@@Z 0041eb40 f i sdk_util.obj
 0001:0001db40       ??9?$_Tree_const_iterator@V?$_Tree_val@U?$_Tree_simple_types@PAVIMeetingChatCtrlEvent@ZOOMSDK@@@std@@@std@@@std@@QBE_NABV01@@Z 0041eb40 f i sdk_util.obj
 0001:0001db40       ??9?$_Tree_const_iterator@V?$_Tree_val@U?$_Tree_simple_types@PAVIAuthServiceEvent@ZOOMSDK@@@std@@@std@@@std@@QBE_NABV01@@Z 0041eb40 f i sdk_util.obj
 0001:0001db40       ??9?$_Tree_const_iterator@V?$_Tree_val@U?$_Tree_simple_types@PAVISDKInMeetingServiceMgrEvent@@@std@@@std@@@std@@QBE_NABV01@@Z 0041eb40 f i sdk_util.obj
 0001:0001db40       ??9?$_Tree_unchecked_const_iterator@V?$_Tree_val@U?$_Tree_simple_types@PAVIMeetingServiceEvent@ZOOMSDK@@@std@@@std@@U_Iterator_base0@2@@std@@QBE_NABV01@@Z 0041eb40 f i sdk_util.obj
 0001:0001db40       ??9?$_Tree_const_iterator@V?$_Tree_val@U?$_Tree_simple_types@PAVIMeetingVideoCtrlEvent@ZOOMSDK@@@std@@@std@@@std@@QBE_NABV01@@Z 0041eb40 f i sdk_util.obj
 0001:0001db40       ??9?$_Tree_const_iterator@V?$_Tree_val@U?$_Tree_simple_types@PAVIMeetingServiceEvent@ZOOMSDK@@@std@@@std@@@std@@QBE_NABV01@@Z 0041eb40 f i sdk_util.obj
 0001:0001db40       ??9?$_Tree_unchecked_const_iterator@V?$_Tree_val@U?$_Tree_simple_types@PAVIMeetingVideoCtrlEvent@ZOOMSDK@@@std@@@std@@U_Iterator_base0@2@@std@@QBE_NABV01@@Z 0041eb40 f i sdk_util.obj
 0001:0001db40       ??9?$_Tree_unchecked_const_iterator@V?$_Tree_val@U?$_Tree_simple_types@PAVIPreMeetingServiceEvent@ZOOMSDK@@@std@@@std@@U_Iterator_base0@2@@std@@QBE_NABV01@@Z 0041eb40 f i sdk_util.obj
 0001:0001db80       ?_Rmost@?$_Tree_val@U?$_Tree_simple_types@PAVIMeetingServiceEvent@ZOOMSDK@@@std@@@std@@QBEAAPAU?$_Tree_node@PAVIMeetingServiceEvent@ZOOMSDK@@PAX@2@XZ 0041eb80 f i sdk_util.obj
 0001:0001db80       ?_Rmost@?$_Tree_val@U?$_Tree_simple_types@PAVIPreMeetingServiceEvent@ZOOMSDK@@@std@@@std@@QBEAAPAU?$_Tree_node@PAVIPreMeetingServiceEvent@ZOOMSDK@@PAX@2@XZ 0041eb80 f i sdk_util.obj
 0001:0001db80       ?_Rmost@?$_Tree_val@U?$_Tree_simple_types@PAVIClosedCaptionControllerEvent@ZOOMSDK@@@std@@@std@@QBEAAPAU?$_Tree_node@PAVIClosedCaptionControllerEvent@ZOOMSDK@@PAX@2@XZ 0041eb80 f i sdk_util.obj
 0001:0001db80       ?_Rmost@?$_Tree_val@U?$_Tree_simple_types@PAVIMeetingVideoCtrlEvent@ZOOMSDK@@@std@@@std@@QBEAAPAU?$_Tree_node@PAVIMeetingVideoCtrlEvent@ZOOMSDK@@PAX@2@XZ 0041eb80 f i sdk_util.obj
 0001:0001db80       ?_Rmost@?$_Tree_val@U?$_Tree_simple_types@PAVIMeetingParticipantsCtrlEvent@ZOOMSDK@@@std@@@std@@QBEAAPAU?$_Tree_node@PAVIMeetingParticipantsCtrlEvent@ZOOMSDK@@PAX@2@XZ 0041eb80 f i sdk_util.obj
 0001:0001db80       ?_Rmost@?$_Tree_val@U?$_Tree_simple_types@PAVIMeetingChatCtrlEvent@ZOOMSDK@@@std@@@std@@QBEAAPAU?$_Tree_node@PAVIMeetingChatCtrlEvent@ZOOMSDK@@PAX@2@XZ 0041eb80 f i sdk_util.obj
 0001:0001db80       ?_Rmost@?$_Tree_val@U?$_Tree_simple_types@PAVISDKInMeetingServiceMgrEvent@@@std@@@std@@QBEAAPAU?$_Tree_node@PAVISDKInMeetingServiceMgrEvent@@PAX@2@XZ 0041eb80 f i sdk_util.obj
 0001:0001db80       ?_Rmost@?$_Tree_val@U?$_Tree_simple_types@PAVIAuthServiceEvent@ZOOMSDK@@@std@@@std@@QBEAAPAU?$_Tree_node@PAVIAuthServiceEvent@ZOOMSDK@@PAX@2@XZ 0041eb80 f i sdk_util.obj
 0001:0001db80       ??D?$_List_const_iterator@V?$_List_val@U?$_List_simple_types@H@std@@@std@@@std@@QBEABHXZ 0041eb80 f i participant_ui.obj
 0001:0001db80       ?_Rmost@?$_Tree_val@U?$_Tree_simple_types@U?$pair@$$CBIPAVIUserInfo@ZOOMSDK@@@std@@@std@@@std@@QBEAAPAU?$_Tree_node@U?$pair@$$CBIPAVIUserInfo@ZOOMSDK@@@std@@PAX@2@XZ 0041eb80 f i user_manager.obj
 0001:0001dba0       ??D?$_List_iterator@V?$_List_val@U?$_List_simple_types@H@std@@@std@@@std@@QBEAAHXZ 0041eba0 f i participant_ui.obj
 0001:0001dbc0       ??E?$_List_const_iterator@V?$_List_val@U?$_List_simple_types@H@std@@@std@@@std@@QAEAAV01@XZ 0041ebc0 f i participant_ui.obj
 0001:0001dbe0       ??E?$_List_iterator@V?$_List_val@U?$_List_simple_types@H@std@@@std@@@std@@QAE?AV01@H@Z 0041ebe0 f i participant_ui.obj
 0001:0001dc10       ??E?$_List_iterator@V?$_List_val@U?$_List_simple_types@H@std@@@std@@@std@@QAEAAV01@XZ 0041ec10 f i participant_ui.obj
 0001:0001dc30       ??_G?$CDelegate@VCPUserItemEx@@V1@@DuiLib@@UAEPAXI@Z 0041ec30 f i participant_ui.obj
 0001:0001dc30       ??_E?$CDelegate@VCPUserItemEx@@V1@@DuiLib@@UAEPAXI@Z 0041ec30 f i participant_ui.obj
 0001:0001dc60       ??_ECPUserItemEx@@UAEPAXI@Z 0041ec60 f i participant_ui.obj
 0001:0001dc60       ??_GCPUserItemEx@@UAEPAXI@Z 0041ec60 f i participant_ui.obj
 0001:0001dca0       ??_GParticipantPopMenu@@QAEPAXI@Z 0041eca0 f i participant_ui.obj
 0001:0001dcd0       ?Copy@?$CDelegate@VCPUserItemEx@@V1@@DuiLib@@UBEPAVCDelegateBase@2@XZ 0041ecd0 f i participant_ui.obj
 0001:0001dd50       ?CreateControl@CParticipantUIMgr@@UAEPAVCControlUI@DuiLib@@PB_W@Z 0041ed50 f   participant_ui.obj
 0001:0001de40       ?GetSkinRes@CParticipantUIMgr@@UAEIXZ 0041ee40 f i participant_ui.obj
 0001:0001de50       ?GetUserByID@CParticipantUIMgr@@QAEPAVIUserInfo@ZOOMSDK@@I@Z 0041ee50 f   participant_ui.obj
 0001:0001de80       ?GetUserID@CPUserItemEx@@QAEIXZ 0041ee80 f   participant_ui.obj
 0001:0001dea0       ?GetUserList@CParticipantUIMgr@@QAEXXZ 0041eea0 f   participant_ui.obj
 0001:0001ded0       ?HandleMessage@CParticipantUIMgr@@UAEJIIJ@Z 0041eed0 f   participant_ui.obj
 0001:0001e0b0       ?HandleUserChanged@CParticipantUIMgr@@QAEXW4SDKUserChangedType@@@Z 0041f0b0 f   participant_ui.obj
 0001:0001e100       ?InitControls@CPUserItemEx@@QAEXXZ 0041f100 f   participant_ui.obj
 0001:0001e230       ?InitListUI@CParticipantUIMgr@@QAEXXZ 0041f230 f   participant_ui.obj
 0001:0001e440       ?InitWindow@CParticipantUIMgr@@UAEXXZ 0041f440 f   participant_ui.obj
 0001:0001e530       ?Invoke@?$CDelegate@VCPUserItemEx@@V1@@DuiLib@@MAE_NPAX@Z 0041f530 f i participant_ui.obj
 0001:0001e570       ?IsSelected@CPUserItemEx@@UBE_NXZ 0041f570 f   participant_ui.obj
 0001:0001e590       ?Notify@CParticipantUIMgr@@UAEXAAUtagTNotifyUI@DuiLib@@@Z 0041f590 f   participant_ui.obj
 0001:0001e6f0       ?OnSelfItemSize@CPUserItemEx@@AAE_NPAX@Z 0041f6f0 f   participant_ui.obj
 0001:0001eb80       ?RemoveListItem@CParticipantUIMgr@@AAEXXZ 0041fb80 f   participant_ui.obj
 0001:0001edc0       ?ResetWindowTitle@CParticipantUIMgr@@AAEXXZ 0041fdc0 f   participant_ui.obj
 0001:0001ee80       ?SetUIMgr@CPUserItemEx@@QAEXPAVCParticipantUIMgr@@@Z 0041fe80 f   participant_ui.obj
 0001:0001eeb0       ?SetUserID@CPUserItemEx@@QAEXI@Z 0041feb0 f   participant_ui.obj
 0001:0001ef10       ?UpdateItemInfo@CPUserItemEx@@QAEXXZ 0041ff10 f   participant_ui.obj
 0001:0001ef50       ?UpdateListItem@CParticipantUIMgr@@AAEXXZ 0041ff50 f   participant_ui.obj
 0001:0001f210       ?UpdateName@CPUserItemEx@@QAEXXZ 00420210 f   participant_ui.obj
 0001:0001f380       ?UpdateUserAudioStatus@CPUserItemEx@@QAEXXZ 00420380 f   participant_ui.obj
 0001:0001f4f0       ?UpdateUserInfo@CPUserItemEx@@QAEXXZ 004204f0 f   participant_ui.obj
 0001:0001f510       ?UpdateUserLowerHandStatus@CPUserItemEx@@QAEXXZ 00420510 f   participant_ui.obj
 0001:0001f5a0       ?UpdateUserVideoStatus@CPUserItemEx@@QAEXXZ 004205a0 f   participant_ui.obj
 0001:0001f6c0       ?_Buyheadnode@?$_List_alloc@U?$_List_base_types@HV?$allocator@H@std@@@std@@@std@@QAEPAU?$_List_node@HPAX@2@XZ 004206c0 f i participant_ui.obj
 0001:0001f6e0       ?_Buynode0@?$_List_alloc@U?$_List_base_types@HV?$allocator@H@std@@@std@@@std@@QAEPAU?$_List_node@HPAX@2@PAU32@0@Z 004206e0 f i participant_ui.obj
 0001:0001f7d0       ?_Freeheadnode@?$_List_alloc@U?$_List_base_types@HV?$allocator@H@std@@@std@@@std@@QAEXPAU?$_List_node@HPAX@2@@Z 004207d0 f i participant_ui.obj
 0001:0001f800       ?_Freenode@?$_List_buy@HV?$allocator@H@std@@@std@@QAEXPAU?$_List_node@HPAX@2@@Z 00420800 f i participant_ui.obj
 0001:0001f850       ?_Incsize@?$list@HV?$allocator@H@std@@@std@@QAEXI@Z 00420850 f i participant_ui.obj
 0001:0001f8a0       ?_Tidy@?$list@HV?$allocator@H@std@@@std@@QAEXXZ 004208a0 f i participant_ui.obj
 0001:0001f8c0       ?_Unchecked_end@?$list@HV?$allocator@H@std@@@std@@QAE?AV?$_List_unchecked_iterator@V?$_List_val@U?$_List_simple_types@H@std@@@std@@@2@XZ 004208c0 f i participant_ui.obj
 0001:0001f8f0       ?allocate@?$allocator@U?$_List_node@HPAX@std@@@std@@QAEPAU?$_List_node@HPAX@2@I@Z 004208f0 f i participant_ui.obj
 0001:0001f920       ?begin@?$list@HV?$allocator@H@std@@@std@@QAE?AV?$_List_iterator@V?$_List_val@U?$_List_simple_types@H@std@@@std@@@2@XZ 00420920 f i participant_ui.obj
 0001:0001f990       ?clear@?$list@HV?$allocator@H@std@@@std@@QAEXXZ 00420990 f i participant_ui.obj
 0001:0001fa50       ?deallocate@?$_Default_allocator_traits@V?$allocator@U?$_List_node@HPAX@std@@@std@@@std@@SAXAAV?$allocator@U?$_List_node@HPAX@std@@@2@QAU?$_List_node@HPAX@2@I@Z 00420a50 f i participant_ui.obj
 0001:0001fa70       ?deallocate@?$allocator@U?$_List_node@HPAX@std@@@std@@QAEXQAU?$_List_node@HPAX@2@I@Z 00420a70 f i participant_ui.obj
 0001:0001fa90       ?empty@?$list@HV?$allocator@H@std@@@std@@QBE_NXZ 00420a90 f i participant_ui.obj
 0001:0001fac0       ?end@?$list@HV?$allocator@H@std@@@std@@QAE?AV?$_List_iterator@V?$_List_val@U?$_List_simple_types@H@std@@@std@@@2@XZ 00420ac0 f i participant_ui.obj
 0001:0001fb20       ?max_size@?$_Default_allocator_traits@V?$allocator@U?$_List_node@HPAX@std@@@std@@@std@@SAIABV?$allocator@U?$_List_node@HPAX@std@@@2@@Z 00420b20 f i participant_ui.obj
 0001:0001fb30       ?max_size@?$list@HV?$allocator@H@std@@@std@@QBEIXZ 00420b30 f i participant_ui.obj
 0001:0001fb50       ?push_back@?$list@HV?$allocator@H@std@@@std@@QAEXABH@Z 00420b50 f i participant_ui.obj
 0001:0001fb80       ??$?H_WU?$char_traits@_W@std@@V?$allocator@_W@1@@std@@YA?AV?$basic_string@_WU?$char_traits@_W@std@@V?$allocator@_W@2@@0@ABV10@0@Z 00420b80 f i schedule_meeting_ui.obj
 0001:0001fc40       ??$_Copy_memmove@PAPAVIUserInfo@ZOOMSDK@@PAPAV12@@std@@YAPAPAVIUserInfo@ZOOMSDK@@PAPAV12@00@Z 00420c40 f i user_manager.obj
 0001:0001fc40       ??$_Copy_memmove@PAPAVIInterpreterInfo@ZOOMSDK@@PAPAV12@@std@@YAPAPAVIInterpreterInfo@ZOOMSDK@@PAPAV12@00@Z 00420c40 f i schedule_meeting_ui.obj
 0001:0001fc40       ??$_Copy_memmove@PAPAVIAlternativeHostInfo@ZOOMSDK@@PAPAV12@@std@@YAPAPAVIAlternativeHostInfo@ZOOMSDK@@PAPAV12@00@Z 00420c40 f i schedule_meeting_ui.obj
 0001:0001fc40       ??$_Copy_memmove@PAPAVIVirtualBGImageInfo@ZOOMSDK@@PAPAV12@@std@@YAPAPAVIVirtualBGImageInfo@ZOOMSDK@@PAPAV12@00@Z 00420c40 f i settings_ui.obj
 0001:0001fc80       ??$_Destroy_range@V?$allocator@PAVIAlternativeHostInfo@ZOOMSDK@@@std@@@std@@YAXPAPAVIAlternativeHostInfo@ZOOMSDK@@0AAV?$allocator@PAVIAlternativeHostInfo@ZOOMSDK@@@0@@Z 00420c80 f i schedule_meeting_ui.obj
 0001:0001fc80       ??$_Destroy_range@V?$allocator@PAVIVirtualBGImageInfo@ZOOMSDK@@@std@@@std@@YAXPAPAVIVirtualBGImageInfo@ZOOMSDK@@0AAV?$allocator@PAVIVirtualBGImageInfo@ZOOMSDK@@@0@@Z 00420c80 f i settings_ui.obj
 0001:0001fc80       ??$_Destroy_range@V?$allocator@PAVIInterpreterInfo@ZOOMSDK@@@std@@@std@@YAXPAPAVIInterpreterInfo@ZOOMSDK@@0AAV?$allocator@PAVIInterpreterInfo@ZOOMSDK@@@0@@Z 00420c80 f i schedule_meeting_ui.obj
 0001:0001fc80       ??$_Destroy_range@V?$allocator@PAVIUserInfo@ZOOMSDK@@@std@@@std@@YAXPAPAVIUserInfo@ZOOMSDK@@0AAV?$allocator@PAVIUserInfo@ZOOMSDK@@@0@@Z 00420c80 f i user_manager.obj
 0001:0001fcb0       ??$_Emplace_back_with_unused_capacity@ABQAVIAlternativeHostInfo@ZOOMSDK@@@?$vector@PAVIAlternativeHostInfo@ZOOMSDK@@V?$allocator@PAVIAlternativeHostInfo@ZOOMSDK@@@std@@@std@@AAEXABQAVIAlternativeHostInfo@ZOOMSDK@@@Z 00420cb0 f i schedule_meeting_ui.obj
 0001:0001fcb0       ??$_Emplace_back_with_unused_capacity@ABQAVIInterpreterInfo@ZOOMSDK@@@?$vector@PAVIInterpreterInfo@ZOOMSDK@@V?$allocator@PAVIInterpreterInfo@ZOOMSDK@@@std@@@std@@AAEXABQAVIInterpreterInfo@ZOOMSDK@@@Z 00420cb0 f i schedule_meeting_ui.obj
 0001:0001fcb0       ??$_Emplace_back_with_unused_capacity@ABQAVIUserInfo@ZOOMSDK@@@?$vector@PAVIUserInfo@ZOOMSDK@@V?$allocator@PAVIUserInfo@ZOOMSDK@@@std@@@std@@AAEXABQAVIUserInfo@ZOOMSDK@@@Z 00420cb0 f i user_manager.obj
 0001:0001fcb0       ??$_Emplace_back_with_unused_capacity@ABQAVIVirtualBGImageInfo@ZOOMSDK@@@?$vector@PAVIVirtualBGImageInfo@ZOOMSDK@@V?$allocator@PAVIVirtualBGImageInfo@ZOOMSDK@@@std@@@std@@AAEXABQAVIVirtualBGImageInfo@ZOOMSDK@@@Z 00420cb0 f i settings_ui.obj
 0001:0001fd40       ??$_Emplace_back_with_unused_capacity@ABV?$basic_string@_WU?$char_traits@_W@std@@V?$allocator@_W@2@@std@@@?$vector@V?$basic_string@_WU?$char_traits@_W@std@@V?$allocator@_W@2@@std@@V?$allocator@V?$basic_string@_WU?$char_traits@_W@std@@V?$allocator@_W@2@@std@@@2@@std@@AAEXABV?$basic_string@_WU?$char_traits@_W@std@@V?$allocator@_W@2@@1@@Z 00420d40 f i schedule_meeting_ui.obj
 0001:0001fdd0       ??$_Emplace_reallocate@ABQAVIInterpreterInfo@ZOOMSDK@@@?$vector@PAVIInterpreterInfo@ZOOMSDK@@V?$allocator@PAVIInterpreterInfo@ZOOMSDK@@@std@@@std@@QAEPAPAVIInterpreterInfo@ZOOMSDK@@QAPAV23@ABQAV23@@Z 00420dd0 f i schedule_meeting_ui.obj
 0001:0001fdd0       ??$_Emplace_reallocate@ABQAVIVirtualBGImageInfo@ZOOMSDK@@@?$vector@PAVIVirtualBGImageInfo@ZOOMSDK@@V?$allocator@PAVIVirtualBGImageInfo@ZOOMSDK@@@std@@@std@@QAEPAPAVIVirtualBGImageInfo@ZOOMSDK@@QAPAV23@ABQAV23@@Z 00420dd0 f i settings_ui.obj
 0001:0001fdd0       ??$_Emplace_reallocate@ABQAVIAlternativeHostInfo@ZOOMSDK@@@?$vector@PAVIAlternativeHostInfo@ZOOMSDK@@V?$allocator@PAVIAlternativeHostInfo@ZOOMSDK@@@std@@@std@@QAEPAPAVIAlternativeHostInfo@ZOOMSDK@@QAPAV23@ABQAV23@@Z 00420dd0 f i schedule_meeting_ui.obj
 0001:0001fdd0       ??$_Emplace_reallocate@ABQAVIUserInfo@ZOOMSDK@@@?$vector@PAVIUserInfo@ZOOMSDK@@V?$allocator@PAVIUserInfo@ZOOMSDK@@@std@@@std@@QAEPAPAVIUserInfo@ZOOMSDK@@QAPAV23@ABQAV23@@Z 00420dd0 f i user_manager.obj
 0001:0001ffb0       ??$_Emplace_reallocate@ABV?$basic_string@_WU?$char_traits@_W@std@@V?$allocator@_W@2@@std@@@?$vector@V?$basic_string@_WU?$char_traits@_W@std@@V?$allocator@_W@2@@std@@V?$allocator@V?$basic_string@_WU?$char_traits@_W@std@@V?$allocator@_W@2@@std@@@2@@std@@QAEPAV?$basic_string@_WU?$char_traits@_W@std@@V?$allocator@_W@2@@1@QAV21@ABV21@@Z 00420fb0 f i schedule_meeting_ui.obj
 0001:00020190       ??$_Get_size_of_n@$03@std@@YAII@Z 00421190 f i schedule_meeting_ui.obj
 0001:000201c0       ??$_Idl_distance1@PAPAVIUserInfo@ZOOMSDK@@PAPAV12@@std@@YAHABQAPAVIUserInfo@ZOOMSDK@@0Urandom_access_iterator_tag@0@@Z 004211c0 f i user_manager.obj
 0001:000201c0       ??$_Idl_distance1@PAPAVIInterpreterInfo@ZOOMSDK@@PAPAV12@@std@@YAHABQAPAVIInterpreterInfo@ZOOMSDK@@0Urandom_access_iterator_tag@0@@Z 004211c0 f i schedule_meeting_ui.obj
 0001:000201c0       ??$_Idl_distance1@PAPAVIAlternativeHostInfo@ZOOMSDK@@PAPAV12@@std@@YAHABQAPAVIAlternativeHostInfo@ZOOMSDK@@0Urandom_access_iterator_tag@0@@Z 004211c0 f i schedule_meeting_ui.obj
 0001:000201c0       ??$_Idl_distance1@PAPAVIVirtualBGImageInfo@ZOOMSDK@@PAPAV12@@std@@YAHABQAPAVIVirtualBGImageInfo@ZOOMSDK@@0Urandom_access_iterator_tag@0@@Z 004211c0 f i settings_ui.obj
 0001:000201e0       ??$_Idl_distance@PAPAVIInterpreterInfo@ZOOMSDK@@PAPAV12@@std@@YAHABQAPAVIInterpreterInfo@ZOOMSDK@@0@Z 004211e0 f i schedule_meeting_ui.obj
 0001:000201e0       ??$_Idl_distance@PAPAVIVirtualBGImageInfo@ZOOMSDK@@PAPAV12@@std@@YAHABQAPAVIVirtualBGImageInfo@ZOOMSDK@@0@Z 004211e0 f i settings_ui.obj
 0001:000201e0       ??$_Idl_distance@PAPAVIUserInfo@ZOOMSDK@@PAPAV12@@std@@YAHABQAPAVIUserInfo@ZOOMSDK@@0@Z 004211e0 f i user_manager.obj
 0001:000201e0       ??$_Idl_distance@PAPAVIAlternativeHostInfo@ZOOMSDK@@PAPAV12@@std@@YAHABQAPAVIAlternativeHostInfo@ZOOMSDK@@0@Z 004211e0 f i schedule_meeting_ui.obj
 0001:00020200       ??$_Reallocate_grow_by@V<lambda_38fb7828f6004e9a4c6a38bfc6df7f44>@@_W@?$basic_string@_WU?$char_traits@_W@std@@V?$allocator@_W@2@@std@@QAEAAV01@IV<lambda_38fb7828f6004e9a4c6a38bfc6df7f44>@@_W@Z 00421200 f i schedule_meeting_ui.obj
 0001:00020330       ??$_Reallocate_grow_by@V<lambda_4755c59c3a9e60a5b049353a7584df55>@@$$V@?$basic_string@_WU?$char_traits@_W@std@@V?$allocator@_W@2@@std@@QAEAAV01@IV<lambda_4755c59c3a9e60a5b049353a7584df55>@@@Z 00421330 f i schedule_meeting_ui.obj
 0001:00020450       ??$_Uninitialized_move@PAPAVIUserInfo@ZOOMSDK@@PAPAV12@V?$allocator@PAVIUserInfo@ZOOMSDK@@@std@@@std@@YAPAPAVIUserInfo@ZOOMSDK@@QAPAV12@0PAPAV12@AAV?$allocator@PAVIUserInfo@ZOOMSDK@@@0@@Z 00421450 f i user_manager.obj
 0001:00020450       ??$_Uninitialized_move@PAPAVIAlternativeHostInfo@ZOOMSDK@@PAPAV12@V?$allocator@PAVIAlternativeHostInfo@ZOOMSDK@@@std@@@std@@YAPAPAVIAlternativeHostInfo@ZOOMSDK@@QAPAV12@0PAPAV12@AAV?$allocator@PAVIAlternativeHostInfo@ZOOMSDK@@@0@@Z 00421450 f i schedule_meeting_ui.obj
 0001:00020450       ??$_Uninitialized_move@PAPAVIInterpreterInfo@ZOOMSDK@@PAPAV12@V?$allocator@PAVIInterpreterInfo@ZOOMSDK@@@std@@@std@@YAPAPAVIInterpreterInfo@ZOOMSDK@@QAPAV12@0PAPAV12@AAV?$allocator@PAVIInterpreterInfo@ZOOMSDK@@@0@@Z 00421450 f i schedule_meeting_ui.obj
 0001:00020450       ??$_Uninitialized_move@PAPAVIVirtualBGImageInfo@ZOOMSDK@@PAPAV12@V?$allocator@PAVIVirtualBGImageInfo@ZOOMSDK@@@std@@@std@@YAPAPAVIVirtualBGImageInfo@ZOOMSDK@@QAPAV12@0PAPAV12@AAV?$allocator@PAVIVirtualBGImageInfo@ZOOMSDK@@@0@@Z 00421450 f i settings_ui.obj
 0001:000204e0       ??$_Uninitialized_move_al_unchecked@PAVIAlternativeHostInfo@ZOOMSDK@@PAV12@V?$allocator@PAVIAlternativeHostInfo@ZOOMSDK@@@std@@@std@@YAPAPAVIAlternativeHostInfo@ZOOMSDK@@QAPAV12@00AAV?$allocator@PAVIAlternativeHostInfo@ZOOMSDK@@@0@U_Really_trivial_ptr_iterator_tag@0@U?$integral_constant@_N$00@0@@Z 004214e0 f i schedule_meeting_ui.obj
 0001:000204e0       ??$_Uninitialized_move_al_unchecked@PAVIInterpreterInfo@ZOOMSDK@@PAV12@V?$allocator@PAVIInterpreterInfo@ZOOMSDK@@@std@@@std@@YAPAPAVIInterpreterInfo@ZOOMSDK@@QAPAV12@00AAV?$allocator@PAVIInterpreterInfo@ZOOMSDK@@@0@U_Really_trivial_ptr_iterator_tag@0@U?$integral_constant@_N$00@0@@Z 004214e0 f i schedule_meeting_ui.obj
 0001:000204e0       ??$_Uninitialized_move_al_unchecked@PAVIUserInfo@ZOOMSDK@@PAV12@V?$allocator@PAVIUserInfo@ZOOMSDK@@@std@@@std@@YAPAPAVIUserInfo@ZOOMSDK@@QAPAV12@00AAV?$allocator@PAVIUserInfo@ZOOMSDK@@@0@U_Really_trivial_ptr_iterator_tag@0@U?$integral_constant@_N$00@0@@Z 004214e0 f i user_manager.obj
 0001:000204e0       ??$_Move_unchecked1@PAPAVIUserInfo@ZOOMSDK@@PAPAV12@@std@@YAPAPAVIUserInfo@ZOOMSDK@@PAPAV12@00U_Trivially_copyable_ptr_iterator_tag@0@@Z 004214e0 f i user_manager.obj
 0001:000204e0       ??$_Uninitialized_move_al_unchecked@PAVIVirtualBGImageInfo@ZOOMSDK@@PAV12@V?$allocator@PAVIVirtualBGImageInfo@ZOOMSDK@@@std@@@std@@YAPAPAVIVirtualBGImageInfo@ZOOMSDK@@QAPAV12@00AAV?$allocator@PAVIVirtualBGImageInfo@ZOOMSDK@@@0@U_Really_trivial_ptr_iterator_tag@0@U?$integral_constant@_N$00@0@@Z 004214e0 f i settings_ui.obj
 0001:00020500       ??$construct@V?$basic_string@_WU?$char_traits@_W@std@@V?$allocator@_W@2@@std@@ABV12@@?$_Default_allocator_traits@V?$allocator@V?$basic_string@_WU?$char_traits@_W@std@@V?$allocator@_W@2@@std@@@std@@@std@@SAXAAV?$allocator@V?$basic_string@_WU?$char_traits@_W@std@@V?$allocator@_W@2@@std@@@1@QAV?$basic_string@_WU?$char_traits@_W@std@@V?$allocator@_W@2@@1@ABV31@@Z 00421500 f i schedule_meeting_ui.obj
 0001:00020530       ??$emplace_back@ABQAVIVirtualBGImageInfo@ZOOMSDK@@@?$vector@PAVIVirtualBGImageInfo@ZOOMSDK@@V?$allocator@PAVIVirtualBGImageInfo@ZOOMSDK@@@std@@@std@@QAEXABQAVIVirtualBGImageInfo@ZOOMSDK@@@Z 00421530 f i settings_ui.obj
 0001:00020530       ??$emplace_back@ABQAVIAlternativeHostInfo@ZOOMSDK@@@?$vector@PAVIAlternativeHostInfo@ZOOMSDK@@V?$allocator@PAVIAlternativeHostInfo@ZOOMSDK@@@std@@@std@@QAEXABQAVIAlternativeHostInfo@ZOOMSDK@@@Z 00421530 f i schedule_meeting_ui.obj
 0001:00020530       ??$emplace_back@ABQAVIUserInfo@ZOOMSDK@@@?$vector@PAVIUserInfo@ZOOMSDK@@V?$allocator@PAVIUserInfo@ZOOMSDK@@@std@@@std@@QAEXABQAVIUserInfo@ZOOMSDK@@@Z 00421530 f i user_manager.obj
 0001:00020530       ??$emplace_back@ABQAVIInterpreterInfo@ZOOMSDK@@@?$vector@PAVIInterpreterInfo@ZOOMSDK@@V?$allocator@PAVIInterpreterInfo@ZOOMSDK@@@std@@@std@@QAEXABQAVIInterpreterInfo@ZOOMSDK@@@Z 00421530 f i schedule_meeting_ui.obj
 0001:00020590       ??$emplace_back@ABV?$basic_string@_WU?$char_traits@_W@std@@V?$allocator@_W@2@@std@@@?$vector@V?$basic_string@_WU?$char_traits@_W@std@@V?$allocator@_W@2@@std@@V?$allocator@V?$basic_string@_WU?$char_traits@_W@std@@V?$allocator@_W@2@@std@@@2@@std@@QAEXABV?$basic_string@_WU?$char_traits@_W@std@@V?$allocator@_W@2@@1@@Z 00421590 f i schedule_meeting_ui.obj
 0001:000205f0       ??$getline@_WU?$char_traits@_W@std@@V?$allocator@_W@2@@std@@YAAAV?$basic_istream@_WU?$char_traits@_W@std@@@0@$$QAV10@AAV?$basic_string@_WU?$char_traits@_W@std@@V?$allocator@_W@2@@0@_W@Z 004215f0 f i schedule_meeting_ui.obj
 0001:00020800       ??$getline@_WU?$char_traits@_W@std@@V?$allocator@_W@2@@std@@YAAAV?$basic_istream@_WU?$char_traits@_W@std@@@0@AAV10@AAV?$basic_string@_WU?$char_traits@_W@std@@V?$allocator@_W@2@@0@_W@Z 00421800 f i schedule_meeting_ui.obj
 0001:00020830       ??0?$IList@PAVIAlternativeHostInfo@ZOOMSDK@@@ZOOMSDK@@QAE@XZ 00421830 f i schedule_meeting_ui.obj
 0001:00020850       ??0?$IList@PAVIInterpreterInfo@ZOOMSDK@@@ZOOMSDK@@QAE@XZ 00421850 f i schedule_meeting_ui.obj
 0001:00020870       ??0?$TListImpl@PAVIAlternativeHostInfo@ZOOMSDK@@@@QAE@XZ 00421870 f i schedule_meeting_ui.obj
 0001:000208a0       ??0?$TListImpl@PAVIInterpreterInfo@ZOOMSDK@@@@QAE@XZ 004218a0 f i schedule_meeting_ui.obj
 0001:000208d0       ??0?$basic_string@_WU?$char_traits@_W@std@@V?$allocator@_W@2@@std@@QAE@ABV01@@Z 004218d0 f i schedule_meeting_ui.obj
 0001:00020950       ??0?$basic_stringbuf@_WU?$char_traits@_W@std@@V?$allocator@_W@2@@std@@QAE@H@Z 00421950 f i schedule_meeting_ui.obj
 0001:000209e0       ??0?$basic_stringstream@_WU?$char_traits@_W@std@@V?$allocator@_W@2@@std@@QAE@H@Z 004219e0 f i schedule_meeting_ui.obj
 0001:00020ac0       ??0?$fpos@U_Mbstatet@@@std@@QAE@_J@Z 00421ac0 f i schedule_meeting_ui.obj
 0001:00020b00       ??0CSDKSheduleMeetingUIEvent@@QAE@XZ 00421b00 f i schedule_meeting_ui.obj
 0001:00020b20       ??0CSDKSheduleMeetingUIGroup@@QAE@XZ 00421b20 f   schedule_meeting_ui.obj
 0001:00020d80       ??0CSDKSheduleMeetingUIMgr@@QAE@XZ 00421d80 f   schedule_meeting_ui.obj
 0001:00020e90       ??0IAlternativeHostInfo@ZOOMSDK@@QAE@XZ 00421e90 f i schedule_meeting_ui.obj
 0001:00020eb0       ??0IInterpreterInfo@ZOOMSDK@@QAE@XZ 00421eb0 f i schedule_meeting_ui.obj
 0001:00020ed0       ??0TAlternativeHostInfo@@QAE@XZ 00421ed0 f i schedule_meeting_ui.obj
 0001:00020f00       ??0TInterpreterInfo@@QAE@XZ 00421f00 f i schedule_meeting_ui.obj
 0001:00020f40       ??0_Sentry_base@?$basic_istream@_WU?$char_traits@_W@std@@@std@@QAE@AAV12@@Z 00421f40 f i schedule_meeting_ui.obj
 0001:00020fa0       ??0sentry@?$basic_istream@_WU?$char_traits@_W@std@@@std@@QAE@AAV12@_N@Z 00421fa0 f i schedule_meeting_ui.obj
 0001:00021010       ??1?$IList@PAVIAlternativeHostInfo@ZOOMSDK@@@ZOOMSDK@@UAE@XZ 00422010 f i schedule_meeting_ui.obj
 0001:00021030       ??1?$IList@PAVIInterpreterInfo@ZOOMSDK@@@ZOOMSDK@@UAE@XZ 00422030 f i schedule_meeting_ui.obj
 0001:00021050       ??1?$TListImpl@PAVIAlternativeHostInfo@ZOOMSDK@@@@UAE@XZ 00422050 f i schedule_meeting_ui.obj
 0001:00021080       ??1?$TListImpl@PAVIInterpreterInfo@ZOOMSDK@@@@UAE@XZ 00422080 f i schedule_meeting_ui.obj
 0001:000210b0       ??1?$basic_stringbuf@_WU?$char_traits@_W@std@@V?$allocator@_W@2@@std@@UAE@XZ 004220b0 f i schedule_meeting_ui.obj
 0001:00021100       ??1?$basic_stringstream@_WU?$char_traits@_W@std@@V?$allocator@_W@2@@std@@UAE@XZ 00422100 f i schedule_meeting_ui.obj
 0001:00021160       ??1?$vector@PAVIVirtualBGImageInfo@ZOOMSDK@@V?$allocator@PAVIVirtualBGImageInfo@ZOOMSDK@@@std@@@std@@QAE@XZ 00422160 f i settings_ui.obj
 0001:00021160       ??1?$vector@PAVIInterpreterInfo@ZOOMSDK@@V?$allocator@PAVIInterpreterInfo@ZOOMSDK@@@std@@@std@@QAE@XZ 00422160 f i schedule_meeting_ui.obj
 0001:00021160       ??1?$vector@PAVIUserInfo@ZOOMSDK@@V?$allocator@PAVIUserInfo@ZOOMSDK@@@std@@@std@@QAE@XZ 00422160 f i user_manager.obj
 0001:00021160       ??1?$vector@PAVIAlternativeHostInfo@ZOOMSDK@@V?$allocator@PAVIAlternativeHostInfo@ZOOMSDK@@@std@@@std@@QAE@XZ 00422160 f i schedule_meeting_ui.obj
 0001:000211a0       ??1CSDKSheduleMeetingUIGroup@@UAE@XZ 004221a0 f   schedule_meeting_ui.obj
 0001:00021440       ??1CSDKSheduleMeetingUIMgr@@UAE@XZ 00422440 f   schedule_meeting_ui.obj
 0001:00021500       ??1IAlternativeHostInfo@ZOOMSDK@@UAE@XZ 00422500 f i schedule_meeting_ui.obj
 0001:00021520       ??1IInterpreterInfo@ZOOMSDK@@UAE@XZ 00422520 f i schedule_meeting_ui.obj
 0001:00021540       ??1TAlternativeHostInfo@@UAE@XZ 00422540 f i schedule_meeting_ui.obj
 0001:00021570       ??1TInterpreterInfo@@UAE@XZ 00422570 f i schedule_meeting_ui.obj
 0001:000215a0       ??1_Sentry_base@?$basic_istream@_WU?$char_traits@_W@std@@@std@@QAE@XZ 004225a0 f i schedule_meeting_ui.obj
 0001:00021620       ??1sentry@?$basic_istream@_WU?$char_traits@_W@std@@@std@@QAE@XZ 00422620 f i schedule_meeting_ui.obj
 0001:00021640       ??A?$vector@PAVIAlternativeHostInfo@ZOOMSDK@@V?$allocator@PAVIAlternativeHostInfo@ZOOMSDK@@@std@@@std@@QAEAAPAVIAlternativeHostInfo@ZOOMSDK@@I@Z 00422640 f i schedule_meeting_ui.obj
 0001:00021640       ??A?$vector@PAVIUserInfo@ZOOMSDK@@V?$allocator@PAVIUserInfo@ZOOMSDK@@@std@@@std@@QAEAAPAVIUserInfo@ZOOMSDK@@I@Z 00422640 f i user_manager.obj
 0001:00021640       ??A?$vector@PAVIVirtualBGImageInfo@ZOOMSDK@@V?$allocator@PAVIVirtualBGImageInfo@ZOOMSDK@@@std@@@std@@QAEAAPAVIVirtualBGImageInfo@ZOOMSDK@@I@Z 00422640 f i settings_ui.obj
 0001:00021640       ??A?$vector@PAVIInterpreterInfo@ZOOMSDK@@V?$allocator@PAVIInterpreterInfo@ZOOMSDK@@@std@@@std@@QAEAAPAVIInterpreterInfo@ZOOMSDK@@I@Z 00422640 f i schedule_meeting_ui.obj
 0001:00021660       ??B?$fpos@U_Mbstatet@@@std@@QBE_JXZ 00422660 f i schedule_meeting_ui.obj
 0001:00021690       ??Bsentry@?$basic_istream@_WU?$char_traits@_W@std@@@std@@QBE_NXZ 00422690 f i schedule_meeting_ui.obj
 0001:000216b0       ??R<lambda_38fb7828f6004e9a4c6a38bfc6df7f44>@@QBEXQA_WQB_WI_W@Z 004226b0 f i schedule_meeting_ui.obj
 0001:00021710       ??R<lambda_4755c59c3a9e60a5b049353a7584df55>@@QBEXQA_WQB_WI@Z 00422710 f i schedule_meeting_ui.obj
 0001:00021740       ??Y?$basic_string@_WU?$char_traits@_W@std@@V?$allocator@_W@2@@std@@QAEAAV01@ABV01@@Z 00422740 f i schedule_meeting_ui.obj
 0001:00021760       ??Y?$basic_string@_WU?$char_traits@_W@std@@V?$allocator@_W@2@@std@@QAEAAV01@_W@Z 00422760 f i schedule_meeting_ui.obj
 0001:00021780       ??_D?$basic_stringstream@_WU?$char_traits@_W@std@@V?$allocator@_W@2@@std@@QAEXXZ 00422780 f i schedule_meeting_ui.obj
 0001:000217a2       ??_E?$basic_stringstream@_WU?$char_traits@_W@std@@V?$allocator@_W@2@@std@@$4PPPPPPPM@A@AEPAXI@Z 004227a2 f i schedule_meeting_ui.obj
 0001:000217b0       ??_E?$IList@PAVIAlternativeHostInfo@ZOOMSDK@@@ZOOMSDK@@UAEPAXI@Z 004227b0 f i schedule_meeting_ui.obj
 0001:000217b0       ??_G?$IList@PAVIAlternativeHostInfo@ZOOMSDK@@@ZOOMSDK@@UAEPAXI@Z 004227b0 f i schedule_meeting_ui.obj
 0001:000217e0       ??_G?$IList@PAVIInterpreterInfo@ZOOMSDK@@@ZOOMSDK@@UAEPAXI@Z 004227e0 f i schedule_meeting_ui.obj
 0001:000217e0       ??_E?$IList@PAVIInterpreterInfo@ZOOMSDK@@@ZOOMSDK@@UAEPAXI@Z 004227e0 f i schedule_meeting_ui.obj
 0001:00021810       ??_G?$TListImpl@PAVIAlternativeHostInfo@ZOOMSDK@@@@UAEPAXI@Z 00422810 f i schedule_meeting_ui.obj
 0001:00021810       ??_E?$TListImpl@PAVIAlternativeHostInfo@ZOOMSDK@@@@UAEPAXI@Z 00422810 f i schedule_meeting_ui.obj
 0001:00021840       ??_G?$TListImpl@PAVIInterpreterInfo@ZOOMSDK@@@@UAEPAXI@Z 00422840 f i schedule_meeting_ui.obj
 0001:00021840       ??_E?$TListImpl@PAVIInterpreterInfo@ZOOMSDK@@@@UAEPAXI@Z 00422840 f i schedule_meeting_ui.obj
 0001:00021870       ??_E?$basic_stringbuf@_WU?$char_traits@_W@std@@V?$allocator@_W@2@@std@@UAEPAXI@Z 00422870 f i schedule_meeting_ui.obj
 0001:00021870       ??_G?$basic_stringbuf@_WU?$char_traits@_W@std@@V?$allocator@_W@2@@std@@UAEPAXI@Z 00422870 f i schedule_meeting_ui.obj
 0001:000218a0       ??_G?$basic_stringstream@_WU?$char_traits@_W@std@@V?$allocator@_W@2@@std@@UAEPAXI@Z 004228a0 f i schedule_meeting_ui.obj
 0001:000218a0       ??_E?$basic_stringstream@_WU?$char_traits@_W@std@@V?$allocator@_W@2@@std@@UAEPAXI@Z 004228a0 f i schedule_meeting_ui.obj
 0001:000218e0       ??_GCDialInCountryUIMgr@@QAEPAXI@Z 004228e0 f i schedule_meeting_ui.obj
 0001:00021920       ??_ECSDKSheduleMeetingUIGroup@@UAEPAXI@Z 00422920 f i schedule_meeting_ui.obj
 0001:00021920       ??_GCSDKSheduleMeetingUIGroup@@UAEPAXI@Z 00422920 f i schedule_meeting_ui.obj
 0001:00021960       ??_GCSDKSheduleMeetingUIMgr@@UAEPAXI@Z 00422960 f i schedule_meeting_ui.obj
 0001:00021960       ??_ECSDKSheduleMeetingUIMgr@@UAEPAXI@Z 00422960 f i schedule_meeting_ui.obj
 0001:000219a0       ??_EIAlternativeHostInfo@ZOOMSDK@@UAEPAXI@Z 004229a0 f i schedule_meeting_ui.obj
 0001:000219a0       ??_GIAlternativeHostInfo@ZOOMSDK@@UAEPAXI@Z 004229a0 f i schedule_meeting_ui.obj
 0001:000219d0       ??_GIInterpreterInfo@ZOOMSDK@@UAEPAXI@Z 004229d0 f i schedule_meeting_ui.obj
 0001:000219d0       ??_EIInterpreterInfo@ZOOMSDK@@UAEPAXI@Z 004229d0 f i schedule_meeting_ui.obj
 0001:00021a00       ??_ETAlternativeHostInfo@@UAEPAXI@Z 00422a00 f i schedule_meeting_ui.obj
 0001:00021a00       ??_GTAlternativeHostInfo@@UAEPAXI@Z 00422a00 f i schedule_meeting_ui.obj
 0001:00021a30       ??_ETInterpreterInfo@@UAEPAXI@Z 00422a30 f i schedule_meeting_ui.obj
 0001:00021a30       ??_GTInterpreterInfo@@UAEPAXI@Z 00422a30 f i schedule_meeting_ui.obj
 0001:00021a60       ?DoClickBackBtn@CSDKSheduleMeetingUIGroup@@QAEXXZ 00422a60 f   schedule_meeting_ui.obj
 0001:00021a90       ?DoClickDeleteMeetingBtn@CSDKSheduleMeetingUIGroup@@QAEXXZ 00422a90 f   schedule_meeting_ui.obj
 0001:00021c50       ?DoClickEditDialInCountryBtn@CSDKSheduleMeetingUIGroup@@QAEXXZ 00422c50 f   schedule_meeting_ui.obj
 0001:00021dc0       ?DoClickEditMeetingBtn@CSDKSheduleMeetingUIGroup@@QAEXXZ 00422dc0 f   schedule_meeting_ui.obj
 0001:00022e80       ?DoClickScheduleBtn@CSDKSheduleMeetingUIGroup@@QAEXXZ 00423e80 f   schedule_meeting_ui.obj
 0001:00022f40       ?DoClickViewPublicListBtn@CSDKSheduleMeetingUIGroup@@QAEXXZ 00423f40 f   schedule_meeting_ui.obj
 0001:00022fd0       ?DoEdit@CSDKSheduleMeetingUIGroup@@QAEXXZ 00423fd0 f   schedule_meeting_ui.obj
 0001:00024100       ?DoSchedule@CSDKSheduleMeetingUIGroup@@QAEXXZ 00425100 f   schedule_meeting_ui.obj
 0001:00025290       ?GetCount@CSDKVBGImageList@@QAEHXZ 00426290 f i settings_ui.obj
 0001:00025290       ?GetCount@CSDKUserList@@QAEHXZ 00426290 f i user_manager.obj
 0001:00025290       ?GetCount@?$TListImpl@PAVIAlternativeHostInfo@ZOOMSDK@@@@UAEHXZ 00426290 f i schedule_meeting_ui.obj
 0001:00025290       ?GetCount@?$TListImpl@PAVIInterpreterInfo@ZOOMSDK@@@@UAEHXZ 00426290 f i schedule_meeting_ui.obj
 0001:000252b0       ?GetEditMeetingStatus@CSDKSheduleMeetingUIGroup@@QAE_NXZ 004262b0 f   schedule_meeting_ui.obj
 0001:000252d0       ?GetEmail@TAlternativeHostInfo@@UAEPB_WXZ 004262d0 f i schedule_meeting_ui.obj
 0001:000252d0       ?GetEmail@TInterpreterInfo@@UAEPB_WXZ 004262d0 f i schedule_meeting_ui.obj
 0001:000252f0       ?GetFirstLanguageInfo@TInterpreterInfo@@UAE?AW4InterpreteLanguageInfo@ZOOMSDK@@XZ 004262f0 f i schedule_meeting_ui.obj
 0001:00025310       ?GetItem@?$TListImpl@PAVIInterpreterInfo@ZOOMSDK@@@@UAEPAVIInterpreterInfo@ZOOMSDK@@H@Z 00426310 f i schedule_meeting_ui.obj
 0001:00025310       ?GetItem@?$TListImpl@PAVIAlternativeHostInfo@ZOOMSDK@@@@UAEPAVIAlternativeHostInfo@ZOOMSDK@@H@Z 00426310 f i schedule_meeting_ui.obj
 0001:00025360       ?GetSecendLanguageInfo@TInterpreterInfo@@UAE?AW4InterpreteLanguageInfo@ZOOMSDK@@XZ 00426360 f i schedule_meeting_ui.obj
 0001:00025380       ?GetSkinRes@CSDKSheduleMeetingUIMgr@@UAEIXZ 00426380 f i schedule_meeting_ui.obj
 0001:00025390       ?HandleMessage@CSDKSheduleMeetingUIMgr@@UAEJIIJ@Z 00426390 f   schedule_meeting_ui.obj
 0001:00025590       ?InitDialInCountry@CSDKSheduleMeetingUIGroup@@QAEXXZ 00426590 f   schedule_meeting_ui.obj
 0001:000257b0       ?InitWindow@CSDKSheduleMeetingUIGroup@@QAEXAAVCPaintManagerUI@DuiLib@@PAVCSDKSheduleMeetingUIMgr@@@Z 004267b0 f   schedule_meeting_ui.obj
 0001:00025b30       ?InitWindow@CSDKSheduleMeetingUIMgr@@UAEXXZ 00426b30 f   schedule_meeting_ui.obj
 0001:00025d50       ?Notify@CSDKSheduleMeetingUIGroup@@QAEXAAUtagTNotifyUI@DuiLib@@@Z 00426d50 f   schedule_meeting_ui.obj
 0001:00026250       ?Notify@CSDKSheduleMeetingUIMgr@@UAEXAAUtagTNotifyUI@DuiLib@@@Z 00427250 f   schedule_meeting_ui.obj
 0001:00026350       ?OnClose@CSDKSheduleMeetingUIMgr@@QAEJIIJAAH@Z 00427350 f   schedule_meeting_ui.obj
 0001:00026350       ?OnClose@CSDKSettingsUIMgr@@QAEJIIJAAH@Z 00427350 f   settings_ui.obj
 0001:00026360       ?OnDestroy@CSDKSheduleMeetingUIMgr@@QAEJIIJAAH@Z 00427360 f   schedule_meeting_ui.obj
 0001:00026380       ?SetEvent@CSDKSheduleMeetingUIMgr@@QAEXPAVCSDKDemoAppEvent@@@Z 00427380 f   schedule_meeting_ui.obj
 0001:000263a0       ?SetNotBeEditMeeting@CSDKSheduleMeetingUIGroup@@QAEXXZ 004273a0 f   schedule_meeting_ui.obj
 0001:000263c0       ?ShowErrorMessage@CSDKSheduleMeetingUIMgr@@QAEXPB_W@Z 004273c0 f   schedule_meeting_ui.obj
 0001:000263e0       ?ShowErrorMessage@CSDKSheduleMeetingUIMgr@@QAEXW4ErrorMessageType@@@Z 004273e0 f   schedule_meeting_ui.obj
 0001:00026540       ?ShowLocaltime@CSDKSheduleMeetingUIGroup@@QAEXXZ 00427540 f   schedule_meeting_ui.obj
 0001:00026620       ?ShowWaitingGif@CSDKSheduleMeetingUIMgr@@QAEX_N@Z 00427620 f   schedule_meeting_ui.obj
 0001:000266b0       ?StringToDatetime@@YA_JPB_W@Z 004276b0 f   schedule_meeting_ui.obj
 0001:00026750       ?SwitchToPage@CSDKSheduleMeetingUIMgr@@QAEXW4PreMeetingPageType@@@Z 00427750 f   schedule_meeting_ui.obj
 0001:000269f0       ?UninitWindow@CSDKSheduleMeetingUIGroup@@QAEXXZ 004279f0 f   schedule_meeting_ui.obj
 0001:00026a20       ?UpdateRecurringMeetingUI@CSDKSheduleMeetingUIGroup@@QAEXXZ 00427a20 f   schedule_meeting_ui.obj
 0001:00026af0       ?_Become_small@?$basic_string@_WU?$char_traits@_W@std@@V?$allocator@_W@2@@std@@QAEXXZ 00427af0 f i schedule_meeting_ui.obj
 0001:00026b80       ?_Calculate_growth@?$vector@PAVIAlternativeHostInfo@ZOOMSDK@@V?$allocator@PAVIAlternativeHostInfo@ZOOMSDK@@@std@@@std@@ABEII@Z 00427b80 f i schedule_meeting_ui.obj
 0001:00026b80       ?_Calculate_growth@?$vector@PAVIVirtualBGImageInfo@ZOOMSDK@@V?$allocator@PAVIVirtualBGImageInfo@ZOOMSDK@@@std@@@std@@ABEII@Z 00427b80 f i settings_ui.obj
 0001:00026b80       ?_Calculate_growth@?$vector@PAVIUserInfo@ZOOMSDK@@V?$allocator@PAVIUserInfo@ZOOMSDK@@@std@@@std@@ABEII@Z 00427b80 f i user_manager.obj
 0001:00026b80       ?_Calculate_growth@?$vector@PAVIInterpreterInfo@ZOOMSDK@@V?$allocator@PAVIInterpreterInfo@ZOOMSDK@@@std@@@std@@ABEII@Z 00427b80 f i schedule_meeting_ui.obj
 0001:00026bd0       ?_Change_array@?$vector@PAVIVirtualBGImageInfo@ZOOMSDK@@V?$allocator@PAVIVirtualBGImageInfo@ZOOMSDK@@@std@@@std@@AAEXQAPAVIVirtualBGImageInfo@ZOOMSDK@@II@Z 00427bd0 f i settings_ui.obj
 0001:00026bd0       ?_Change_array@?$vector@PAVIUserInfo@ZOOMSDK@@V?$allocator@PAVIUserInfo@ZOOMSDK@@@std@@@std@@AAEXQAPAVIUserInfo@ZOOMSDK@@II@Z 00427bd0 f i user_manager.obj
 0001:00026bd0       ?_Change_array@?$vector@PAVIAlternativeHostInfo@ZOOMSDK@@V?$allocator@PAVIAlternativeHostInfo@ZOOMSDK@@@std@@@std@@AAEXQAPAVIAlternativeHostInfo@ZOOMSDK@@II@Z 00427bd0 f i schedule_meeting_ui.obj
 0001:00026bd0       ?_Change_array@?$vector@PAVIInterpreterInfo@ZOOMSDK@@V?$allocator@PAVIInterpreterInfo@ZOOMSDK@@@std@@@std@@AAEXQAPAVIInterpreterInfo@ZOOMSDK@@II@Z 00427bd0 f i schedule_meeting_ui.obj
 0001:00026c70       ?_Construct_lv_contents@?$basic_string@_WU?$char_traits@_W@std@@V?$allocator@_W@2@@std@@QAEXABV12@@Z 00427c70 f i schedule_meeting_ui.obj
 0001:00026d70       ?_Destroy@?$vector@PAVIInterpreterInfo@ZOOMSDK@@V?$allocator@PAVIInterpreterInfo@ZOOMSDK@@@std@@@std@@AAEXPAPAVIInterpreterInfo@ZOOMSDK@@0@Z 00427d70 f i schedule_meeting_ui.obj
 0001:00026d70       ?_Destroy@?$vector@PAVIVirtualBGImageInfo@ZOOMSDK@@V?$allocator@PAVIVirtualBGImageInfo@ZOOMSDK@@@std@@@std@@AAEXPAPAVIVirtualBGImageInfo@ZOOMSDK@@0@Z 00427d70 f i settings_ui.obj
 0001:00026d70       ?_Destroy@?$vector@PAVIAlternativeHostInfo@ZOOMSDK@@V?$allocator@PAVIAlternativeHostInfo@ZOOMSDK@@@std@@@std@@AAEXPAPAVIAlternativeHostInfo@ZOOMSDK@@0@Z 00427d70 f i schedule_meeting_ui.obj
 0001:00026d70       ?_Destroy@?$vector@PAVIUserInfo@ZOOMSDK@@V?$allocator@PAVIUserInfo@ZOOMSDK@@@std@@@std@@AAEXPAPAVIUserInfo@ZOOMSDK@@0@Z 00427d70 f i user_manager.obj
 0001:00026da0       ?_Eos@?$basic_string@_WU?$char_traits@_W@std@@V?$allocator@_W@2@@std@@QAEXI@Z 00427da0 f i schedule_meeting_ui.obj
 0001:00026df0       ?_Getstate@?$basic_stringbuf@_WU?$char_traits@_W@std@@V?$allocator@_W@2@@std@@CAHH@Z 00427df0 f i schedule_meeting_ui.obj
 0001:00026e50       ?_Init@?$basic_stringbuf@_WU?$char_traits@_W@std@@V?$allocator@_W@2@@std@@IAEXPB_WIH@Z 00427e50 f i schedule_meeting_ui.obj
 0001:00026f60       ?_Tidy@?$basic_stringbuf@_WU?$char_traits@_W@std@@V?$allocator@_W@2@@std@@IAEXXZ 00427f60 f i schedule_meeting_ui.obj
 0001:00027010       ?_Tidy@?$vector@PAVIVirtualBGImageInfo@ZOOMSDK@@V?$allocator@PAVIVirtualBGImageInfo@ZOOMSDK@@@std@@@std@@AAEXXZ 00428010 f i settings_ui.obj
 0001:00027010       ?_Tidy@?$vector@PAVIAlternativeHostInfo@ZOOMSDK@@V?$allocator@PAVIAlternativeHostInfo@ZOOMSDK@@@std@@@std@@AAEXXZ 00428010 f i schedule_meeting_ui.obj
 0001:00027010       ?_Tidy@?$vector@PAVIInterpreterInfo@ZOOMSDK@@V?$allocator@PAVIInterpreterInfo@ZOOMSDK@@@std@@@std@@AAEXXZ 00428010 f i schedule_meeting_ui.obj
 0001:00027010       ?_Tidy@?$vector@PAVIUserInfo@ZOOMSDK@@V?$allocator@PAVIUserInfo@ZOOMSDK@@@std@@@std@@AAEXXZ 00428010 f i user_manager.obj
 0001:000270a0       ?_Umove@?$vector@PAVIAlternativeHostInfo@ZOOMSDK@@V?$allocator@PAVIAlternativeHostInfo@ZOOMSDK@@@std@@@std@@AAEPAPAVIAlternativeHostInfo@ZOOMSDK@@PAPAV34@00@Z 004280a0 f i schedule_meeting_ui.obj
 0001:000270a0       ?_Umove@?$vector@PAVIUserInfo@ZOOMSDK@@V?$allocator@PAVIUserInfo@ZOOMSDK@@@std@@@std@@AAEPAPAVIUserInfo@ZOOMSDK@@PAPAV34@00@Z 004280a0 f i user_manager.obj
 0001:000270a0       ?_Umove@?$vector@PAVIVirtualBGImageInfo@ZOOMSDK@@V?$allocator@PAVIVirtualBGImageInfo@ZOOMSDK@@@std@@@std@@AAEPAPAVIVirtualBGImageInfo@ZOOMSDK@@PAPAV34@00@Z 004280a0 f i settings_ui.obj
 0001:000270a0       ?_Umove@?$vector@PAVIInterpreterInfo@ZOOMSDK@@V?$allocator@PAVIInterpreterInfo@ZOOMSDK@@@std@@@std@@AAEPAPAVIInterpreterInfo@ZOOMSDK@@PAPAV34@00@Z 004280a0 f i schedule_meeting_ui.obj
 0001:000270d0       ?_Umove_if_noexcept1@?$vector@PAVIAlternativeHostInfo@ZOOMSDK@@V?$allocator@PAVIAlternativeHostInfo@ZOOMSDK@@@std@@@std@@AAEXPAPAVIAlternativeHostInfo@ZOOMSDK@@00U?$integral_constant@_N$00@2@@Z 004280d0 f i schedule_meeting_ui.obj
 0001:000270d0       ?_Umove_if_noexcept1@?$vector@PAVIVirtualBGImageInfo@ZOOMSDK@@V?$allocator@PAVIVirtualBGImageInfo@ZOOMSDK@@@std@@@std@@AAEXPAPAVIVirtualBGImageInfo@ZOOMSDK@@00U?$integral_constant@_N$00@2@@Z 004280d0 f i settings_ui.obj
 0001:000270d0       ?_Umove_if_noexcept1@?$vector@PAVIInterpreterInfo@ZOOMSDK@@V?$allocator@PAVIInterpreterInfo@ZOOMSDK@@@std@@@std@@AAEXPAPAVIInterpreterInfo@ZOOMSDK@@00U?$integral_constant@_N$00@2@@Z 004280d0 f i schedule_meeting_ui.obj
 0001:000270d0       ?_Umove_if_noexcept1@?$vector@PAVIUserInfo@ZOOMSDK@@V?$allocator@PAVIUserInfo@ZOOMSDK@@@std@@@std@@AAEXPAPAVIUserInfo@ZOOMSDK@@00U?$integral_constant@_N$00@2@@Z 004280d0 f i user_manager.obj
 0001:00027100       ?_Umove_if_noexcept@?$vector@PAVIVirtualBGImageInfo@ZOOMSDK@@V?$allocator@PAVIVirtualBGImageInfo@ZOOMSDK@@@std@@@std@@AAEXPAPAVIVirtualBGImageInfo@ZOOMSDK@@00@Z 00428100 f i settings_ui.obj
 0001:00027100       ?_Umove_if_noexcept@?$vector@PAVIInterpreterInfo@ZOOMSDK@@V?$allocator@PAVIInterpreterInfo@ZOOMSDK@@@std@@@std@@AAEXPAPAVIInterpreterInfo@ZOOMSDK@@00@Z 00428100 f i schedule_meeting_ui.obj
 0001:00027100       ?_Umove_if_noexcept@?$vector@PAVIAlternativeHostInfo@ZOOMSDK@@V?$allocator@PAVIAlternativeHostInfo@ZOOMSDK@@@std@@@std@@AAEXPAPAVIAlternativeHostInfo@ZOOMSDK@@00@Z 00428100 f i schedule_meeting_ui.obj
 0001:00027100       ?_Umove_if_noexcept@?$vector@PAVIUserInfo@ZOOMSDK@@V?$allocator@PAVIUserInfo@ZOOMSDK@@@std@@@std@@AAEXPAPAVIUserInfo@ZOOMSDK@@00@Z 00428100 f i user_manager.obj
 0001:00027130       ?allocate@?$allocator@PAVIVirtualBGImageInfo@ZOOMSDK@@@std@@QAEPAPAVIVirtualBGImageInfo@ZOOMSDK@@I@Z 00428130 f i settings_ui.obj
 0001:00027130       ?allocate@?$allocator@PAVIAlternativeHostInfo@ZOOMSDK@@@std@@QAEPAPAVIAlternativeHostInfo@ZOOMSDK@@I@Z 00428130 f i schedule_meeting_ui.obj
 0001:00027130       ?allocate@?$allocator@PAVIUserInfo@ZOOMSDK@@@std@@QAEPAPAVIUserInfo@ZOOMSDK@@I@Z 00428130 f i user_manager.obj
 0001:00027130       ?allocate@?$allocator@PAVIInterpreterInfo@ZOOMSDK@@@std@@QAEPAPAVIInterpreterInfo@ZOOMSDK@@I@Z 00428130 f i schedule_meeting_ui.obj
 0001:00027160       ?capacity@?$vector@PAVIVirtualBGImageInfo@ZOOMSDK@@V?$allocator@PAVIVirtualBGImageInfo@ZOOMSDK@@@std@@@std@@QBEIXZ 00428160 f i settings_ui.obj
 0001:00027160       ?capacity@?$vector@PAVIInterpreterInfo@ZOOMSDK@@V?$allocator@PAVIInterpreterInfo@ZOOMSDK@@@std@@@std@@QBEIXZ 00428160 f i schedule_meeting_ui.obj
 0001:00027160       ?capacity@?$vector@PAVIAlternativeHostInfo@ZOOMSDK@@V?$allocator@PAVIAlternativeHostInfo@ZOOMSDK@@@std@@@std@@QBEIXZ 00428160 f i schedule_meeting_ui.obj
 0001:00027160       ?capacity@?$vector@PAVIUserInfo@ZOOMSDK@@V?$allocator@PAVIUserInfo@ZOOMSDK@@@std@@@std@@QBEIXZ 00428160 f i user_manager.obj
 0001:00027190       ?deallocate@?$allocator@PAVIUserInfo@ZOOMSDK@@@std@@QAEXQAPAVIUserInfo@ZOOMSDK@@I@Z 00428190 f i user_manager.obj
 0001:00027190       ?deallocate@?$allocator@PAVIInterpreterInfo@ZOOMSDK@@@std@@QAEXQAPAVIInterpreterInfo@ZOOMSDK@@I@Z 00428190 f i schedule_meeting_ui.obj
 0001:00027190       ?deallocate@?$allocator@PAVIVirtualBGImageInfo@ZOOMSDK@@@std@@QAEXQAPAVIVirtualBGImageInfo@ZOOMSDK@@I@Z 00428190 f i settings_ui.obj
 0001:00027190       ?deallocate@?$allocator@PAVIAlternativeHostInfo@ZOOMSDK@@@std@@QAEXQAPAVIAlternativeHostInfo@ZOOMSDK@@I@Z 00428190 f i schedule_meeting_ui.obj
 0001:000271b0       ?eof@?$_WChar_traits@_W@std@@SAGXZ 004281b0 f i schedule_meeting_ui.obj
 0001:000271c0       ?eq@?$_WChar_traits@_W@std@@SA_NAB_W0@Z 004281c0 f i schedule_meeting_ui.obj
 0001:000271c0       ?eq_int_type@?$_WChar_traits@_W@std@@SA_NABG0@Z 004281c0 f i schedule_meeting_ui.obj
 0001:000271f0       ?erase@?$basic_string@_WU?$char_traits@_W@std@@V?$allocator@_W@2@@std@@QAEAAV12@I@Z 004281f0 f i schedule_meeting_ui.obj
 0001:00027230       ?max_size@?$_Default_allocator_traits@V?$allocator@PAVIAlternativeHostInfo@ZOOMSDK@@@std@@@std@@SAIABV?$allocator@PAVIAlternativeHostInfo@ZOOMSDK@@@2@@Z 00428230 f i schedule_meeting_ui.obj
 0001:00027230       ?max_size@?$_Default_allocator_traits@V?$allocator@PAVIUserInfo@ZOOMSDK@@@std@@@std@@SAIABV?$allocator@PAVIUserInfo@ZOOMSDK@@@2@@Z 00428230 f i user_manager.obj
 0001:00027230       ?max_size@?$_Default_allocator_traits@V?$allocator@PAVIVirtualBGImageInfo@ZOOMSDK@@@std@@@std@@SAIABV?$allocator@PAVIVirtualBGImageInfo@ZOOMSDK@@@2@@Z 00428230 f i settings_ui.obj
 0001:00027230       ?max_size@?$_Default_allocator_traits@V?$allocator@PAVIInterpreterInfo@ZOOMSDK@@@std@@@std@@SAIABV?$allocator@PAVIInterpreterInfo@ZOOMSDK@@@2@@Z 00428230 f i schedule_meeting_ui.obj
 0001:00027240       ?max_size@?$vector@PAVIAlternativeHostInfo@ZOOMSDK@@V?$allocator@PAVIAlternativeHostInfo@ZOOMSDK@@@std@@@std@@QBEIXZ 00428240 f i schedule_meeting_ui.obj
 0001:00027240       ?max_size@?$vector@PAVIVirtualBGImageInfo@ZOOMSDK@@V?$allocator@PAVIVirtualBGImageInfo@ZOOMSDK@@@std@@@std@@QBEIXZ 00428240 f i settings_ui.obj
 0001:00027240       ?max_size@?$vector@PAVIUserInfo@ZOOMSDK@@V?$allocator@PAVIUserInfo@ZOOMSDK@@@std@@@std@@QBEIXZ 00428240 f i user_manager.obj
 0001:00027240       ?max_size@?$vector@PAVIInterpreterInfo@ZOOMSDK@@V?$allocator@PAVIInterpreterInfo@ZOOMSDK@@@std@@@std@@QBEIXZ 00428240 f i schedule_meeting_ui.obj
 0001:00027280       ?not_eof@?$_WChar_traits@_W@std@@SAGABG@Z 00428280 f i schedule_meeting_ui.obj
 0001:000272e0       ?onDeleteMeeting@CSDKSheduleMeetingUIGroup@@UAEXW4PremeetingAPIResult@ZOOMSDK@@@Z 004282e0 f   schedule_meeting_ui.obj
 0001:00027390       ?onListMeeting@CSDKSheduleMeetingUIGroup@@UAEXW4PremeetingAPIResult@ZOOMSDK@@PAV?$IList@_K@3@@Z 00428390 f   schedule_meeting_ui.obj
 0001:000276d0       ?onScheduleOrEditMeeting@CSDKSheduleMeetingUIGroup@@UAEXW4PremeetingAPIResult@ZOOMSDK@@_K@Z 004286d0 f   schedule_meeting_ui.obj
 0001:00027ae0       ?overflow@?$basic_stringbuf@_WU?$char_traits@_W@std@@V?$allocator@_W@2@@std@@MAEGG@Z 00428ae0 f i schedule_meeting_ui.obj
 0001:00027cf0       ?pbackfail@?$basic_stringbuf@_WU?$char_traits@_W@std@@V?$allocator@_W@2@@std@@MAEGG@Z 00428cf0 f i schedule_meeting_ui.obj
 0001:00027de0       ?pointer_to@?$pointer_traits@PA_W@std@@SAPA_WAA_W@Z 00428de0 f i schedule_meeting_ui.obj
 0001:00027de0       ?pointer_to@?$pointer_traits@PAU?$pair@$$CBIPAVIUserInfo@ZOOMSDK@@@std@@@std@@SAPAU?$pair@$$CBIPAVIUserInfo@ZOOMSDK@@@2@AAU32@@Z 00428de0 f i user_manager.obj
 0001:00027e00       ?push_back@?$basic_string@_WU?$char_traits@_W@std@@V?$allocator@_W@2@@std@@QAEX_W@Z 00428e00 f i schedule_meeting_ui.obj
 0001:00027ea0       ?push_back@?$vector@PAVIAlternativeHostInfo@ZOOMSDK@@V?$allocator@PAVIAlternativeHostInfo@ZOOMSDK@@@std@@@std@@QAEXABQAVIAlternativeHostInfo@ZOOMSDK@@@Z 00428ea0 f i schedule_meeting_ui.obj
 0001:00027ea0       ?push_back@?$vector@PAVIInterpreterInfo@ZOOMSDK@@V?$allocator@PAVIInterpreterInfo@ZOOMSDK@@@std@@@std@@QAEXABQAVIInterpreterInfo@ZOOMSDK@@@Z 00428ea0 f i schedule_meeting_ui.obj
 0001:00027ea0       ?push_back@?$vector@PAVIVirtualBGImageInfo@ZOOMSDK@@V?$allocator@PAVIVirtualBGImageInfo@ZOOMSDK@@@std@@@std@@QAEXABQAVIVirtualBGImageInfo@ZOOMSDK@@@Z 00428ea0 f i settings_ui.obj
 0001:00027ea0       ?push_back@?$vector@PAVIUserInfo@ZOOMSDK@@V?$allocator@PAVIUserInfo@ZOOMSDK@@@std@@@std@@QAEXABQAVIUserInfo@ZOOMSDK@@@Z 00428ea0 f i user_manager.obj
 0001:00027ec0       ?push_back@?$vector@V?$basic_string@_WU?$char_traits@_W@std@@V?$allocator@_W@2@@std@@V?$allocator@V?$basic_string@_WU?$char_traits@_W@std@@V?$allocator@_W@2@@std@@@2@@std@@QAEXABV?$basic_string@_WU?$char_traits@_W@std@@V?$allocator@_W@2@@2@@Z 00428ec0 f i schedule_meeting_ui.obj
 0001:00027ee0       ?reserve@?$basic_string@_WU?$char_traits@_W@std@@V?$allocator@_W@2@@std@@QAEXI@Z 00428ee0 f i schedule_meeting_ui.obj
 0001:00027f70       ?seekoff@?$basic_stringbuf@_WU?$char_traits@_W@std@@V?$allocator@_W@2@@std@@MAE?AV?$fpos@U_Mbstatet@@@2@_JHH@Z 00428f70 f i schedule_meeting_ui.obj
 0001:00028180       ?seekpos@?$basic_stringbuf@_WU?$char_traits@_W@std@@V?$allocator@_W@2@@std@@MAE?AV?$fpos@U_Mbstatet@@@2@V32@H@Z 00429180 f i schedule_meeting_ui.obj
 0001:000282d0       ?size@?$vector@PAVIAlternativeHostInfo@ZOOMSDK@@V?$allocator@PAVIAlternativeHostInfo@ZOOMSDK@@@std@@@std@@QBEIXZ 004292d0 f i schedule_meeting_ui.obj
 0001:000282d0       ?size@?$vector@PAVIInterpreterInfo@ZOOMSDK@@V?$allocator@PAVIInterpreterInfo@ZOOMSDK@@@std@@@std@@QBEIXZ 004292d0 f i schedule_meeting_ui.obj
 0001:000282d0       ?size@?$vector@PAVIUserInfo@ZOOMSDK@@V?$allocator@PAVIUserInfo@ZOOMSDK@@@std@@@std@@QBEIXZ 004292d0 f i user_manager.obj
 0001:000282d0       ?size@?$vector@PAVIVirtualBGImageInfo@ZOOMSDK@@V?$allocator@PAVIVirtualBGImageInfo@ZOOMSDK@@@std@@@std@@QBEIXZ 004292d0 f i settings_ui.obj
 0001:00028300       ?str@?$basic_stringbuf@_WU?$char_traits@_W@std@@V?$allocator@_W@2@@std@@QAEXABV?$basic_string@_WU?$char_traits@_W@std@@V?$allocator@_W@2@@2@@Z 00429300 f i schedule_meeting_ui.obj
 0001:00028340       ?str@?$basic_stringstream@_WU?$char_traits@_W@std@@V?$allocator@_W@2@@std@@QAEXABV?$basic_string@_WU?$char_traits@_W@std@@V?$allocator@_W@2@@2@@Z 00429340 f i schedule_meeting_ui.obj
 0001:00028360       ?to_int_type@?$_WChar_traits@_W@std@@SAGAB_W@Z 00429360 f i schedule_meeting_ui.obj
 0001:00028360       ?to_char_type@?$_WChar_traits@_W@std@@SA_WABG@Z 00429360 f i schedule_meeting_ui.obj
 0001:00028370       ?underflow@?$basic_stringbuf@_WU?$char_traits@_W@std@@V?$allocator@_W@2@@std@@MAEGXZ 00429370 f i schedule_meeting_ui.obj
 0001:00028440       __vswscanf_l               00429440 f i schedule_meeting_ui.obj
 0001:00028490       _swscanf                   00429490 f i schedule_meeting_ui.obj
 0001:000284d0       ??0CSDKSheduleMeetingUIWorkFlow@@QAE@XZ 004294d0 f   schedule_meeting_workflow.obj
 0001:00028520       ??0IPreMeetingServiceEvent@ZOOMSDK@@QAE@XZ 00429520 f i schedule_meeting_workflow.obj
 0001:00028540       ??1CSDKSheduleMeetingUIWorkFlow@@UAE@XZ 00429540 f   schedule_meeting_workflow.obj
 0001:000285a0       ??_ECSDKSheduleMeetingUIWorkFlow@@UAEPAXI@Z 004295a0 f i schedule_meeting_workflow.obj
 0001:000285a0       ??_GCSDKSheduleMeetingUIWorkFlow@@UAEPAXI@Z 004295a0 f i schedule_meeting_workflow.obj
 0001:000285d0       ?DeleteMeeting@CSDKSheduleMeetingUIWorkFlow@@QAE?AW4SDKError@ZOOMSDK@@_K@Z 004295d0 f   schedule_meeting_workflow.obj
 0001:00028610       ?EditMeeting@CSDKSheduleMeetingUIWorkFlow@@QAE?AW4SDKError@ZOOMSDK@@XZ 00429610 f   schedule_meeting_workflow.obj
 0001:00028660       ?GetEditMeetingItem@CSDKSheduleMeetingUIWorkFlow@@QAEPAVIScheduleMeetingItem@ZOOMSDK@@_K@Z 00429660 f   schedule_meeting_workflow.obj
 0001:000286e0       ?GetMeeingItem@CSDKSheduleMeetingUIWorkFlow@@QAEPAVIMeetingItemInfo@ZOOMSDK@@_K@Z 004296e0 f   schedule_meeting_workflow.obj
 0001:00028720       ?GetScheduleMeetingItem@CSDKSheduleMeetingUIWorkFlow@@QAEPAVIScheduleMeetingItem@ZOOMSDK@@XZ 00429720 f   schedule_meeting_workflow.obj
 0001:000287a0       ?Init@CSDKSheduleMeetingUIWorkFlow@@QAE_NXZ 004297a0 f   schedule_meeting_workflow.obj
 0001:00028820       ?ListMeeting@CSDKSheduleMeetingUIWorkFlow@@QAE?AW4SDKError@ZOOMSDK@@XZ 00429820 f   schedule_meeting_workflow.obj
 0001:00028860       ?ScheduleMeeting@CSDKSheduleMeetingUIWorkFlow@@QAE?AW4SDKError@ZOOMSDK@@XZ 00429860 f   schedule_meeting_workflow.obj
 0001:000288a0       ?SetEvent@CSDKSheduleMeetingUIWorkFlow@@QAEXPAVCSDKSheduleMeetingUIEvent@@@Z 004298a0 f   schedule_meeting_workflow.obj
 0001:000288c0       ?Uninit@CSDKSheduleMeetingUIWorkFlow@@QAE_NXZ 004298c0 f   schedule_meeting_workflow.obj
 0001:00028950       ?onDeleteMeeting@CSDKSheduleMeetingUIWorkFlow@@UAEXW4PremeetingAPIResult@ZOOMSDK@@@Z 00429950 f   schedule_meeting_workflow.obj
 0001:00028980       ?onListMeeting@CSDKSheduleMeetingUIWorkFlow@@UAEXW4PremeetingAPIResult@ZOOMSDK@@PAV?$IList@_K@3@@Z 00429980 f   schedule_meeting_workflow.obj
 0001:000289b0       ?onScheduleOrEditMeeting@CSDKSheduleMeetingUIWorkFlow@@UAEXW4PremeetingAPIResult@ZOOMSDK@@_K@Z 004299b0 f   schedule_meeting_workflow.obj
 0001:000289f0       ??0CSDKDemoApp@@QAE@XZ     004299f0 f   sdk_demo_app.obj
 0001:00028a60       ??0CSDKDemoAppEvent@@QAE@XZ 00429a60 f i sdk_demo_app.obj
 0001:00028a80       ??1CCustomizeInMeetingUIMgr@@QAE@XZ 00429a80 f i sdk_demo_app.obj
 0001:00028ab0       ??1CSDKDemoApp@@UAE@XZ     00429ab0 f   sdk_demo_app.obj
 0001:00028ca0       ??_GCCustomizeInMeetingUIMgr@@QAEPAXI@Z 00429ca0 f i sdk_demo_app.obj
 0001:00028ce0       ??_GCSDKDemoApp@@UAEPAXI@Z 00429ce0 f i sdk_demo_app.obj
 0001:00028ce0       ??_ECSDKDemoApp@@UAEPAXI@Z 00429ce0 f i sdk_demo_app.obj
 0001:00028d10       ?ActivateCustomizedUI@CSDKDemoApp@@UAEXXZ 00429d10 f   sdk_demo_app.obj
 0001:00028d30       ?InitCustomizedUI@CSDKDemoApp@@UAEXXZ 00429d30 f   sdk_demo_app.obj
 0001:00028e10       ?Run@CSDKDemoApp@@QAEXPAUHINSTANCE__@@@Z 00429e10 f   sdk_demo_app.obj
 0001:00028fb0       ?Stop@CSDKDemoApp@@QAEXXZ  00429fb0 f   sdk_demo_app.obj
 0001:00029090       ?onJoinFailed@CSDKDemoApp@@UAEXXZ 0042a090 f   sdk_demo_app.obj
 0001:000290e0       ?onLoginFailed@CSDKDemoApp@@UAEXXZ 0042a0e0 f   sdk_demo_app.obj
 0001:00029110       ?onPageButtonClick@CSDKDemoApp@@UAEXW4ArrowButtonType@@@Z 0042a110 f   sdk_demo_app.obj
 0001:00029140       ?onQuitApp@CSDKDemoApp@@UAEXXZ 0042a140 f   sdk_demo_app.obj
 0001:00029160       ?onShowCameraControlWindow@CSDKDemoApp@@UAEXXZ 0042a160 f   sdk_demo_app.obj
 0001:00029180       ?onShowChatWindow@CSDKDemoApp@@UAEXXZ 0042a180 f   sdk_demo_app.obj
 0001:000291a0       ?onShowGalleryViewWindow@CSDKDemoApp@@UAEXXZ 0042a1a0 f   sdk_demo_app.obj
 0001:000291c0       ?onShowLoggedInUI@CSDKDemoApp@@UAEXW4LoggedIn_MeetingUI_type@@@Z 0042a1c0 f   sdk_demo_app.obj
 0001:00029390       ?onShowMoreMenuWindow@CSDKDemoApp@@UAEXHH@Z 0042a390 f   sdk_demo_app.obj
 0001:000293c0       ?onShowParticipantWindow@CSDKDemoApp@@UAEXXZ 0042a3c0 f   sdk_demo_app.obj
 0001:000293e0       ?onShowSettingsUI@CSDKDemoApp@@UAEXW4SettingsUI_page@@@Z 0042a3e0 f   sdk_demo_app.obj
 0001:000294e0       ?onShowShareWindow@CSDKDemoApp@@UAEXXZ 0042a4e0 f   sdk_demo_app.obj
 0001:00029500       ?onSwitchToJoinMeetingForLoginUserUI@CSDKDemoApp@@UAEXXZ 0042a500 f   sdk_demo_app.obj
 0001:00029610       ?onSwitchToLoginUI@CSDKDemoApp@@UAEXW4SwitchToLoginUIType@@@Z 0042a610 f   sdk_demo_app.obj
 0001:000297c0       ?onSwitchToScheduleMeetingUI@CSDKDemoApp@@UAEXXZ 0042a7c0 f   sdk_demo_app.obj
 0001:000298d0       _WinMain@16                0042a8d0 f   sdk_demo_v2.obj
 0001:00029950       ??0CAuthSDKUIGroup@@QAE@XZ 0042a950 f   sdk_init_auth_ui.obj
 0001:00029a00       ??0CAuthSDKWorkFlowUIEvent@@QAE@XZ 0042aa00 f i sdk_init_auth_ui.obj
 0001:00029a20       ??0CInitSDKUIGroup@@QAE@XZ 0042aa20 f   sdk_init_auth_ui.obj
 0001:00029a80       ??0CInitSDKWorkFlowUIEvent@@QAE@XZ 0042aa80 f i sdk_init_auth_ui.obj
 0001:00029aa0       ??0CSDKInitAuthUIMgr@@QAE@XZ 0042aaa0 f   sdk_init_auth_ui.obj
 0001:00029b60       ??0tagAuthContext@ZOOMSDK@@QAE@XZ 0042ab60 f i sdk_init_auth_ui.obj
 0001:00029b60       ??0?$_Tree_unchecked_const_iterator@V?$_Tree_val@U?$_Tree_simple_types@PAVIMeetingParticipantsCtrlEvent@ZOOMSDK@@@std@@@std@@U_Iterator_base0@2@@std@@QAE@XZ 0042ab60 f i sdk_util.obj
 0001:00029b60       ??0?$_Tree_unchecked_const_iterator@V?$_Tree_val@U?$_Tree_simple_types@PAVISDKInMeetingServiceMgrEvent@@@std@@@std@@U_Iterator_base0@2@@std@@QAE@XZ 0042ab60 f i sdk_util.obj
 0001:00029b60       ??0?$_Tree_unchecked_const_iterator@V?$_Tree_val@U?$_Tree_simple_types@PAVIMeetingVideoCtrlEvent@ZOOMSDK@@@std@@@std@@U_Iterator_base0@2@@std@@QAE@XZ 0042ab60 f i sdk_util.obj
 0001:00029b60       ??0?$_Tree_unchecked_const_iterator@V?$_Tree_val@U?$_Tree_simple_types@U?$pair@$$CBIPAVIUserInfo@ZOOMSDK@@@std@@@std@@@std@@U_Iterator_base0@2@@std@@QAE@XZ 0042ab60 f i user_manager.obj
 0001:00029b60       ??0?$_Tree_unchecked_const_iterator@V?$_Tree_val@U?$_Tree_simple_types@PAVIMeetingChatCtrlEvent@ZOOMSDK@@@std@@@std@@U_Iterator_base0@2@@std@@QAE@XZ 0042ab60 f i sdk_util.obj
 0001:00029b60       ??0?$_Tree_unchecked_const_iterator@V?$_Tree_val@U?$_Tree_simple_types@PAVIMeetingServiceEvent@ZOOMSDK@@@std@@@std@@U_Iterator_base0@2@@std@@QAE@XZ 0042ab60 f i sdk_util.obj
 0001:00029b60       ??0?$_Tree_unchecked_const_iterator@V?$_Tree_val@U?$_Tree_simple_types@PAVIPreMeetingServiceEvent@ZOOMSDK@@@std@@@std@@U_Iterator_base0@2@@std@@QAE@XZ 0042ab60 f i sdk_util.obj
 0001:00029b60       ??0?$_Tree_unchecked_const_iterator@V?$_Tree_val@U?$_Tree_simple_types@PAVIClosedCaptionControllerEvent@ZOOMSDK@@@std@@@std@@U_Iterator_base0@2@@std@@QAE@XZ 0042ab60 f i sdk_util.obj
 0001:00029b60       ??0?$_Tree_unchecked_const_iterator@V?$_Tree_val@U?$_Tree_simple_types@PAVIAuthServiceEvent@ZOOMSDK@@@std@@@std@@U_Iterator_base0@2@@std@@QAE@XZ 0042ab60 f i sdk_util.obj
 0001:00029b80       ??0tagConfigurableOptions@ZOOMSDK@@QAE@XZ 0042ab80 f i sdk_init_auth_ui.obj
 0001:00029bb0       ??0tagInitParam@ZOOMSDK@@QAE@XZ 0042abb0 f i sdk_init_auth_ui.obj
 0001:00029c30       ??1CAuthSDKUIGroup@@UAE@XZ 0042ac30 f   sdk_init_auth_ui.obj
 0001:00029c90       ??1CInitSDKUIGroup@@UAE@XZ 0042ac90 f   sdk_init_auth_ui.obj
 0001:00029cf0       ??1CSDKInitAuthUIMgr@@UAE@XZ 0042acf0 f   sdk_init_auth_ui.obj
 0001:00029d60       ??_ECAuthSDKUIGroup@@UAEPAXI@Z 0042ad60 f i sdk_init_auth_ui.obj
 0001:00029d60       ??_GCAuthSDKUIGroup@@UAEPAXI@Z 0042ad60 f i sdk_init_auth_ui.obj
 0001:00029d90       ??_ECInitSDKUIGroup@@UAEPAXI@Z 0042ad90 f i sdk_init_auth_ui.obj
 0001:00029d90       ??_GCInitSDKUIGroup@@UAEPAXI@Z 0042ad90 f i sdk_init_auth_ui.obj
 0001:00029dc0       ??_GCSDKInitAuthUIMgr@@UAEPAXI@Z 0042adc0 f i sdk_init_auth_ui.obj
 0001:00029dc0       ??_ECSDKInitAuthUIMgr@@UAEPAXI@Z 0042adc0 f i sdk_init_auth_ui.obj
 0001:00029e00       ?DoAuth@CAuthSDKUIGroup@@QAEXXZ 0042ae00 f   sdk_init_auth_ui.obj
 0001:00029e40       ?DoAuthBtnClick@CAuthSDKUIGroup@@QAEXXZ 0042ae40 f   sdk_init_auth_ui.obj
 0001:0002a010       ?DoInitBtnClick@CInitSDKUIGroup@@QAEXXZ 0042b010 f   sdk_init_auth_ui.obj
 0001:0002a1d0       ?DoJWTTokenBtnClick@CAuthSDKUIGroup@@QAEXXZ 0042b1d0 f   sdk_init_auth_ui.obj
 0001:0002a310       ?DoUseJWTTokenChkClick@CAuthSDKUIGroup@@QAEXXZ 0042b310 f   sdk_init_auth_ui.obj
 0001:0002a590       ?GetAppEvent@CSDKInitAuthUIMgr@@QAEPAVCSDKDemoAppEvent@@XZ 0042b590 f   sdk_init_auth_ui.obj
 0001:0002a5b0       ?GetSkinRes@CSDKInitAuthUIMgr@@UAEIXZ 0042b5b0 f i sdk_init_auth_ui.obj
 0001:0002a5c0       ?HandleMessage@CSDKInitAuthUIMgr@@UAEJIIJ@Z 0042b5c0 f   sdk_init_auth_ui.obj
 0001:0002a7c0       ?InitWindow@CAuthSDKUIGroup@@QAEXAAVCPaintManagerUI@DuiLib@@PAVCSDKInitAuthUIMgr@@@Z 0042b7c0 f   sdk_init_auth_ui.obj
 0001:0002a850       ?InitWindow@CInitSDKUIGroup@@QAEXAAVCPaintManagerUI@DuiLib@@PAVCSDKInitAuthUIMgr@@@Z 0042b850 f   sdk_init_auth_ui.obj
 0001:0002a8d0       ?InitWindow@CSDKInitAuthUIMgr@@UAEXXZ 0042b8d0 f   sdk_init_auth_ui.obj
 0001:0002aaa0       ?Notify@CAuthSDKUIGroup@@QAEXAAUtagTNotifyUI@DuiLib@@@Z 0042baa0 f   sdk_init_auth_ui.obj
 0001:0002ab00       ?Notify@CInitSDKUIGroup@@QAEXAAUtagTNotifyUI@DuiLib@@@Z 0042bb00 f   sdk_init_auth_ui.obj
 0001:0002ab40       ?Notify@CSDKInitAuthUIMgr@@UAEXAAUtagTNotifyUI@DuiLib@@@Z 0042bb40 f   sdk_init_auth_ui.obj
 0001:0002ab80       ?OnClose@CSDKInitAuthUIMgr@@QAEJIIJAAH@Z 0042bb80 f   sdk_init_auth_ui.obj
 0001:0002abc0       ?OnDestroy@CSDKInitAuthUIMgr@@QAEJIIJAAH@Z 0042bbc0 f   sdk_init_auth_ui.obj
 0001:0002abf0       ?SetCurrentPage@CSDKInitAuthUIMgr@@QAEXPAVCVerticalLayoutUI@DuiLib@@@Z 0042bbf0 f i sdk_init_auth_ui.obj
 0001:0002ac10       ?SetEvent@CSDKInitAuthUIMgr@@QAEXPAVCSDKDemoAppEvent@@@Z 0042bc10 f   sdk_init_auth_ui.obj
 0001:0002ac30       ?Show@CAuthSDKUIGroup@@QAEXXZ 0042bc30 f   sdk_init_auth_ui.obj
 0001:0002ac80       ?Show@CInitSDKUIGroup@@QAEXXZ 0042bc80 f   sdk_init_auth_ui.obj
 0001:0002acd0       ?ShowErrorMessage@CSDKInitAuthUIMgr@@QAEXPB_W@Z 0042bcd0 f   sdk_init_auth_ui.obj
 0001:0002ad00       ?SwitchToAuthPage@CSDKInitAuthUIMgr@@QAEX_N@Z 0042bd00 f   sdk_init_auth_ui.obj
 0001:0002ad30       ?SwitchToWaitingPage@CSDKInitAuthUIMgr@@QAEXPB_W_N@Z 0042bd30 f   sdk_init_auth_ui.obj
 0001:0002ae20       ?UninitWindow@CAuthSDKUIGroup@@QAEXXZ 0042be20 f   sdk_init_auth_ui.obj
 0001:0002ae50       ?UninitWindow@CInitSDKUIGroup@@QAEXXZ 0042be50 f   sdk_init_auth_ui.obj
 0001:0002ae80       ?onSDKAuthed@CAuthSDKUIGroup@@UAEXW4AuthResult@ZOOMSDK@@@Z 0042be80 f   sdk_init_auth_ui.obj
 0001:0002af00       ?onSDKInited@CInitSDKUIGroup@@UAEXW4SDKError@ZOOMSDK@@@Z 0042bf00 f   sdk_init_auth_ui.obj
 0001:0002afb0       ??$?0AAV?$_Tree_const_iterator@V?$_Tree_val@U?$_Tree_simple_types@PAVISDKInMeetingServiceMgrEvent@@@std@@@std@@@std@@AAV01@$0A@@?$pair@V?$_Tree_const_iterator@V?$_Tree_val@U?$_Tree_simple_types@PAVISDKInMeetingServiceMgrEvent@@@std@@@std@@@std@@V12@@std@@QAE@AAV?$_Tree_const_iterator@V?$_Tree_val@U?$_Tree_simple_types@PAVISDKInMeetingServiceMgrEvent@@@std@@@std@@@1@0@Z 0042bfb0 f i sdk_util.obj
 0001:0002afb0       ??$?0AAV?$_Tree_const_iterator@V?$_Tree_val@U?$_Tree_simple_types@PAVIMeetingChatCtrlEvent@ZOOMSDK@@@std@@@std@@@std@@AAV01@$0A@@?$pair@V?$_Tree_const_iterator@V?$_Tree_val@U?$_Tree_simple_types@PAVIMeetingChatCtrlEvent@ZOOMSDK@@@std@@@std@@@std@@V12@@std@@QAE@AAV?$_Tree_const_iterator@V?$_Tree_val@U?$_Tree_simple_types@PAVIMeetingChatCtrlEvent@ZOOMSDK@@@std@@@std@@@1@0@Z 0042bfb0 f i sdk_util.obj
 0001:0002afb0       ??$?0AAV?$_Tree_const_iterator@V?$_Tree_val@U?$_Tree_simple_types@PAVIClosedCaptionControllerEvent@ZOOMSDK@@@std@@@std@@@std@@AAV01@$0A@@?$pair@V?$_Tree_const_iterator@V?$_Tree_val@U?$_Tree_simple_types@PAVIClosedCaptionControllerEvent@ZOOMSDK@@@std@@@std@@@std@@V12@@std@@QAE@AAV?$_Tree_const_iterator@V?$_Tree_val@U?$_Tree_simple_types@PAVIClosedCaptionControllerEvent@ZOOMSDK@@@std@@@std@@@1@0@Z 0042bfb0 f i sdk_util.obj
 0001:0002afb0       ??$?0AAV?$_Tree_const_iterator@V?$_Tree_val@U?$_Tree_simple_types@PAVIMeetingServiceEvent@ZOOMSDK@@@std@@@std@@@std@@AAV01@$0A@@?$pair@V?$_Tree_const_iterator@V?$_Tree_val@U?$_Tree_simple_types@PAVIMeetingServiceEvent@ZOOMSDK@@@std@@@std@@@std@@V12@@std@@QAE@AAV?$_Tree_const_iterator@V?$_Tree_val@U?$_Tree_simple_types@PAVIMeetingServiceEvent@ZOOMSDK@@@std@@@std@@@1@0@Z 0042bfb0 f i sdk_util.obj
 0001:0002afb0       ??$?0AAV?$_Tree_const_iterator@V?$_Tree_val@U?$_Tree_simple_types@PAVIPreMeetingServiceEvent@ZOOMSDK@@@std@@@std@@@std@@AAV01@$0A@@?$pair@V?$_Tree_const_iterator@V?$_Tree_val@U?$_Tree_simple_types@PAVIPreMeetingServiceEvent@ZOOMSDK@@@std@@@std@@@std@@V12@@std@@QAE@AAV?$_Tree_const_iterator@V?$_Tree_val@U?$_Tree_simple_types@PAVIPreMeetingServiceEvent@ZOOMSDK@@@std@@@std@@@1@0@Z 0042bfb0 f i sdk_util.obj
 0001:0002afb0       ??$?0AAV?$_Tree_const_iterator@V?$_Tree_val@U?$_Tree_simple_types@PAVIAuthServiceEvent@ZOOMSDK@@@std@@@std@@@std@@AAV01@$0A@@?$pair@V?$_Tree_const_iterator@V?$_Tree_val@U?$_Tree_simple_types@PAVIAuthServiceEvent@ZOOMSDK@@@std@@@std@@@std@@V12@@std@@QAE@AAV?$_Tree_const_iterator@V?$_Tree_val@U?$_Tree_simple_types@PAVIAuthServiceEvent@ZOOMSDK@@@std@@@std@@@1@0@Z 0042bfb0 f i sdk_util.obj
 0001:0002afb0       ??$?0AAV?$_Tree_const_iterator@V?$_Tree_val@U?$_Tree_simple_types@PAVIMeetingParticipantsCtrlEvent@ZOOMSDK@@@std@@@std@@@std@@AAV01@$0A@@?$pair@V?$_Tree_const_iterator@V?$_Tree_val@U?$_Tree_simple_types@PAVIMeetingParticipantsCtrlEvent@ZOOMSDK@@@std@@@std@@@std@@V12@@std@@QAE@AAV?$_Tree_const_iterator@V?$_Tree_val@U?$_Tree_simple_types@PAVIMeetingParticipantsCtrlEvent@ZOOMSDK@@@std@@@std@@@1@0@Z 0042bfb0 f i sdk_util.obj
 0001:0002aff0       ??$?0AAV?$_Tree_const_iterator@V?$_Tree_val@U?$_Tree_simple_types@PAVIMeetingChatCtrlEvent@ZOOMSDK@@@std@@@std@@@std@@_N$0A@@?$pair@V?$_Tree_const_iterator@V?$_Tree_val@U?$_Tree_simple_types@PAVIMeetingChatCtrlEvent@ZOOMSDK@@@std@@@std@@@std@@_N@std@@QAE@AAV?$_Tree_const_iterator@V?$_Tree_val@U?$_Tree_simple_types@PAVIMeetingChatCtrlEvent@ZOOMSDK@@@std@@@std@@@1@$$QA_N@Z 0042bff0 f i sdk_util.obj
 0001:0002aff0       ??$?0V?$_Tree_const_iterator@V?$_Tree_val@U?$_Tree_simple_types@PAVIPreMeetingServiceEvent@ZOOMSDK@@@std@@@std@@@std@@_N$0A@@?$pair@V?$_Tree_const_iterator@V?$_Tree_val@U?$_Tree_simple_types@PAVIPreMeetingServiceEvent@ZOOMSDK@@@std@@@std@@@std@@_N@std@@QAE@$$QAV?$_Tree_const_iterator@V?$_Tree_val@U?$_Tree_simple_types@PAVIPreMeetingServiceEvent@ZOOMSDK@@@std@@@std@@@1@$$QA_N@Z 0042bff0 f i sdk_util.obj
 0001:0002aff0       ??$?0AAV?$_Tree_iterator@V?$_Tree_val@U?$_Tree_simple_types@U?$pair@$$CBIPAVIUserInfo@ZOOMSDK@@@std@@@std@@@std@@@std@@_N$0A@@?$pair@V?$_Tree_iterator@V?$_Tree_val@U?$_Tree_simple_types@U?$pair@$$CBIPAVIUserInfo@ZOOMSDK@@@std@@@std@@@std@@@std@@_N@std@@QAE@AAV?$_Tree_iterator@V?$_Tree_val@U?$_Tree_simple_types@U?$pair@$$CBIPAVIUserInfo@ZOOMSDK@@@std@@@std@@@std@@@1@$$QA_N@Z 0042bff0 f i user_manager.obj
 0001:0002aff0       ??$?0AAV?$_Tree_const_iterator@V?$_Tree_val@U?$_Tree_simple_types@PAVIPreMeetingServiceEvent@ZOOMSDK@@@std@@@std@@@std@@_N$0A@@?$pair@V?$_Tree_const_iterator@V?$_Tree_val@U?$_Tree_simple_types@PAVIPreMeetingServiceEvent@ZOOMSDK@@@std@@@std@@@std@@_N@std@@QAE@AAV?$_Tree_const_iterator@V?$_Tree_val@U?$_Tree_simple_types@PAVIPreMeetingServiceEvent@ZOOMSDK@@@std@@@std@@@1@$$QA_N@Z 0042bff0 f i sdk_util.obj
 0001:0002aff0       ??$?0V?$_Tree_const_iterator@V?$_Tree_val@U?$_Tree_simple_types@PAVISDKInMeetingServiceMgrEvent@@@std@@@std@@@std@@_N$0A@@?$pair@V?$_Tree_const_iterator@V?$_Tree_val@U?$_Tree_simple_types@PAVISDKInMeetingServiceMgrEvent@@@std@@@std@@@std@@_N@std@@QAE@$$QAV?$_Tree_const_iterator@V?$_Tree_val@U?$_Tree_simple_types@PAVISDKInMeetingServiceMgrEvent@@@std@@@std@@@1@$$QA_N@Z 0042bff0 f i sdk_util.obj
 0001:0002aff0       ??$?0AAV?$_Tree_const_iterator@V?$_Tree_val@U?$_Tree_simple_types@PAVISDKInMeetingServiceMgrEvent@@@std@@@std@@@std@@_N$0A@@?$pair@V?$_Tree_const_iterator@V?$_Tree_val@U?$_Tree_simple_types@PAVISDKInMeetingServiceMgrEvent@@@std@@@std@@@std@@_N@std@@QAE@AAV?$_Tree_const_iterator@V?$_Tree_val@U?$_Tree_simple_types@PAVISDKInMeetingServiceMgrEvent@@@std@@@std@@@1@$$QA_N@Z 0042bff0 f i sdk_util.obj
 0001:0002aff0       ??$?0V?$_Tree_const_iterator@V?$_Tree_val@U?$_Tree_simple_types@PAVIMeetingServiceEvent@ZOOMSDK@@@std@@@std@@@std@@_N$0A@@?$pair@V?$_Tree_const_iterator@V?$_Tree_val@U?$_Tree_simple_types@PAVIMeetingServiceEvent@ZOOMSDK@@@std@@@std@@@std@@_N@std@@QAE@$$QAV?$_Tree_const_iterator@V?$_Tree_val@U?$_Tree_simple_types@PAVIMeetingServiceEvent@ZOOMSDK@@@std@@@std@@@1@$$QA_N@Z 0042bff0 f i sdk_util.obj
 0001:0002aff0       ??$?0AAV?$_Tree_const_iterator@V?$_Tree_val@U?$_Tree_simple_types@PAVIMeetingVideoCtrlEvent@ZOOMSDK@@@std@@@std@@@std@@_N$0A@@?$pair@V?$_Tree_const_iterator@V?$_Tree_val@U?$_Tree_simple_types@PAVIMeetingVideoCtrlEvent@ZOOMSDK@@@std@@@std@@@std@@_N@std@@QAE@AAV?$_Tree_const_iterator@V?$_Tree_val@U?$_Tree_simple_types@PAVIMeetingVideoCtrlEvent@ZOOMSDK@@@std@@@std@@@1@$$QA_N@Z 0042bff0 f i sdk_util.obj
 0001:0002aff0       ??$?0V?$_Tree_const_iterator@V?$_Tree_val@U?$_Tree_simple_types@PAVIClosedCaptionControllerEvent@ZOOMSDK@@@std@@@std@@@std@@_N$0A@@?$pair@V?$_Tree_const_iterator@V?$_Tree_val@U?$_Tree_simple_types@PAVIClosedCaptionControllerEvent@ZOOMSDK@@@std@@@std@@@std@@_N@std@@QAE@$$QAV?$_Tree_const_iterator@V?$_Tree_val@U?$_Tree_simple_types@PAVIClosedCaptionControllerEvent@ZOOMSDK@@@std@@@std@@@1@$$QA_N@Z 0042bff0 f i sdk_util.obj
 0001:0002aff0       ??$?0V?$_Tree_const_iterator@V?$_Tree_val@U?$_Tree_simple_types@PAVIMeetingParticipantsCtrlEvent@ZOOMSDK@@@std@@@std@@@std@@_N$0A@@?$pair@V?$_Tree_const_iterator@V?$_Tree_val@U?$_Tree_simple_types@PAVIMeetingParticipantsCtrlEvent@ZOOMSDK@@@std@@@std@@@std@@_N@std@@QAE@$$QAV?$_Tree_const_iterator@V?$_Tree_val@U?$_Tree_simple_types@PAVIMeetingParticipantsCtrlEvent@ZOOMSDK@@@std@@@std@@@1@$$QA_N@Z 0042bff0 f i sdk_util.obj
 0001:0002aff0       ??$?0AAV?$_Tree_const_iterator@V?$_Tree_val@U?$_Tree_simple_types@PAVIClosedCaptionControllerEvent@ZOOMSDK@@@std@@@std@@@std@@_N$0A@@?$pair@V?$_Tree_const_iterator@V?$_Tree_val@U?$_Tree_simple_types@PAVIClosedCaptionControllerEvent@ZOOMSDK@@@std@@@std@@@std@@_N@std@@QAE@AAV?$_Tree_const_iterator@V?$_Tree_val@U?$_Tree_simple_types@PAVIClosedCaptionControllerEvent@ZOOMSDK@@@std@@@std@@@1@$$QA_N@Z 0042bff0 f i sdk_util.obj
 0001:0002aff0       ??$?0AAV?$_Tree_const_iterator@V?$_Tree_val@U?$_Tree_simple_types@PAVIMeetingParticipantsCtrlEvent@ZOOMSDK@@@std@@@std@@@std@@_N$0A@@?$pair@V?$_Tree_const_iterator@V?$_Tree_val@U?$_Tree_simple_types@PAVIMeetingParticipantsCtrlEvent@ZOOMSDK@@@std@@@std@@@std@@_N@std@@QAE@AAV?$_Tree_const_iterator@V?$_Tree_val@U?$_Tree_simple_types@PAVIMeetingParticipantsCtrlEvent@ZOOMSDK@@@std@@@std@@@1@$$QA_N@Z 0042bff0 f i sdk_util.obj
 0001:0002aff0       ??$?0V?$_Tree_iterator@V?$_Tree_val@U?$_Tree_simple_types@U?$pair@$$CBIPAVIUserInfo@ZOOMSDK@@@std@@@std@@@std@@@std@@_N$0A@@?$pair@V?$_Tree_iterator@V?$_Tree_val@U?$_Tree_simple_types@U?$pair@$$CBIPAVIUserInfo@ZOOMSDK@@@std@@@std@@@std@@@std@@_N@std@@QAE@$$QAV?$_Tree_iterator@V?$_Tree_val@U?$_Tree_simple_types@U?$pair@$$CBIPAVIUserInfo@ZOOMSDK@@@std@@@std@@@std@@@1@$$QA_N@Z 0042bff0 f i user_manager.obj
 0001:0002aff0       ??$?0AAV?$_Tree_const_iterator@V?$_Tree_val@U?$_Tree_simple_types@PAVIMeetingServiceEvent@ZOOMSDK@@@std@@@std@@@std@@_N$0A@@?$pair@V?$_Tree_const_iterator@V?$_Tree_val@U?$_Tree_simple_types@PAVIMeetingServiceEvent@ZOOMSDK@@@std@@@std@@@std@@_N@std@@QAE@AAV?$_Tree_const_iterator@V?$_Tree_val@U?$_Tree_simple_types@PAVIMeetingServiceEvent@ZOOMSDK@@@std@@@std@@@1@$$QA_N@Z 0042bff0 f i sdk_util.obj
 0001:0002aff0       ??$?0AAV?$_Tree_const_iterator@V?$_Tree_val@U?$_Tree_simple_types@PAVIAuthServiceEvent@ZOOMSDK@@@std@@@std@@@std@@_N$0A@@?$pair@V?$_Tree_const_iterator@V?$_Tree_val@U?$_Tree_simple_types@PAVIAuthServiceEvent@ZOOMSDK@@@std@@@std@@@std@@_N@std@@QAE@AAV?$_Tree_const_iterator@V?$_Tree_val@U?$_Tree_simple_types@PAVIAuthServiceEvent@ZOOMSDK@@@std@@@std@@@1@$$QA_N@Z 0042bff0 f i sdk_util.obj
 0001:0002aff0       ??$?0V?$_Tree_const_iterator@V?$_Tree_val@U?$_Tree_simple_types@PAVIMeetingVideoCtrlEvent@ZOOMSDK@@@std@@@std@@@std@@_N$0A@@?$pair@V?$_Tree_const_iterator@V?$_Tree_val@U?$_Tree_simple_types@PAVIMeetingVideoCtrlEvent@ZOOMSDK@@@std@@@std@@@std@@_N@std@@QAE@$$QAV?$_Tree_const_iterator@V?$_Tree_val@U?$_Tree_simple_types@PAVIMeetingVideoCtrlEvent@ZOOMSDK@@@std@@@std@@@1@$$QA_N@Z 0042bff0 f i sdk_util.obj
 0001:0002aff0       ??$?0V?$_Tree_const_iterator@V?$_Tree_val@U?$_Tree_simple_types@PAVIMeetingChatCtrlEvent@ZOOMSDK@@@std@@@std@@@std@@_N$0A@@?$pair@V?$_Tree_const_iterator@V?$_Tree_val@U?$_Tree_simple_types@PAVIMeetingChatCtrlEvent@ZOOMSDK@@@std@@@std@@@std@@_N@std@@QAE@$$QAV?$_Tree_const_iterator@V?$_Tree_val@U?$_Tree_simple_types@PAVIMeetingChatCtrlEvent@ZOOMSDK@@@std@@@std@@@1@$$QA_N@Z 0042bff0 f i sdk_util.obj
 0001:0002aff0       ??$?0V?$_Tree_const_iterator@V?$_Tree_val@U?$_Tree_simple_types@PAVIAuthServiceEvent@ZOOMSDK@@@std@@@std@@@std@@_N$0A@@?$pair@V?$_Tree_const_iterator@V?$_Tree_val@U?$_Tree_simple_types@PAVIAuthServiceEvent@ZOOMSDK@@@std@@@std@@@std@@_N@std@@QAE@$$QAV?$_Tree_const_iterator@V?$_Tree_val@U?$_Tree_simple_types@PAVIAuthServiceEvent@ZOOMSDK@@@std@@@std@@@1@$$QA_N@Z 0042bff0 f i sdk_util.obj
 0001:0002b030       ??$?0ABU?$less@PAVIMeetingChatCtrlEvent@ZOOMSDK@@@std@@U_Zero_then_variadic_args_t@1@@?$_Compressed_pair@U?$less@PAVIMeetingChatCtrlEvent@ZOOMSDK@@@std@@V?$_Compressed_pair@V?$allocator@U?$_Tree_node@PAVIMeetingChatCtrlEvent@ZOOMSDK@@PAX@std@@@std@@V?$_Tree_val@U?$_Tree_simple_types@PAVIMeetingChatCtrlEvent@ZOOMSDK@@@std@@@2@$00@2@$00@std@@QAE@U_One_then_variadic_args_t@1@ABU?$less@PAVIMeetingChatCtrlEvent@ZOOMSDK@@@1@$$QAU_Zero_then_variadic_args_t@1@@Z 0042c030 f i sdk_util.obj
 0001:0002b030       ??$?0ABU?$less@PAVIMeetingVideoCtrlEvent@ZOOMSDK@@@std@@U_Zero_then_variadic_args_t@1@@?$_Compressed_pair@U?$less@PAVIMeetingVideoCtrlEvent@ZOOMSDK@@@std@@V?$_Compressed_pair@V?$allocator@U?$_Tree_node@PAVIMeetingVideoCtrlEvent@ZOOMSDK@@PAX@std@@@std@@V?$_Tree_val@U?$_Tree_simple_types@PAVIMeetingVideoCtrlEvent@ZOOMSDK@@@std@@@2@$00@2@$00@std@@QAE@U_One_then_variadic_args_t@1@ABU?$less@PAVIMeetingVideoCtrlEvent@ZOOMSDK@@@1@$$QAU_Zero_then_variadic_args_t@1@@Z 0042c030 f i sdk_util.obj
 0001:0002b030       ??$?0ABU?$less@PAVIMeetingServiceEvent@ZOOMSDK@@@std@@U_Zero_then_variadic_args_t@1@@?$_Compressed_pair@U?$less@PAVIMeetingServiceEvent@ZOOMSDK@@@std@@V?$_Compressed_pair@V?$allocator@U?$_Tree_node@PAVIMeetingServiceEvent@ZOOMSDK@@PAX@std@@@std@@V?$_Tree_val@U?$_Tree_simple_types@PAVIMeetingServiceEvent@ZOOMSDK@@@std@@@2@$00@2@$00@std@@QAE@U_One_then_variadic_args_t@1@ABU?$less@PAVIMeetingServiceEvent@ZOOMSDK@@@1@$$QAU_Zero_then_variadic_args_t@1@@Z 0042c030 f i sdk_util.obj
 0001:0002b030       ??$?0ABU?$less@PAVISDKInMeetingServiceMgrEvent@@@std@@U_Zero_then_variadic_args_t@1@@?$_Compressed_pair@U?$less@PAVISDKInMeetingServiceMgrEvent@@@std@@V?$_Compressed_pair@V?$allocator@U?$_Tree_node@PAVISDKInMeetingServiceMgrEvent@@PAX@std@@@std@@V?$_Tree_val@U?$_Tree_simple_types@PAVISDKInMeetingServiceMgrEvent@@@std@@@2@$00@2@$00@std@@QAE@U_One_then_variadic_args_t@1@ABU?$less@PAVISDKInMeetingServiceMgrEvent@@@1@$$QAU_Zero_then_variadic_args_t@1@@Z 0042c030 f i sdk_util.obj
 0001:0002b030       ??$?0ABU?$less@PAVIPreMeetingServiceEvent@ZOOMSDK@@@std@@U_Zero_then_variadic_args_t@1@@?$_Compressed_pair@U?$less@PAVIPreMeetingServiceEvent@ZOOMSDK@@@std@@V?$_Compressed_pair@V?$allocator@U?$_Tree_node@PAVIPreMeetingServiceEvent@ZOOMSDK@@PAX@std@@@std@@V?$_Tree_val@U?$_Tree_simple_types@PAVIPreMeetingServiceEvent@ZOOMSDK@@@std@@@2@$00@2@$00@std@@QAE@U_One_then_variadic_args_t@1@ABU?$less@PAVIPreMeetingServiceEvent@ZOOMSDK@@@1@$$QAU_Zero_then_variadic_args_t@1@@Z 0042c030 f i sdk_util.obj
 0001:0002b030       ??$?0ABU?$less@PAVIClosedCaptionControllerEvent@ZOOMSDK@@@std@@U_Zero_then_variadic_args_t@1@@?$_Compressed_pair@U?$less@PAVIClosedCaptionControllerEvent@ZOOMSDK@@@std@@V?$_Compressed_pair@V?$allocator@U?$_Tree_node@PAVIClosedCaptionControllerEvent@ZOOMSDK@@PAX@std@@@std@@V?$_Tree_val@U?$_Tree_simple_types@PAVIClosedCaptionControllerEvent@ZOOMSDK@@@std@@@2@$00@2@$00@std@@QAE@U_One_then_variadic_args_t@1@ABU?$less@PAVIClosedCaptionControllerEvent@ZOOMSDK@@@1@$$QAU_Zero_then_variadic_args_t@1@@Z 0042c030 f i sdk_util.obj
 0001:0002b030       ??$?0ABU?$less@I@std@@U_Zero_then_variadic_args_t@1@@?$_Compressed_pair@U?$less@I@std@@V?$_Compressed_pair@V?$allocator@U?$_Tree_node@U?$pair@$$CBIPAVIUserInfo@ZOOMSDK@@@std@@PAX@std@@@std@@V?$_Tree_val@U?$_Tree_simple_types@U?$pair@$$CBIPAVIUserInfo@ZOOMSDK@@@std@@@std@@@2@$00@2@$00@std@@QAE@U_One_then_variadic_args_t@1@ABU?$less@I@1@$$QAU_Zero_then_variadic_args_t@1@@Z 0042c030 f i user_manager.obj
 0001:0002b030       ??$?0ABU?$less@PAVIMeetingParticipantsCtrlEvent@ZOOMSDK@@@std@@U_Zero_then_variadic_args_t@1@@?$_Compressed_pair@U?$less@PAVIMeetingParticipantsCtrlEvent@ZOOMSDK@@@std@@V?$_Compressed_pair@V?$allocator@U?$_Tree_node@PAVIMeetingParticipantsCtrlEvent@ZOOMSDK@@PAX@std@@@std@@V?$_Tree_val@U?$_Tree_simple_types@PAVIMeetingParticipantsCtrlEvent@ZOOMSDK@@@std@@@2@$00@2@$00@std@@QAE@U_One_then_variadic_args_t@1@ABU?$less@PAVIMeetingParticipantsCtrlEvent@ZOOMSDK@@@1@$$QAU_Zero_then_variadic_args_t@1@@Z 0042c030 f i sdk_util.obj
 0001:0002b030       ??$?0ABU?$less@PAVIAuthServiceEvent@ZOOMSDK@@@std@@U_Zero_then_variadic_args_t@1@@?$_Compressed_pair@U?$less@PAVIAuthServiceEvent@ZOOMSDK@@@std@@V?$_Compressed_pair@V?$allocator@U?$_Tree_node@PAVIAuthServiceEvent@ZOOMSDK@@PAX@std@@@std@@V?$_Tree_val@U?$_Tree_simple_types@PAVIAuthServiceEvent@ZOOMSDK@@@std@@@2@$00@2@$00@std@@QAE@U_One_then_variadic_args_t@1@ABU?$less@PAVIAuthServiceEvent@ZOOMSDK@@@1@$$QAU_Zero_then_variadic_args_t@1@@Z 0042c030 f i sdk_util.obj
 0001:0002b070       ??$_Adl_verify_range@V?$_Tree_const_iterator@V?$_Tree_val@U?$_Tree_simple_types@PAVIClosedCaptionControllerEvent@ZOOMSDK@@@std@@@std@@@std@@V12@@std@@YAXABV?$_Tree_const_iterator@V?$_Tree_val@U?$_Tree_simple_types@PAVIClosedCaptionControllerEvent@ZOOMSDK@@@std@@@std@@@0@0@Z 0042c070 f i sdk_util.obj
 0001:0002b070       ??$_Adl_verify_range@V?$_Tree_const_iterator@V?$_Tree_val@U?$_Tree_simple_types@PAVIMeetingChatCtrlEvent@ZOOMSDK@@@std@@@std@@@std@@V12@@std@@YAXABV?$_Tree_const_iterator@V?$_Tree_val@U?$_Tree_simple_types@PAVIMeetingChatCtrlEvent@ZOOMSDK@@@std@@@std@@@0@0@Z 0042c070 f i sdk_util.obj
 0001:0002b070       ??$_Adl_verify_range@V?$_Tree_const_iterator@V?$_Tree_val@U?$_Tree_simple_types@PAVIPreMeetingServiceEvent@ZOOMSDK@@@std@@@std@@@std@@V12@@std@@YAXABV?$_Tree_const_iterator@V?$_Tree_val@U?$_Tree_simple_types@PAVIPreMeetingServiceEvent@ZOOMSDK@@@std@@@std@@@0@0@Z 0042c070 f i sdk_util.obj
 0001:0002b070       ??$_Adl_verify_range@V?$_Tree_const_iterator@V?$_Tree_val@U?$_Tree_simple_types@PAVIMeetingParticipantsCtrlEvent@ZOOMSDK@@@std@@@std@@@std@@V12@@std@@YAXABV?$_Tree_const_iterator@V?$_Tree_val@U?$_Tree_simple_types@PAVIMeetingParticipantsCtrlEvent@ZOOMSDK@@@std@@@std@@@0@0@Z 0042c070 f i sdk_util.obj
 0001:0002b070       ??$_Adl_verify_range@V?$_Tree_const_iterator@V?$_Tree_val@U?$_Tree_simple_types@PAVISDKInMeetingServiceMgrEvent@@@std@@@std@@@std@@V12@@std@@YAXABV?$_Tree_const_iterator@V?$_Tree_val@U?$_Tree_simple_types@PAVISDKInMeetingServiceMgrEvent@@@std@@@std@@@0@0@Z 0042c070 f i sdk_util.obj
 0001:0002b070       ??$_Adl_verify_range@V?$_Tree_const_iterator@V?$_Tree_val@U?$_Tree_simple_types@PAVIAuthServiceEvent@ZOOMSDK@@@std@@@std@@@std@@V12@@std@@YAXABV?$_Tree_const_iterator@V?$_Tree_val@U?$_Tree_simple_types@PAVIAuthServiceEvent@ZOOMSDK@@@std@@@std@@@0@0@Z 0042c070 f i sdk_util.obj
 0001:0002b070       ??$_Adl_verify_range@V?$_Tree_const_iterator@V?$_Tree_val@U?$_Tree_simple_types@PAVIMeetingServiceEvent@ZOOMSDK@@@std@@@std@@@std@@V12@@std@@YAXABV?$_Tree_const_iterator@V?$_Tree_val@U?$_Tree_simple_types@PAVIMeetingServiceEvent@ZOOMSDK@@@std@@@std@@@0@0@Z 0042c070 f i sdk_util.obj
 0001:0002b070       ??$_Adl_verify_range@V?$_Tree_const_iterator@V?$_Tree_val@U?$_Tree_simple_types@PAVIMeetingVideoCtrlEvent@ZOOMSDK@@@std@@@std@@@std@@V12@@std@@YAXABV?$_Tree_const_iterator@V?$_Tree_val@U?$_Tree_simple_types@PAVIMeetingVideoCtrlEvent@ZOOMSDK@@@std@@@std@@@0@0@Z 0042c070 f i sdk_util.obj
 0001:0002b0a0       ??$_Buy_if_not_node@AAPAVIPreMeetingServiceEvent@ZOOMSDK@@@?$_Tree@V?$_Tset_traits@PAVIPreMeetingServiceEvent@ZOOMSDK@@U?$less@PAVIPreMeetingServiceEvent@ZOOMSDK@@@std@@V?$allocator@PAVIPreMeetingServiceEvent@ZOOMSDK@@@4@$0A@@std@@@std@@IAEPAU?$_Tree_node@PAVIPreMeetingServiceEvent@ZOOMSDK@@PAX@1@PAU21@AAPAVIPreMeetingServiceEvent@ZOOMSDK@@@Z 0042c0a0 f i sdk_util.obj
 0001:0002b0a0       ??$_Buy_if_not_node@AAPAVISDKInMeetingServiceMgrEvent@@@?$_Tree@V?$_Tset_traits@PAVISDKInMeetingServiceMgrEvent@@U?$less@PAVISDKInMeetingServiceMgrEvent@@@std@@V?$allocator@PAVISDKInMeetingServiceMgrEvent@@@3@$0A@@std@@@std@@IAEPAU?$_Tree_node@PAVISDKInMeetingServiceMgrEvent@@PAX@1@PAU21@AAPAVISDKInMeetingServiceMgrEvent@@@Z 0042c0a0 f i sdk_util.obj
 0001:0002b0a0       ??$_Buy_if_not_node@AAPAVIMeetingServiceEvent@ZOOMSDK@@@?$_Tree@V?$_Tset_traits@PAVIMeetingServiceEvent@ZOOMSDK@@U?$less@PAVIMeetingServiceEvent@ZOOMSDK@@@std@@V?$allocator@PAVIMeetingServiceEvent@ZOOMSDK@@@4@$0A@@std@@@std@@IAEPAU?$_Tree_node@PAVIMeetingServiceEvent@ZOOMSDK@@PAX@1@PAU21@AAPAVIMeetingServiceEvent@ZOOMSDK@@@Z 0042c0a0 f i sdk_util.obj
 0001:0002b0a0       ??$_Buy_if_not_node@AAU?$pair@$$CBIPAVIUserInfo@ZOOMSDK@@@std@@@?$_Tree@V?$_Tmap_traits@IPAVIUserInfo@ZOOMSDK@@U?$less@I@std@@V?$allocator@U?$pair@$$CBIPAVIUserInfo@ZOOMSDK@@@std@@@4@$0A@@std@@@std@@IAEPAU?$_Tree_node@U?$pair@$$CBIPAVIUserInfo@ZOOMSDK@@@std@@PAX@1@PAU21@AAU?$pair@$$CBIPAVIUserInfo@ZOOMSDK@@@1@@Z 0042c0a0 f i user_manager.obj
 0001:0002b0a0       ??$_Buy_if_not_node@AAPAVIMeetingParticipantsCtrlEvent@ZOOMSDK@@@?$_Tree@V?$_Tset_traits@PAVIMeetingParticipantsCtrlEvent@ZOOMSDK@@U?$less@PAVIMeetingParticipantsCtrlEvent@ZOOMSDK@@@std@@V?$allocator@PAVIMeetingParticipantsCtrlEvent@ZOOMSDK@@@4@$0A@@std@@@std@@IAEPAU?$_Tree_node@PAVIMeetingParticipantsCtrlEvent@ZOOMSDK@@PAX@1@PAU21@AAPAVIMeetingParticipantsCtrlEvent@ZOOMSDK@@@Z 0042c0a0 f i sdk_util.obj
 0001:0002b0a0       ??$_Buy_if_not_node@AAPAVIAuthServiceEvent@ZOOMSDK@@@?$_Tree@V?$_Tset_traits@PAVIAuthServiceEvent@ZOOMSDK@@U?$less@PAVIAuthServiceEvent@ZOOMSDK@@@std@@V?$allocator@PAVIAuthServiceEvent@ZOOMSDK@@@4@$0A@@std@@@std@@IAEPAU?$_Tree_node@PAVIAuthServiceEvent@ZOOMSDK@@PAX@1@PAU21@AAPAVIAuthServiceEvent@ZOOMSDK@@@Z 0042c0a0 f i sdk_util.obj
 0001:0002b0a0       ??$_Buy_if_not_node@AAPAVIMeetingChatCtrlEvent@ZOOMSDK@@@?$_Tree@V?$_Tset_traits@PAVIMeetingChatCtrlEvent@ZOOMSDK@@U?$less@PAVIMeetingChatCtrlEvent@ZOOMSDK@@@std@@V?$allocator@PAVIMeetingChatCtrlEvent@ZOOMSDK@@@4@$0A@@std@@@std@@IAEPAU?$_Tree_node@PAVIMeetingChatCtrlEvent@ZOOMSDK@@PAX@1@PAU21@AAPAVIMeetingChatCtrlEvent@ZOOMSDK@@@Z 0042c0a0 f i sdk_util.obj
 0001:0002b0a0       ??$_Buy_if_not_node@AAPAVIMeetingVideoCtrlEvent@ZOOMSDK@@@?$_Tree@V?$_Tset_traits@PAVIMeetingVideoCtrlEvent@ZOOMSDK@@U?$less@PAVIMeetingVideoCtrlEvent@ZOOMSDK@@@std@@V?$allocator@PAVIMeetingVideoCtrlEvent@ZOOMSDK@@@4@$0A@@std@@@std@@IAEPAU?$_Tree_node@PAVIMeetingVideoCtrlEvent@ZOOMSDK@@PAX@1@PAU21@AAPAVIMeetingVideoCtrlEvent@ZOOMSDK@@@Z 0042c0a0 f i sdk_util.obj
 0001:0002b0a0       ??$_Buy_if_not_node@AAPAVIClosedCaptionControllerEvent@ZOOMSDK@@@?$_Tree@V?$_Tset_traits@PAVIClosedCaptionControllerEvent@ZOOMSDK@@U?$less@PAVIClosedCaptionControllerEvent@ZOOMSDK@@@std@@V?$allocator@PAVIClosedCaptionControllerEvent@ZOOMSDK@@@4@$0A@@std@@@std@@IAEPAU?$_Tree_node@PAVIClosedCaptionControllerEvent@ZOOMSDK@@PAX@1@PAU21@AAPAVIClosedCaptionControllerEvent@ZOOMSDK@@@Z 0042c0a0 f i sdk_util.obj
 0001:0002b0b0       ??$_Buy_if_not_node@ABQAVIMeetingParticipantsCtrlEvent@ZOOMSDK@@@?$_Tree@V?$_Tset_traits@PAVIMeetingParticipantsCtrlEvent@ZOOMSDK@@U?$less@PAVIMeetingParticipantsCtrlEvent@ZOOMSDK@@@std@@V?$allocator@PAVIMeetingParticipantsCtrlEvent@ZOOMSDK@@@4@$0A@@std@@@std@@IAEPAU?$_Tree_node@PAVIMeetingParticipantsCtrlEvent@ZOOMSDK@@PAX@1@U_Not_a_node_tag@1@ABQAVIMeetingParticipantsCtrlEvent@ZOOMSDK@@@Z 0042c0b0 f i sdk_util.obj
 0001:0002b0b0       ??$_Buy_if_not_node@ABQAVISDKInMeetingServiceMgrEvent@@@?$_Tree@V?$_Tset_traits@PAVISDKInMeetingServiceMgrEvent@@U?$less@PAVISDKInMeetingServiceMgrEvent@@@std@@V?$allocator@PAVISDKInMeetingServiceMgrEvent@@@3@$0A@@std@@@std@@IAEPAU?$_Tree_node@PAVISDKInMeetingServiceMgrEvent@@PAX@1@U_Not_a_node_tag@1@ABQAVISDKInMeetingServiceMgrEvent@@@Z 0042c0b0 f i sdk_util.obj
 0001:0002b0b0       ??$_Buy_if_not_node@ABQAVIMeetingServiceEvent@ZOOMSDK@@@?$_Tree@V?$_Tset_traits@PAVIMeetingServiceEvent@ZOOMSDK@@U?$less@PAVIMeetingServiceEvent@ZOOMSDK@@@std@@V?$allocator@PAVIMeetingServiceEvent@ZOOMSDK@@@4@$0A@@std@@@std@@IAEPAU?$_Tree_node@PAVIMeetingServiceEvent@ZOOMSDK@@PAX@1@U_Not_a_node_tag@1@ABQAVIMeetingServiceEvent@ZOOMSDK@@@Z 0042c0b0 f i sdk_util.obj
 0001:0002b0b0       ??$_Buy_if_not_node@ABQAVIMeetingVideoCtrlEvent@ZOOMSDK@@@?$_Tree@V?$_Tset_traits@PAVIMeetingVideoCtrlEvent@ZOOMSDK@@U?$less@PAVIMeetingVideoCtrlEvent@ZOOMSDK@@@std@@V?$allocator@PAVIMeetingVideoCtrlEvent@ZOOMSDK@@@4@$0A@@std@@@std@@IAEPAU?$_Tree_node@PAVIMeetingVideoCtrlEvent@ZOOMSDK@@PAX@1@U_Not_a_node_tag@1@ABQAVIMeetingVideoCtrlEvent@ZOOMSDK@@@Z 0042c0b0 f i sdk_util.obj
 0001:0002b0b0       ??$_Buy_if_not_node@ABQAVIMeetingChatCtrlEvent@ZOOMSDK@@@?$_Tree@V?$_Tset_traits@PAVIMeetingChatCtrlEvent@ZOOMSDK@@U?$less@PAVIMeetingChatCtrlEvent@ZOOMSDK@@@std@@V?$allocator@PAVIMeetingChatCtrlEvent@ZOOMSDK@@@4@$0A@@std@@@std@@IAEPAU?$_Tree_node@PAVIMeetingChatCtrlEvent@ZOOMSDK@@PAX@1@U_Not_a_node_tag@1@ABQAVIMeetingChatCtrlEvent@ZOOMSDK@@@Z 0042c0b0 f i sdk_util.obj
 0001:0002b0b0       ??$_Buy_if_not_node@ABQAVIPreMeetingServiceEvent@ZOOMSDK@@@?$_Tree@V?$_Tset_traits@PAVIPreMeetingServiceEvent@ZOOMSDK@@U?$less@PAVIPreMeetingServiceEvent@ZOOMSDK@@@std@@V?$allocator@PAVIPreMeetingServiceEvent@ZOOMSDK@@@4@$0A@@std@@@std@@IAEPAU?$_Tree_node@PAVIPreMeetingServiceEvent@ZOOMSDK@@PAX@1@U_Not_a_node_tag@1@ABQAVIPreMeetingServiceEvent@ZOOMSDK@@@Z 0042c0b0 f i sdk_util.obj
 0001:0002b0b0       ??$_Buy_if_not_node@ABQAVIAuthServiceEvent@ZOOMSDK@@@?$_Tree@V?$_Tset_traits@PAVIAuthServiceEvent@ZOOMSDK@@U?$less@PAVIAuthServiceEvent@ZOOMSDK@@@std@@V?$allocator@PAVIAuthServiceEvent@ZOOMSDK@@@4@$0A@@std@@@std@@IAEPAU?$_Tree_node@PAVIAuthServiceEvent@ZOOMSDK@@PAX@1@U_Not_a_node_tag@1@ABQAVIAuthServiceEvent@ZOOMSDK@@@Z 0042c0b0 f i sdk_util.obj
 0001:0002b0b0       ??$_Buy_if_not_node@ABQAVIClosedCaptionControllerEvent@ZOOMSDK@@@?$_Tree@V?$_Tset_traits@PAVIClosedCaptionControllerEvent@ZOOMSDK@@U?$less@PAVIClosedCaptionControllerEvent@ZOOMSDK@@@std@@V?$allocator@PAVIClosedCaptionControllerEvent@ZOOMSDK@@@4@$0A@@std@@@std@@IAEPAU?$_Tree_node@PAVIClosedCaptionControllerEvent@ZOOMSDK@@PAX@1@U_Not_a_node_tag@1@ABQAVIClosedCaptionControllerEvent@ZOOMSDK@@@Z 0042c0b0 f i sdk_util.obj
 0001:0002b0e0       ??$_Buynode@ABQAVIMeetingChatCtrlEvent@ZOOMSDK@@@?$_Tree_comp_alloc@V?$_Tset_traits@PAVIMeetingChatCtrlEvent@ZOOMSDK@@U?$less@PAVIMeetingChatCtrlEvent@ZOOMSDK@@@std@@V?$allocator@PAVIMeetingChatCtrlEvent@ZOOMSDK@@@4@$0A@@std@@@std@@QAEPAU?$_Tree_node@PAVIMeetingChatCtrlEvent@ZOOMSDK@@PAX@1@ABQAVIMeetingChatCtrlEvent@ZOOMSDK@@@Z 0042c0e0 f i sdk_util.obj
 0001:0002b0e0       ??$_Buynode@ABQAVIClosedCaptionControllerEvent@ZOOMSDK@@@?$_Tree_comp_alloc@V?$_Tset_traits@PAVIClosedCaptionControllerEvent@ZOOMSDK@@U?$less@PAVIClosedCaptionControllerEvent@ZOOMSDK@@@std@@V?$allocator@PAVIClosedCaptionControllerEvent@ZOOMSDK@@@4@$0A@@std@@@std@@QAEPAU?$_Tree_node@PAVIClosedCaptionControllerEvent@ZOOMSDK@@PAX@1@ABQAVIClosedCaptionControllerEvent@ZOOMSDK@@@Z 0042c0e0 f i sdk_util.obj
 0001:0002b0e0       ??$_Buynode@ABQAVIMeetingParticipantsCtrlEvent@ZOOMSDK@@@?$_Tree_comp_alloc@V?$_Tset_traits@PAVIMeetingParticipantsCtrlEvent@ZOOMSDK@@U?$less@PAVIMeetingParticipantsCtrlEvent@ZOOMSDK@@@std@@V?$allocator@PAVIMeetingParticipantsCtrlEvent@ZOOMSDK@@@4@$0A@@std@@@std@@QAEPAU?$_Tree_node@PAVIMeetingParticipantsCtrlEvent@ZOOMSDK@@PAX@1@ABQAVIMeetingParticipantsCtrlEvent@ZOOMSDK@@@Z 0042c0e0 f i sdk_util.obj
 0001:0002b0e0       ??$_Buynode@ABQAVISDKInMeetingServiceMgrEvent@@@?$_Tree_comp_alloc@V?$_Tset_traits@PAVISDKInMeetingServiceMgrEvent@@U?$less@PAVISDKInMeetingServiceMgrEvent@@@std@@V?$allocator@PAVISDKInMeetingServiceMgrEvent@@@3@$0A@@std@@@std@@QAEPAU?$_Tree_node@PAVISDKInMeetingServiceMgrEvent@@PAX@1@ABQAVISDKInMeetingServiceMgrEvent@@@Z 0042c0e0 f i sdk_util.obj
 0001:0002b0e0       ??$_Buynode@ABQAVIPreMeetingServiceEvent@ZOOMSDK@@@?$_Tree_comp_alloc@V?$_Tset_traits@PAVIPreMeetingServiceEvent@ZOOMSDK@@U?$less@PAVIPreMeetingServiceEvent@ZOOMSDK@@@std@@V?$allocator@PAVIPreMeetingServiceEvent@ZOOMSDK@@@4@$0A@@std@@@std@@QAEPAU?$_Tree_node@PAVIPreMeetingServiceEvent@ZOOMSDK@@PAX@1@ABQAVIPreMeetingServiceEvent@ZOOMSDK@@@Z 0042c0e0 f i sdk_util.obj
 0001:0002b0e0       ??$_Buynode@ABQAVIMeetingServiceEvent@ZOOMSDK@@@?$_Tree_comp_alloc@V?$_Tset_traits@PAVIMeetingServiceEvent@ZOOMSDK@@U?$less@PAVIMeetingServiceEvent@ZOOMSDK@@@std@@V?$allocator@PAVIMeetingServiceEvent@ZOOMSDK@@@4@$0A@@std@@@std@@QAEPAU?$_Tree_node@PAVIMeetingServiceEvent@ZOOMSDK@@PAX@1@ABQAVIMeetingServiceEvent@ZOOMSDK@@@Z 0042c0e0 f i sdk_util.obj
 0001:0002b0e0       ??$_Buynode@ABQAVIAuthServiceEvent@ZOOMSDK@@@?$_Tree_comp_alloc@V?$_Tset_traits@PAVIAuthServiceEvent@ZOOMSDK@@U?$less@PAVIAuthServiceEvent@ZOOMSDK@@@std@@V?$allocator@PAVIAuthServiceEvent@ZOOMSDK@@@4@$0A@@std@@@std@@QAEPAU?$_Tree_node@PAVIAuthServiceEvent@ZOOMSDK@@PAX@1@ABQAVIAuthServiceEvent@ZOOMSDK@@@Z 0042c0e0 f i sdk_util.obj
 0001:0002b0e0       ??$_Buynode@ABQAVIMeetingVideoCtrlEvent@ZOOMSDK@@@?$_Tree_comp_alloc@V?$_Tset_traits@PAVIMeetingVideoCtrlEvent@ZOOMSDK@@U?$less@PAVIMeetingVideoCtrlEvent@ZOOMSDK@@@std@@V?$allocator@PAVIMeetingVideoCtrlEvent@ZOOMSDK@@@4@$0A@@std@@@std@@QAEPAU?$_Tree_node@PAVIMeetingVideoCtrlEvent@ZOOMSDK@@PAX@1@ABQAVIMeetingVideoCtrlEvent@ZOOMSDK@@@Z 0042c0e0 f i sdk_util.obj
 0001:0002b1b0       ??$_Distance1@V?$_Tree_const_iterator@V?$_Tree_val@U?$_Tree_simple_types@PAVIPreMeetingServiceEvent@ZOOMSDK@@@std@@@std@@@std@@@std@@YAHV?$_Tree_const_iterator@V?$_Tree_val@U?$_Tree_simple_types@PAVIPreMeetingServiceEvent@ZOOMSDK@@@std@@@std@@@0@0Uinput_iterator_tag@0@@Z 0042c1b0 f i sdk_util.obj
 0001:0002b1b0       ??$_Distance1@V?$_Tree_const_iterator@V?$_Tree_val@U?$_Tree_simple_types@PAVIMeetingParticipantsCtrlEvent@ZOOMSDK@@@std@@@std@@@std@@@std@@YAHV?$_Tree_const_iterator@V?$_Tree_val@U?$_Tree_simple_types@PAVIMeetingParticipantsCtrlEvent@ZOOMSDK@@@std@@@std@@@0@0Uinput_iterator_tag@0@@Z 0042c1b0 f i sdk_util.obj
 0001:0002b1b0       ??$_Distance1@V?$_Tree_const_iterator@V?$_Tree_val@U?$_Tree_simple_types@PAVIMeetingChatCtrlEvent@ZOOMSDK@@@std@@@std@@@std@@@std@@YAHV?$_Tree_const_iterator@V?$_Tree_val@U?$_Tree_simple_types@PAVIMeetingChatCtrlEvent@ZOOMSDK@@@std@@@std@@@0@0Uinput_iterator_tag@0@@Z 0042c1b0 f i sdk_util.obj
 0001:0002b1b0       ??$_Distance1@V?$_Tree_const_iterator@V?$_Tree_val@U?$_Tree_simple_types@PAVIClosedCaptionControllerEvent@ZOOMSDK@@@std@@@std@@@std@@@std@@YAHV?$_Tree_const_iterator@V?$_Tree_val@U?$_Tree_simple_types@PAVIClosedCaptionControllerEvent@ZOOMSDK@@@std@@@std@@@0@0Uinput_iterator_tag@0@@Z 0042c1b0 f i sdk_util.obj
 0001:0002b1b0       ??$_Distance1@V?$_Tree_const_iterator@V?$_Tree_val@U?$_Tree_simple_types@PAVIMeetingServiceEvent@ZOOMSDK@@@std@@@std@@@std@@@std@@YAHV?$_Tree_const_iterator@V?$_Tree_val@U?$_Tree_simple_types@PAVIMeetingServiceEvent@ZOOMSDK@@@std@@@std@@@0@0Uinput_iterator_tag@0@@Z 0042c1b0 f i sdk_util.obj
 0001:0002b1b0       ??$_Distance1@V?$_Tree_const_iterator@V?$_Tree_val@U?$_Tree_simple_types@PAVISDKInMeetingServiceMgrEvent@@@std@@@std@@@std@@@std@@YAHV?$_Tree_const_iterator@V?$_Tree_val@U?$_Tree_simple_types@PAVISDKInMeetingServiceMgrEvent@@@std@@@std@@@0@0Uinput_iterator_tag@0@@Z 0042c1b0 f i sdk_util.obj
 0001:0002b1b0       ??$_Distance1@V?$_Tree_const_iterator@V?$_Tree_val@U?$_Tree_simple_types@PAVIAuthServiceEvent@ZOOMSDK@@@std@@@std@@@std@@@std@@YAHV?$_Tree_const_iterator@V?$_Tree_val@U?$_Tree_simple_types@PAVIAuthServiceEvent@ZOOMSDK@@@std@@@std@@@0@0Uinput_iterator_tag@0@@Z 0042c1b0 f i sdk_util.obj
 0001:0002b1f0       ??$_Eqrange@PAVIMeetingChatCtrlEvent@ZOOMSDK@@@?$_Tree@V?$_Tset_traits@PAVIMeetingChatCtrlEvent@ZOOMSDK@@U?$less@PAVIMeetingChatCtrlEvent@ZOOMSDK@@@std@@V?$allocator@PAVIMeetingChatCtrlEvent@ZOOMSDK@@@4@$0A@@std@@@std@@IAE?AU?$pair@V?$_Tree_const_iterator@V?$_Tree_val@U?$_Tree_simple_types@PAVIMeetingChatCtrlEvent@ZOOMSDK@@@std@@@std@@@std@@V12@@1@ABQAVIMeetingChatCtrlEvent@ZOOMSDK@@@Z 0042c1f0 f i sdk_util.obj
 0001:0002b1f0       ??$_Eqrange@PAVIAuthServiceEvent@ZOOMSDK@@@?$_Tree@V?$_Tset_traits@PAVIAuthServiceEvent@ZOOMSDK@@U?$less@PAVIAuthServiceEvent@ZOOMSDK@@@std@@V?$allocator@PAVIAuthServiceEvent@ZOOMSDK@@@4@$0A@@std@@@std@@IAE?AU?$pair@V?$_Tree_const_iterator@V?$_Tree_val@U?$_Tree_simple_types@PAVIAuthServiceEvent@ZOOMSDK@@@std@@@std@@@std@@V12@@1@ABQAVIAuthServiceEvent@ZOOMSDK@@@Z 0042c1f0 f i sdk_util.obj
 0001:0002b1f0       ??$_Eqrange@PAVISDKInMeetingServiceMgrEvent@@@?$_Tree@V?$_Tset_traits@PAVISDKInMeetingServiceMgrEvent@@U?$less@PAVISDKInMeetingServiceMgrEvent@@@std@@V?$allocator@PAVISDKInMeetingServiceMgrEvent@@@3@$0A@@std@@@std@@IAE?AU?$pair@V?$_Tree_const_iterator@V?$_Tree_val@U?$_Tree_simple_types@PAVISDKInMeetingServiceMgrEvent@@@std@@@std@@@std@@V12@@1@ABQAVISDKInMeetingServiceMgrEvent@@@Z 0042c1f0 f i sdk_util.obj
 0001:0002b1f0       ??$_Eqrange@PAVIMeetingServiceEvent@ZOOMSDK@@@?$_Tree@V?$_Tset_traits@PAVIMeetingServiceEvent@ZOOMSDK@@U?$less@PAVIMeetingServiceEvent@ZOOMSDK@@@std@@V?$allocator@PAVIMeetingServiceEvent@ZOOMSDK@@@4@$0A@@std@@@std@@IAE?AU?$pair@V?$_Tree_const_iterator@V?$_Tree_val@U?$_Tree_simple_types@PAVIMeetingServiceEvent@ZOOMSDK@@@std@@@std@@@std@@V12@@1@ABQAVIMeetingServiceEvent@ZOOMSDK@@@Z 0042c1f0 f i sdk_util.obj
 0001:0002b1f0       ??$_Eqrange@PAVIClosedCaptionControllerEvent@ZOOMSDK@@@?$_Tree@V?$_Tset_traits@PAVIClosedCaptionControllerEvent@ZOOMSDK@@U?$less@PAVIClosedCaptionControllerEvent@ZOOMSDK@@@std@@V?$allocator@PAVIClosedCaptionControllerEvent@ZOOMSDK@@@4@$0A@@std@@@std@@IAE?AU?$pair@V?$_Tree_const_iterator@V?$_Tree_val@U?$_Tree_simple_types@PAVIClosedCaptionControllerEvent@ZOOMSDK@@@std@@@std@@@std@@V12@@1@ABQAVIClosedCaptionControllerEvent@ZOOMSDK@@@Z 0042c1f0 f i sdk_util.obj
 0001:0002b1f0       ??$_Eqrange@PAVIMeetingParticipantsCtrlEvent@ZOOMSDK@@@?$_Tree@V?$_Tset_traits@PAVIMeetingParticipantsCtrlEvent@ZOOMSDK@@U?$less@PAVIMeetingParticipantsCtrlEvent@ZOOMSDK@@@std@@V?$allocator@PAVIMeetingParticipantsCtrlEvent@ZOOMSDK@@@4@$0A@@std@@@std@@IAE?AU?$pair@V?$_Tree_const_iterator@V?$_Tree_val@U?$_Tree_simple_types@PAVIMeetingParticipantsCtrlEvent@ZOOMSDK@@@std@@@std@@@std@@V12@@1@ABQAVIMeetingParticipantsCtrlEvent@ZOOMSDK@@@Z 0042c1f0 f i sdk_util.obj
 0001:0002b1f0       ??$_Eqrange@PAVIPreMeetingServiceEvent@ZOOMSDK@@@?$_Tree@V?$_Tset_traits@PAVIPreMeetingServiceEvent@ZOOMSDK@@U?$less@PAVIPreMeetingServiceEvent@ZOOMSDK@@@std@@V?$allocator@PAVIPreMeetingServiceEvent@ZOOMSDK@@@4@$0A@@std@@@std@@IAE?AU?$pair@V?$_Tree_const_iterator@V?$_Tree_val@U?$_Tree_simple_types@PAVIPreMeetingServiceEvent@ZOOMSDK@@@std@@@std@@@std@@V12@@1@ABQAVIPreMeetingServiceEvent@ZOOMSDK@@@Z 0042c1f0 f i sdk_util.obj
 0001:0002b260       ??$_Eqrange@PAVISDKInMeetingServiceMgrEvent@@@?$_Tree@V?$_Tset_traits@PAVISDKInMeetingServiceMgrEvent@@U?$less@PAVISDKInMeetingServiceMgrEvent@@@std@@V?$allocator@PAVISDKInMeetingServiceMgrEvent@@@3@$0A@@std@@@std@@IBE?AU?$pair@V?$_Tree_const_iterator@V?$_Tree_val@U?$_Tree_simple_types@PAVISDKInMeetingServiceMgrEvent@@@std@@@std@@@std@@V12@@1@ABQAVISDKInMeetingServiceMgrEvent@@@Z 0042c260 f i sdk_util.obj
 0001:0002b260       ??$_Eqrange@PAVIMeetingServiceEvent@ZOOMSDK@@@?$_Tree@V?$_Tset_traits@PAVIMeetingServiceEvent@ZOOMSDK@@U?$less@PAVIMeetingServiceEvent@ZOOMSDK@@@std@@V?$allocator@PAVIMeetingServiceEvent@ZOOMSDK@@@4@$0A@@std@@@std@@IBE?AU?$pair@V?$_Tree_const_iterator@V?$_Tree_val@U?$_Tree_simple_types@PAVIMeetingServiceEvent@ZOOMSDK@@@std@@@std@@@std@@V12@@1@ABQAVIMeetingServiceEvent@ZOOMSDK@@@Z 0042c260 f i sdk_util.obj
 0001:0002b260       ??$_Eqrange@PAVIPreMeetingServiceEvent@ZOOMSDK@@@?$_Tree@V?$_Tset_traits@PAVIPreMeetingServiceEvent@ZOOMSDK@@U?$less@PAVIPreMeetingServiceEvent@ZOOMSDK@@@std@@V?$allocator@PAVIPreMeetingServiceEvent@ZOOMSDK@@@4@$0A@@std@@@std@@IBE?AU?$pair@V?$_Tree_const_iterator@V?$_Tree_val@U?$_Tree_simple_types@PAVIPreMeetingServiceEvent@ZOOMSDK@@@std@@@std@@@std@@V12@@1@ABQAVIPreMeetingServiceEvent@ZOOMSDK@@@Z 0042c260 f i sdk_util.obj
 0001:0002b260       ??$_Eqrange@PAVIClosedCaptionControllerEvent@ZOOMSDK@@@?$_Tree@V?$_Tset_traits@PAVIClosedCaptionControllerEvent@ZOOMSDK@@U?$less@PAVIClosedCaptionControllerEvent@ZOOMSDK@@@std@@V?$allocator@PAVIClosedCaptionControllerEvent@ZOOMSDK@@@4@$0A@@std@@@std@@IBE?AU?$pair@V?$_Tree_const_iterator@V?$_Tree_val@U?$_Tree_simple_types@PAVIClosedCaptionControllerEvent@ZOOMSDK@@@std@@@std@@@std@@V12@@1@ABQAVIClosedCaptionControllerEvent@ZOOMSDK@@@Z 0042c260 f i sdk_util.obj
 0001:0002b260       ??$_Eqrange@PAVIMeetingParticipantsCtrlEvent@ZOOMSDK@@@?$_Tree@V?$_Tset_traits@PAVIMeetingParticipantsCtrlEvent@ZOOMSDK@@U?$less@PAVIMeetingParticipantsCtrlEvent@ZOOMSDK@@@std@@V?$allocator@PAVIMeetingParticipantsCtrlEvent@ZOOMSDK@@@4@$0A@@std@@@std@@IBE?AU?$pair@V?$_Tree_const_iterator@V?$_Tree_val@U?$_Tree_simple_types@PAVIMeetingParticipantsCtrlEvent@ZOOMSDK@@@std@@@std@@@std@@V12@@1@ABQAVIMeetingParticipantsCtrlEvent@ZOOMSDK@@@Z 0042c260 f i sdk_util.obj
 0001:0002b260       ??$_Eqrange@PAVIAuthServiceEvent@ZOOMSDK@@@?$_Tree@V?$_Tset_traits@PAVIAuthServiceEvent@ZOOMSDK@@U?$less@PAVIAuthServiceEvent@ZOOMSDK@@@std@@V?$allocator@PAVIAuthServiceEvent@ZOOMSDK@@@4@$0A@@std@@@std@@IBE?AU?$pair@V?$_Tree_const_iterator@V?$_Tree_val@U?$_Tree_simple_types@PAVIAuthServiceEvent@ZOOMSDK@@@std@@@std@@@std@@V12@@1@ABQAVIAuthServiceEvent@ZOOMSDK@@@Z 0042c260 f i sdk_util.obj
 0001:0002b260       ??$_Eqrange@PAVIMeetingChatCtrlEvent@ZOOMSDK@@@?$_Tree@V?$_Tset_traits@PAVIMeetingChatCtrlEvent@ZOOMSDK@@U?$less@PAVIMeetingChatCtrlEvent@ZOOMSDK@@@std@@V?$allocator@PAVIMeetingChatCtrlEvent@ZOOMSDK@@@4@$0A@@std@@@std@@IBE?AU?$pair@V?$_Tree_const_iterator@V?$_Tree_val@U?$_Tree_simple_types@PAVIMeetingChatCtrlEvent@ZOOMSDK@@@std@@@std@@@std@@V12@@1@ABQAVIMeetingChatCtrlEvent@ZOOMSDK@@@Z 0042c260 f i sdk_util.obj
 0001:0002b3e0       ??$_Freenode0@V?$allocator@U?$_Tree_node@PAVIMeetingVideoCtrlEvent@ZOOMSDK@@PAX@std@@@std@@@?$_Tree_node@PAVIMeetingVideoCtrlEvent@ZOOMSDK@@PAX@std@@SAXAAV?$allocator@U?$_Tree_node@PAVIMeetingVideoCtrlEvent@ZOOMSDK@@PAX@std@@@1@PAU01@@Z 0042c3e0 f i sdk_util.obj
 0001:0002b3e0       ??$_Freenode0@V?$allocator@U?$_Tree_node@PAVIPreMeetingServiceEvent@ZOOMSDK@@PAX@std@@@std@@@?$_Tree_node@PAVIPreMeetingServiceEvent@ZOOMSDK@@PAX@std@@SAXAAV?$allocator@U?$_Tree_node@PAVIPreMeetingServiceEvent@ZOOMSDK@@PAX@std@@@1@PAU01@@Z 0042c3e0 f i sdk_util.obj
 0001:0002b3e0       ??$_Freenode0@V?$allocator@U?$_Tree_node@PAVIMeetingChatCtrlEvent@ZOOMSDK@@PAX@std@@@std@@@?$_Tree_node@PAVIMeetingChatCtrlEvent@ZOOMSDK@@PAX@std@@SAXAAV?$allocator@U?$_Tree_node@PAVIMeetingChatCtrlEvent@ZOOMSDK@@PAX@std@@@1@PAU01@@Z 0042c3e0 f i sdk_util.obj
 0001:0002b3e0       ??$_Freenode0@V?$allocator@U?$_Tree_node@PAVIMeetingServiceEvent@ZOOMSDK@@PAX@std@@@std@@@?$_Tree_node@PAVIMeetingServiceEvent@ZOOMSDK@@PAX@std@@SAXAAV?$allocator@U?$_Tree_node@PAVIMeetingServiceEvent@ZOOMSDK@@PAX@std@@@1@PAU01@@Z 0042c3e0 f i sdk_util.obj
 0001:0002b3e0       ??$_Freenode0@V?$allocator@U?$_Tree_node@PAVIClosedCaptionControllerEvent@ZOOMSDK@@PAX@std@@@std@@@?$_Tree_node@PAVIClosedCaptionControllerEvent@ZOOMSDK@@PAX@std@@SAXAAV?$allocator@U?$_Tree_node@PAVIClosedCaptionControllerEvent@ZOOMSDK@@PAX@std@@@1@PAU01@@Z 0042c3e0 f i sdk_util.obj
 0001:0002b3e0       ??$_Freenode0@V?$allocator@U?$_Tree_node@PAVIAuthServiceEvent@ZOOMSDK@@PAX@std@@@std@@@?$_Tree_node@PAVIAuthServiceEvent@ZOOMSDK@@PAX@std@@SAXAAV?$allocator@U?$_Tree_node@PAVIAuthServiceEvent@ZOOMSDK@@PAX@std@@@1@PAU01@@Z 0042c3e0 f i sdk_util.obj
 0001:0002b3e0       ??$_Freenode0@V?$allocator@U?$_Tree_node@PAVISDKInMeetingServiceMgrEvent@@PAX@std@@@std@@@?$_Tree_node@PAVISDKInMeetingServiceMgrEvent@@PAX@std@@SAXAAV?$allocator@U?$_Tree_node@PAVISDKInMeetingServiceMgrEvent@@PAX@std@@@1@PAU01@@Z 0042c3e0 f i sdk_util.obj
 0001:0002b3e0       ??$_Freenode0@V?$allocator@U?$_Tree_node@PAVIMeetingParticipantsCtrlEvent@ZOOMSDK@@PAX@std@@@std@@@?$_Tree_node@PAVIMeetingParticipantsCtrlEvent@ZOOMSDK@@PAX@std@@SAXAAV?$allocator@U?$_Tree_node@PAVIMeetingParticipantsCtrlEvent@ZOOMSDK@@PAX@std@@@1@PAU01@@Z 0042c3e0 f i sdk_util.obj
 0001:0002b480       ??$_Get_size_of_n@$0BE@@std@@YAII@Z 0042c480 f i sdk_util.obj
 0001:0002b4b0       ??$_Get_unwrapped@V?$_Tree_const_iterator@V?$_Tree_val@U?$_Tree_simple_types@PAVIMeetingParticipantsCtrlEvent@ZOOMSDK@@@std@@@std@@@std@@$0A@@std@@YA?AV?$_Tree_unchecked_const_iterator@V?$_Tree_val@U?$_Tree_simple_types@PAVIMeetingParticipantsCtrlEvent@ZOOMSDK@@@std@@@std@@U_Iterator_base0@2@@0@ABV?$_Tree_const_iterator@V?$_Tree_val@U?$_Tree_simple_types@PAVIMeetingParticipantsCtrlEvent@ZOOMSDK@@@std@@@std@@@0@@Z 0042c4b0 f i sdk_util.obj
 0001:0002b4b0       ??$_Get_unwrapped@V?$_Tree_const_iterator@V?$_Tree_val@U?$_Tree_simple_types@PAVISDKInMeetingServiceMgrEvent@@@std@@@std@@@std@@$0A@@std@@YA?AV?$_Tree_unchecked_const_iterator@V?$_Tree_val@U?$_Tree_simple_types@PAVISDKInMeetingServiceMgrEvent@@@std@@@std@@U_Iterator_base0@2@@0@ABV?$_Tree_const_iterator@V?$_Tree_val@U?$_Tree_simple_types@PAVISDKInMeetingServiceMgrEvent@@@std@@@std@@@0@@Z 0042c4b0 f i sdk_util.obj
 0001:0002b4b0       ??$_Get_unwrapped@V?$_Tree_const_iterator@V?$_Tree_val@U?$_Tree_simple_types@PAVIPreMeetingServiceEvent@ZOOMSDK@@@std@@@std@@@std@@$0A@@std@@YA?AV?$_Tree_unchecked_const_iterator@V?$_Tree_val@U?$_Tree_simple_types@PAVIPreMeetingServiceEvent@ZOOMSDK@@@std@@@std@@U_Iterator_base0@2@@0@ABV?$_Tree_const_iterator@V?$_Tree_val@U?$_Tree_simple_types@PAVIPreMeetingServiceEvent@ZOOMSDK@@@std@@@std@@@0@@Z 0042c4b0 f i sdk_util.obj
 0001:0002b4b0       ??$_Get_unwrapped@V?$_Tree_const_iterator@V?$_Tree_val@U?$_Tree_simple_types@PAVIAuthServiceEvent@ZOOMSDK@@@std@@@std@@@std@@$0A@@std@@YA?AV?$_Tree_unchecked_const_iterator@V?$_Tree_val@U?$_Tree_simple_types@PAVIAuthServiceEvent@ZOOMSDK@@@std@@@std@@U_Iterator_base0@2@@0@ABV?$_Tree_const_iterator@V?$_Tree_val@U?$_Tree_simple_types@PAVIAuthServiceEvent@ZOOMSDK@@@std@@@std@@@0@@Z 0042c4b0 f i sdk_util.obj
 0001:0002b4b0       ??$_Get_unwrapped@V?$_Tree_const_iterator@V?$_Tree_val@U?$_Tree_simple_types@PAVIMeetingServiceEvent@ZOOMSDK@@@std@@@std@@@std@@$0A@@std@@YA?AV?$_Tree_unchecked_const_iterator@V?$_Tree_val@U?$_Tree_simple_types@PAVIMeetingServiceEvent@ZOOMSDK@@@std@@@std@@U_Iterator_base0@2@@0@ABV?$_Tree_const_iterator@V?$_Tree_val@U?$_Tree_simple_types@PAVIMeetingServiceEvent@ZOOMSDK@@@std@@@std@@@0@@Z 0042c4b0 f i sdk_util.obj
 0001:0002b4b0       ??$_Get_unwrapped@V?$_Tree_const_iterator@V?$_Tree_val@U?$_Tree_simple_types@PAVIClosedCaptionControllerEvent@ZOOMSDK@@@std@@@std@@@std@@$0A@@std@@YA?AV?$_Tree_unchecked_const_iterator@V?$_Tree_val@U?$_Tree_simple_types@PAVIClosedCaptionControllerEvent@ZOOMSDK@@@std@@@std@@U_Iterator_base0@2@@0@ABV?$_Tree_const_iterator@V?$_Tree_val@U?$_Tree_simple_types@PAVIClosedCaptionControllerEvent@ZOOMSDK@@@std@@@std@@@0@@Z 0042c4b0 f i sdk_util.obj
 0001:0002b4b0       ??$_Get_unwrapped@V?$_Tree_const_iterator@V?$_Tree_val@U?$_Tree_simple_types@PAVIMeetingVideoCtrlEvent@ZOOMSDK@@@std@@@std@@@std@@$0A@@std@@YA?AV?$_Tree_unchecked_const_iterator@V?$_Tree_val@U?$_Tree_simple_types@PAVIMeetingVideoCtrlEvent@ZOOMSDK@@@std@@@std@@U_Iterator_base0@2@@0@ABV?$_Tree_const_iterator@V?$_Tree_val@U?$_Tree_simple_types@PAVIMeetingVideoCtrlEvent@ZOOMSDK@@@std@@@std@@@0@@Z 0042c4b0 f i sdk_util.obj
 0001:0002b4b0       ??$_Get_unwrapped@V?$_Tree_const_iterator@V?$_Tree_val@U?$_Tree_simple_types@PAVIMeetingChatCtrlEvent@ZOOMSDK@@@std@@@std@@@std@@$0A@@std@@YA?AV?$_Tree_unchecked_const_iterator@V?$_Tree_val@U?$_Tree_simple_types@PAVIMeetingChatCtrlEvent@ZOOMSDK@@@std@@@std@@U_Iterator_base0@2@@0@ABV?$_Tree_const_iterator@V?$_Tree_val@U?$_Tree_simple_types@PAVIMeetingChatCtrlEvent@ZOOMSDK@@@std@@@std@@@0@@Z 0042c4b0 f i sdk_util.obj
 0001:0002b4d0       ??$_Insert_at@AAPAVIAuthServiceEvent@ZOOMSDK@@PAU?$_Tree_node@PAVIAuthServiceEvent@ZOOMSDK@@PAX@std@@@?$_Tree@V?$_Tset_traits@PAVIAuthServiceEvent@ZOOMSDK@@U?$less@PAVIAuthServiceEvent@ZOOMSDK@@@std@@V?$allocator@PAVIAuthServiceEvent@ZOOMSDK@@@4@$0A@@std@@@std@@IAE?AV?$_Tree_const_iterator@V?$_Tree_val@U?$_Tree_simple_types@PAVIAuthServiceEvent@ZOOMSDK@@@std@@@std@@@1@_NPAU?$_Tree_node@PAVIAuthServiceEvent@ZOOMSDK@@PAX@1@AAPAVIAuthServiceEvent@ZOOMSDK@@1@Z 0042c4d0 f i sdk_util.obj
 0001:0002b4d0       ??$_Insert_at@AAPAVIMeetingServiceEvent@ZOOMSDK@@PAU?$_Tree_node@PAVIMeetingServiceEvent@ZOOMSDK@@PAX@std@@@?$_Tree@V?$_Tset_traits@PAVIMeetingServiceEvent@ZOOMSDK@@U?$less@PAVIMeetingServiceEvent@ZOOMSDK@@@std@@V?$allocator@PAVIMeetingServiceEvent@ZOOMSDK@@@4@$0A@@std@@@std@@IAE?AV?$_Tree_const_iterator@V?$_Tree_val@U?$_Tree_simple_types@PAVIMeetingServiceEvent@ZOOMSDK@@@std@@@std@@@1@_NPAU?$_Tree_node@PAVIMeetingServiceEvent@ZOOMSDK@@PAX@1@AAPAVIMeetingServiceEvent@ZOOMSDK@@1@Z 0042c4d0 f i sdk_util.obj
 0001:0002b4d0       ??$_Insert_at@AAPAVIMeetingParticipantsCtrlEvent@ZOOMSDK@@PAU?$_Tree_node@PAVIMeetingParticipantsCtrlEvent@ZOOMSDK@@PAX@std@@@?$_Tree@V?$_Tset_traits@PAVIMeetingParticipantsCtrlEvent@ZOOMSDK@@U?$less@PAVIMeetingParticipantsCtrlEvent@ZOOMSDK@@@std@@V?$allocator@PAVIMeetingParticipantsCtrlEvent@ZOOMSDK@@@4@$0A@@std@@@std@@IAE?AV?$_Tree_const_iterator@V?$_Tree_val@U?$_Tree_simple_types@PAVIMeetingParticipantsCtrlEvent@ZOOMSDK@@@std@@@std@@@1@_NPAU?$_Tree_node@PAVIMeetingParticipantsCtrlEvent@ZOOMSDK@@PAX@1@AAPAVIMeetingParticipantsCtrlEvent@ZOOMSDK@@1@Z 0042c4d0 f i sdk_util.obj
 0001:0002b4d0       ??$_Insert_at@AAPAVIMeetingChatCtrlEvent@ZOOMSDK@@PAU?$_Tree_node@PAVIMeetingChatCtrlEvent@ZOOMSDK@@PAX@std@@@?$_Tree@V?$_Tset_traits@PAVIMeetingChatCtrlEvent@ZOOMSDK@@U?$less@PAVIMeetingChatCtrlEvent@ZOOMSDK@@@std@@V?$allocator@PAVIMeetingChatCtrlEvent@ZOOMSDK@@@4@$0A@@std@@@std@@IAE?AV?$_Tree_const_iterator@V?$_Tree_val@U?$_Tree_simple_types@PAVIMeetingChatCtrlEvent@ZOOMSDK@@@std@@@std@@@1@_NPAU?$_Tree_node@PAVIMeetingChatCtrlEvent@ZOOMSDK@@PAX@1@AAPAVIMeetingChatCtrlEvent@ZOOMSDK@@1@Z 0042c4d0 f i sdk_util.obj
 0001:0002b4d0       ??$_Insert_at@AAPAVIMeetingVideoCtrlEvent@ZOOMSDK@@PAU?$_Tree_node@PAVIMeetingVideoCtrlEvent@ZOOMSDK@@PAX@std@@@?$_Tree@V?$_Tset_traits@PAVIMeetingVideoCtrlEvent@ZOOMSDK@@U?$less@PAVIMeetingVideoCtrlEvent@ZOOMSDK@@@std@@V?$allocator@PAVIMeetingVideoCtrlEvent@ZOOMSDK@@@4@$0A@@std@@@std@@IAE?AV?$_Tree_const_iterator@V?$_Tree_val@U?$_Tree_simple_types@PAVIMeetingVideoCtrlEvent@ZOOMSDK@@@std@@@std@@@1@_NPAU?$_Tree_node@PAVIMeetingVideoCtrlEvent@ZOOMSDK@@PAX@1@AAPAVIMeetingVideoCtrlEvent@ZOOMSDK@@1@Z 0042c4d0 f i sdk_util.obj
 0001:0002b4d0       ??$_Insert_at@AAPAVIPreMeetingServiceEvent@ZOOMSDK@@PAU?$_Tree_node@PAVIPreMeetingServiceEvent@ZOOMSDK@@PAX@std@@@?$_Tree@V?$_Tset_traits@PAVIPreMeetingServiceEvent@ZOOMSDK@@U?$less@PAVIPreMeetingServiceEvent@ZOOMSDK@@@std@@V?$allocator@PAVIPreMeetingServiceEvent@ZOOMSDK@@@4@$0A@@std@@@std@@IAE?AV?$_Tree_const_iterator@V?$_Tree_val@U?$_Tree_simple_types@PAVIPreMeetingServiceEvent@ZOOMSDK@@@std@@@std@@@1@_NPAU?$_Tree_node@PAVIPreMeetingServiceEvent@ZOOMSDK@@PAX@1@AAPAVIPreMeetingServiceEvent@ZOOMSDK@@1@Z 0042c4d0 f i sdk_util.obj
 0001:0002b4d0       ??$_Insert_at@AAPAVIClosedCaptionControllerEvent@ZOOMSDK@@PAU?$_Tree_node@PAVIClosedCaptionControllerEvent@ZOOMSDK@@PAX@std@@@?$_Tree@V?$_Tset_traits@PAVIClosedCaptionControllerEvent@ZOOMSDK@@U?$less@PAVIClosedCaptionControllerEvent@ZOOMSDK@@@std@@V?$allocator@PAVIClosedCaptionControllerEvent@ZOOMSDK@@@4@$0A@@std@@@std@@IAE?AV?$_Tree_const_iterator@V?$_Tree_val@U?$_Tree_simple_types@PAVIClosedCaptionControllerEvent@ZOOMSDK@@@std@@@std@@@1@_NPAU?$_Tree_node@PAVIClosedCaptionControllerEvent@ZOOMSDK@@PAX@1@AAPAVIClosedCaptionControllerEvent@ZOOMSDK@@1@Z 0042c4d0 f i sdk_util.obj
 0001:0002b4d0       ??$_Insert_at@AAPAVISDKInMeetingServiceMgrEvent@@PAU?$_Tree_node@PAVISDKInMeetingServiceMgrEvent@@PAX@std@@@?$_Tree@V?$_Tset_traits@PAVISDKInMeetingServiceMgrEvent@@U?$less@PAVISDKInMeetingServiceMgrEvent@@@std@@V?$allocator@PAVISDKInMeetingServiceMgrEvent@@@3@$0A@@std@@@std@@IAE?AV?$_Tree_const_iterator@V?$_Tree_val@U?$_Tree_simple_types@PAVISDKInMeetingServiceMgrEvent@@@std@@@std@@@1@_NPAU?$_Tree_node@PAVISDKInMeetingServiceMgrEvent@@PAX@1@AAPAVISDKInMeetingServiceMgrEvent@@1@Z 0042c4d0 f i sdk_util.obj
 0001:0002b760       ??$_Insert_at@ABQAVIMeetingVideoCtrlEvent@ZOOMSDK@@U_Not_a_node_tag@std@@@?$_Tree@V?$_Tset_traits@PAVIMeetingVideoCtrlEvent@ZOOMSDK@@U?$less@PAVIMeetingVideoCtrlEvent@ZOOMSDK@@@std@@V?$allocator@PAVIMeetingVideoCtrlEvent@ZOOMSDK@@@4@$0A@@std@@@std@@IAE?AV?$_Tree_const_iterator@V?$_Tree_val@U?$_Tree_simple_types@PAVIMeetingVideoCtrlEvent@ZOOMSDK@@@std@@@std@@@1@_NPAU?$_Tree_node@PAVIMeetingVideoCtrlEvent@ZOOMSDK@@PAX@1@ABQAVIMeetingVideoCtrlEvent@ZOOMSDK@@U_Not_a_node_tag@1@@Z 0042c760 f i sdk_util.obj
 0001:0002b760       ??$_Insert_at@ABQAVIMeetingParticipantsCtrlEvent@ZOOMSDK@@U_Not_a_node_tag@std@@@?$_Tree@V?$_Tset_traits@PAVIMeetingParticipantsCtrlEvent@ZOOMSDK@@U?$less@PAVIMeetingParticipantsCtrlEvent@ZOOMSDK@@@std@@V?$allocator@PAVIMeetingParticipantsCtrlEvent@ZOOMSDK@@@4@$0A@@std@@@std@@IAE?AV?$_Tree_const_iterator@V?$_Tree_val@U?$_Tree_simple_types@PAVIMeetingParticipantsCtrlEvent@ZOOMSDK@@@std@@@std@@@1@_NPAU?$_Tree_node@PAVIMeetingParticipantsCtrlEvent@ZOOMSDK@@PAX@1@ABQAVIMeetingParticipantsCtrlEvent@ZOOMSDK@@U_Not_a_node_tag@1@@Z 0042c760 f i sdk_util.obj
 0001:0002b760       ??$_Insert_at@ABQAVIMeetingServiceEvent@ZOOMSDK@@U_Not_a_node_tag@std@@@?$_Tree@V?$_Tset_traits@PAVIMeetingServiceEvent@ZOOMSDK@@U?$less@PAVIMeetingServiceEvent@ZOOMSDK@@@std@@V?$allocator@PAVIMeetingServiceEvent@ZOOMSDK@@@4@$0A@@std@@@std@@IAE?AV?$_Tree_const_iterator@V?$_Tree_val@U?$_Tree_simple_types@PAVIMeetingServiceEvent@ZOOMSDK@@@std@@@std@@@1@_NPAU?$_Tree_node@PAVIMeetingServiceEvent@ZOOMSDK@@PAX@1@ABQAVIMeetingServiceEvent@ZOOMSDK@@U_Not_a_node_tag@1@@Z 0042c760 f i sdk_util.obj
 0001:0002b760       ??$_Insert_at@ABQAVIMeetingChatCtrlEvent@ZOOMSDK@@U_Not_a_node_tag@std@@@?$_Tree@V?$_Tset_traits@PAVIMeetingChatCtrlEvent@ZOOMSDK@@U?$less@PAVIMeetingChatCtrlEvent@ZOOMSDK@@@std@@V?$allocator@PAVIMeetingChatCtrlEvent@ZOOMSDK@@@4@$0A@@std@@@std@@IAE?AV?$_Tree_const_iterator@V?$_Tree_val@U?$_Tree_simple_types@PAVIMeetingChatCtrlEvent@ZOOMSDK@@@std@@@std@@@1@_NPAU?$_Tree_node@PAVIMeetingChatCtrlEvent@ZOOMSDK@@PAX@1@ABQAVIMeetingChatCtrlEvent@ZOOMSDK@@U_Not_a_node_tag@1@@Z 0042c760 f i sdk_util.obj
 0001:0002b760       ??$_Insert_at@ABQAVIAuthServiceEvent@ZOOMSDK@@U_Not_a_node_tag@std@@@?$_Tree@V?$_Tset_traits@PAVIAuthServiceEvent@ZOOMSDK@@U?$less@PAVIAuthServiceEvent@ZOOMSDK@@@std@@V?$allocator@PAVIAuthServiceEvent@ZOOMSDK@@@4@$0A@@std@@@std@@IAE?AV?$_Tree_const_iterator@V?$_Tree_val@U?$_Tree_simple_types@PAVIAuthServiceEvent@ZOOMSDK@@@std@@@std@@@1@_NPAU?$_Tree_node@PAVIAuthServiceEvent@ZOOMSDK@@PAX@1@ABQAVIAuthServiceEvent@ZOOMSDK@@U_Not_a_node_tag@1@@Z 0042c760 f i sdk_util.obj
 0001:0002b760       ??$_Insert_at@ABQAVIPreMeetingServiceEvent@ZOOMSDK@@U_Not_a_node_tag@std@@@?$_Tree@V?$_Tset_traits@PAVIPreMeetingServiceEvent@ZOOMSDK@@U?$less@PAVIPreMeetingServiceEvent@ZOOMSDK@@@std@@V?$allocator@PAVIPreMeetingServiceEvent@ZOOMSDK@@@4@$0A@@std@@@std@@IAE?AV?$_Tree_const_iterator@V?$_Tree_val@U?$_Tree_simple_types@PAVIPreMeetingServiceEvent@ZOOMSDK@@@std@@@std@@@1@_NPAU?$_Tree_node@PAVIPreMeetingServiceEvent@ZOOMSDK@@PAX@1@ABQAVIPreMeetingServiceEvent@ZOOMSDK@@U_Not_a_node_tag@1@@Z 0042c760 f i sdk_util.obj
 0001:0002b760       ??$_Insert_at@ABQAVIClosedCaptionControllerEvent@ZOOMSDK@@U_Not_a_node_tag@std@@@?$_Tree@V?$_Tset_traits@PAVIClosedCaptionControllerEvent@ZOOMSDK@@U?$less@PAVIClosedCaptionControllerEvent@ZOOMSDK@@@std@@V?$allocator@PAVIClosedCaptionControllerEvent@ZOOMSDK@@@4@$0A@@std@@@std@@IAE?AV?$_Tree_const_iterator@V?$_Tree_val@U?$_Tree_simple_types@PAVIClosedCaptionControllerEvent@ZOOMSDK@@@std@@@std@@@1@_NPAU?$_Tree_node@PAVIClosedCaptionControllerEvent@ZOOMSDK@@PAX@1@ABQAVIClosedCaptionControllerEvent@ZOOMSDK@@U_Not_a_node_tag@1@@Z 0042c760 f i sdk_util.obj
 0001:0002b760       ??$_Insert_at@ABQAVISDKInMeetingServiceMgrEvent@@U_Not_a_node_tag@std@@@?$_Tree@V?$_Tset_traits@PAVISDKInMeetingServiceMgrEvent@@U?$less@PAVISDKInMeetingServiceMgrEvent@@@std@@V?$allocator@PAVISDKInMeetingServiceMgrEvent@@@3@$0A@@std@@@std@@IAE?AV?$_Tree_const_iterator@V?$_Tree_val@U?$_Tree_simple_types@PAVISDKInMeetingServiceMgrEvent@@@std@@@std@@@1@_NPAU?$_Tree_node@PAVISDKInMeetingServiceMgrEvent@@PAX@1@ABQAVISDKInMeetingServiceMgrEvent@@U_Not_a_node_tag@1@@Z 0042c760 f i sdk_util.obj
 0001:0002b9f0       ??$_Insert_hint@AAPAVIAuthServiceEvent@ZOOMSDK@@PAU?$_Tree_node@PAVIAuthServiceEvent@ZOOMSDK@@PAX@std@@@?$_Tree@V?$_Tset_traits@PAVIAuthServiceEvent@ZOOMSDK@@U?$less@PAVIAuthServiceEvent@ZOOMSDK@@@std@@V?$allocator@PAVIAuthServiceEvent@ZOOMSDK@@@4@$0A@@std@@@std@@IAE?AV?$_Tree_const_iterator@V?$_Tree_val@U?$_Tree_simple_types@PAVIAuthServiceEvent@ZOOMSDK@@@std@@@std@@@1@V21@AAPAVIAuthServiceEvent@ZOOMSDK@@PAU?$_Tree_node@PAVIAuthServiceEvent@ZOOMSDK@@PAX@1@@Z 0042c9f0 f i sdk_util.obj
 0001:0002b9f0       ??$_Insert_hint@AAPAVIClosedCaptionControllerEvent@ZOOMSDK@@PAU?$_Tree_node@PAVIClosedCaptionControllerEvent@ZOOMSDK@@PAX@std@@@?$_Tree@V?$_Tset_traits@PAVIClosedCaptionControllerEvent@ZOOMSDK@@U?$less@PAVIClosedCaptionControllerEvent@ZOOMSDK@@@std@@V?$allocator@PAVIClosedCaptionControllerEvent@ZOOMSDK@@@4@$0A@@std@@@std@@IAE?AV?$_Tree_const_iterator@V?$_Tree_val@U?$_Tree_simple_types@PAVIClosedCaptionControllerEvent@ZOOMSDK@@@std@@@std@@@1@V21@AAPAVIClosedCaptionControllerEvent@ZOOMSDK@@PAU?$_Tree_node@PAVIClosedCaptionControllerEvent@ZOOMSDK@@PAX@1@@Z 0042c9f0 f i sdk_util.obj
 0001:0002b9f0       ??$_Insert_hint@AAPAVIPreMeetingServiceEvent@ZOOMSDK@@PAU?$_Tree_node@PAVIPreMeetingServiceEvent@ZOOMSDK@@PAX@std@@@?$_Tree@V?$_Tset_traits@PAVIPreMeetingServiceEvent@ZOOMSDK@@U?$less@PAVIPreMeetingServiceEvent@ZOOMSDK@@@std@@V?$allocator@PAVIPreMeetingServiceEvent@ZOOMSDK@@@4@$0A@@std@@@std@@IAE?AV?$_Tree_const_iterator@V?$_Tree_val@U?$_Tree_simple_types@PAVIPreMeetingServiceEvent@ZOOMSDK@@@std@@@std@@@1@V21@AAPAVIPreMeetingServiceEvent@ZOOMSDK@@PAU?$_Tree_node@PAVIPreMeetingServiceEvent@ZOOMSDK@@PAX@1@@Z 0042c9f0 f i sdk_util.obj
 0001:0002b9f0       ??$_Insert_hint@AAPAVIMeetingParticipantsCtrlEvent@ZOOMSDK@@PAU?$_Tree_node@PAVIMeetingParticipantsCtrlEvent@ZOOMSDK@@PAX@std@@@?$_Tree@V?$_Tset_traits@PAVIMeetingParticipantsCtrlEvent@ZOOMSDK@@U?$less@PAVIMeetingParticipantsCtrlEvent@ZOOMSDK@@@std@@V?$allocator@PAVIMeetingParticipantsCtrlEvent@ZOOMSDK@@@4@$0A@@std@@@std@@IAE?AV?$_Tree_const_iterator@V?$_Tree_val@U?$_Tree_simple_types@PAVIMeetingParticipantsCtrlEvent@ZOOMSDK@@@std@@@std@@@1@V21@AAPAVIMeetingParticipantsCtrlEvent@ZOOMSDK@@PAU?$_Tree_node@PAVIMeetingParticipantsCtrlEvent@ZOOMSDK@@PAX@1@@Z 0042c9f0 f i sdk_util.obj
 0001:0002b9f0       ??$_Insert_hint@AAPAVIMeetingChatCtrlEvent@ZOOMSDK@@PAU?$_Tree_node@PAVIMeetingChatCtrlEvent@ZOOMSDK@@PAX@std@@@?$_Tree@V?$_Tset_traits@PAVIMeetingChatCtrlEvent@ZOOMSDK@@U?$less@PAVIMeetingChatCtrlEvent@ZOOMSDK@@@std@@V?$allocator@PAVIMeetingChatCtrlEvent@ZOOMSDK@@@4@$0A@@std@@@std@@IAE?AV?$_Tree_const_iterator@V?$_Tree_val@U?$_Tree_simple_types@PAVIMeetingChatCtrlEvent@ZOOMSDK@@@std@@@std@@@1@V21@AAPAVIMeetingChatCtrlEvent@ZOOMSDK@@PAU?$_Tree_node@PAVIMeetingChatCtrlEvent@ZOOMSDK@@PAX@1@@Z 0042c9f0 f i sdk_util.obj
 0001:0002b9f0       ??$_Insert_hint@AAPAVIMeetingServiceEvent@ZOOMSDK@@PAU?$_Tree_node@PAVIMeetingServiceEvent@ZOOMSDK@@PAX@std@@@?$_Tree@V?$_Tset_traits@PAVIMeetingServiceEvent@ZOOMSDK@@U?$less@PAVIMeetingServiceEvent@ZOOMSDK@@@std@@V?$allocator@PAVIMeetingServiceEvent@ZOOMSDK@@@4@$0A@@std@@@std@@IAE?AV?$_Tree_const_iterator@V?$_Tree_val@U?$_Tree_simple_types@PAVIMeetingServiceEvent@ZOOMSDK@@@std@@@std@@@1@V21@AAPAVIMeetingServiceEvent@ZOOMSDK@@PAU?$_Tree_node@PAVIMeetingServiceEvent@ZOOMSDK@@PAX@1@@Z 0042c9f0 f i sdk_util.obj
 0001:0002b9f0       ??$_Insert_hint@AAPAVIMeetingVideoCtrlEvent@ZOOMSDK@@PAU?$_Tree_node@PAVIMeetingVideoCtrlEvent@ZOOMSDK@@PAX@std@@@?$_Tree@V?$_Tset_traits@PAVIMeetingVideoCtrlEvent@ZOOMSDK@@U?$less@PAVIMeetingVideoCtrlEvent@ZOOMSDK@@@std@@V?$allocator@PAVIMeetingVideoCtrlEvent@ZOOMSDK@@@4@$0A@@std@@@std@@IAE?AV?$_Tree_const_iterator@V?$_Tree_val@U?$_Tree_simple_types@PAVIMeetingVideoCtrlEvent@ZOOMSDK@@@std@@@std@@@1@V21@AAPAVIMeetingVideoCtrlEvent@ZOOMSDK@@PAU?$_Tree_node@PAVIMeetingVideoCtrlEvent@ZOOMSDK@@PAX@1@@Z 0042c9f0 f i sdk_util.obj
 0001:0002b9f0       ??$_Insert_hint@AAPAVISDKInMeetingServiceMgrEvent@@PAU?$_Tree_node@PAVISDKInMeetingServiceMgrEvent@@PAX@std@@@?$_Tree@V?$_Tset_traits@PAVISDKInMeetingServiceMgrEvent@@U?$less@PAVISDKInMeetingServiceMgrEvent@@@std@@V?$allocator@PAVISDKInMeetingServiceMgrEvent@@@3@$0A@@std@@@std@@IAE?AV?$_Tree_const_iterator@V?$_Tree_val@U?$_Tree_simple_types@PAVISDKInMeetingServiceMgrEvent@@@std@@@std@@@1@V21@AAPAVISDKInMeetingServiceMgrEvent@@PAU?$_Tree_node@PAVISDKInMeetingServiceMgrEvent@@PAX@1@@Z 0042c9f0 f i sdk_util.obj
 0001:0002c220       ??$_Insert_nohint@AAPAVIAuthServiceEvent@ZOOMSDK@@PAU?$_Tree_node@PAVIAuthServiceEvent@ZOOMSDK@@PAX@std@@@?$_Tree@V?$_Tset_traits@PAVIAuthServiceEvent@ZOOMSDK@@U?$less@PAVIAuthServiceEvent@ZOOMSDK@@@std@@V?$allocator@PAVIAuthServiceEvent@ZOOMSDK@@@4@$0A@@std@@@std@@IAE?AU?$pair@V?$_Tree_const_iterator@V?$_Tree_val@U?$_Tree_simple_types@PAVIAuthServiceEvent@ZOOMSDK@@@std@@@std@@@std@@_N@1@_NAAPAVIAuthServiceEvent@ZOOMSDK@@PAU?$_Tree_node@PAVIAuthServiceEvent@ZOOMSDK@@PAX@1@@Z 0042d220 f i sdk_util.obj
 0001:0002c220       ??$_Insert_nohint@AAPAVIClosedCaptionControllerEvent@ZOOMSDK@@PAU?$_Tree_node@PAVIClosedCaptionControllerEvent@ZOOMSDK@@PAX@std@@@?$_Tree@V?$_Tset_traits@PAVIClosedCaptionControllerEvent@ZOOMSDK@@U?$less@PAVIClosedCaptionControllerEvent@ZOOMSDK@@@std@@V?$allocator@PAVIClosedCaptionControllerEvent@ZOOMSDK@@@4@$0A@@std@@@std@@IAE?AU?$pair@V?$_Tree_const_iterator@V?$_Tree_val@U?$_Tree_simple_types@PAVIClosedCaptionControllerEvent@ZOOMSDK@@@std@@@std@@@std@@_N@1@_NAAPAVIClosedCaptionControllerEvent@ZOOMSDK@@PAU?$_Tree_node@PAVIClosedCaptionControllerEvent@ZOOMSDK@@PAX@1@@Z 0042d220 f i sdk_util.obj
 0001:0002c220       ??$_Insert_nohint@AAPAVIMeetingChatCtrlEvent@ZOOMSDK@@PAU?$_Tree_node@PAVIMeetingChatCtrlEvent@ZOOMSDK@@PAX@std@@@?$_Tree@V?$_Tset_traits@PAVIMeetingChatCtrlEvent@ZOOMSDK@@U?$less@PAVIMeetingChatCtrlEvent@ZOOMSDK@@@std@@V?$allocator@PAVIMeetingChatCtrlEvent@ZOOMSDK@@@4@$0A@@std@@@std@@IAE?AU?$pair@V?$_Tree_const_iterator@V?$_Tree_val@U?$_Tree_simple_types@PAVIMeetingChatCtrlEvent@ZOOMSDK@@@std@@@std@@@std@@_N@1@_NAAPAVIMeetingChatCtrlEvent@ZOOMSDK@@PAU?$_Tree_node@PAVIMeetingChatCtrlEvent@ZOOMSDK@@PAX@1@@Z 0042d220 f i sdk_util.obj
 0001:0002c220       ??$_Insert_nohint@AAPAVIMeetingParticipantsCtrlEvent@ZOOMSDK@@PAU?$_Tree_node@PAVIMeetingParticipantsCtrlEvent@ZOOMSDK@@PAX@std@@@?$_Tree@V?$_Tset_traits@PAVIMeetingParticipantsCtrlEvent@ZOOMSDK@@U?$less@PAVIMeetingParticipantsCtrlEvent@ZOOMSDK@@@std@@V?$allocator@PAVIMeetingParticipantsCtrlEvent@ZOOMSDK@@@4@$0A@@std@@@std@@IAE?AU?$pair@V?$_Tree_const_iterator@V?$_Tree_val@U?$_Tree_simple_types@PAVIMeetingParticipantsCtrlEvent@ZOOMSDK@@@std@@@std@@@std@@_N@1@_NAAPAVIMeetingParticipantsCtrlEvent@ZOOMSDK@@PAU?$_Tree_node@PAVIMeetingParticipantsCtrlEvent@ZOOMSDK@@PAX@1@@Z 0042d220 f i sdk_util.obj
 0001:0002c220       ??$_Insert_nohint@AAPAVIMeetingVideoCtrlEvent@ZOOMSDK@@PAU?$_Tree_node@PAVIMeetingVideoCtrlEvent@ZOOMSDK@@PAX@std@@@?$_Tree@V?$_Tset_traits@PAVIMeetingVideoCtrlEvent@ZOOMSDK@@U?$less@PAVIMeetingVideoCtrlEvent@ZOOMSDK@@@std@@V?$allocator@PAVIMeetingVideoCtrlEvent@ZOOMSDK@@@4@$0A@@std@@@std@@IAE?AU?$pair@V?$_Tree_const_iterator@V?$_Tree_val@U?$_Tree_simple_types@PAVIMeetingVideoCtrlEvent@ZOOMSDK@@@std@@@std@@@std@@_N@1@_NAAPAVIMeetingVideoCtrlEvent@ZOOMSDK@@PAU?$_Tree_node@PAVIMeetingVideoCtrlEvent@ZOOMSDK@@PAX@1@@Z 0042d220 f i sdk_util.obj
 0001:0002c220       ??$_Insert_nohint@AAPAVIMeetingServiceEvent@ZOOMSDK@@PAU?$_Tree_node@PAVIMeetingServiceEvent@ZOOMSDK@@PAX@std@@@?$_Tree@V?$_Tset_traits@PAVIMeetingServiceEvent@ZOOMSDK@@U?$less@PAVIMeetingServiceEvent@ZOOMSDK@@@std@@V?$allocator@PAVIMeetingServiceEvent@ZOOMSDK@@@4@$0A@@std@@@std@@IAE?AU?$pair@V?$_Tree_const_iterator@V?$_Tree_val@U?$_Tree_simple_types@PAVIMeetingServiceEvent@ZOOMSDK@@@std@@@std@@@std@@_N@1@_NAAPAVIMeetingServiceEvent@ZOOMSDK@@PAU?$_Tree_node@PAVIMeetingServiceEvent@ZOOMSDK@@PAX@1@@Z 0042d220 f i sdk_util.obj
 0001:0002c220       ??$_Insert_nohint@AAPAVISDKInMeetingServiceMgrEvent@@PAU?$_Tree_node@PAVISDKInMeetingServiceMgrEvent@@PAX@std@@@?$_Tree@V?$_Tset_traits@PAVISDKInMeetingServiceMgrEvent@@U?$less@PAVISDKInMeetingServiceMgrEvent@@@std@@V?$allocator@PAVISDKInMeetingServiceMgrEvent@@@3@$0A@@std@@@std@@IAE?AU?$pair@V?$_Tree_const_iterator@V?$_Tree_val@U?$_Tree_simple_types@PAVISDKInMeetingServiceMgrEvent@@@std@@@std@@@std@@_N@1@_NAAPAVISDKInMeetingServiceMgrEvent@@PAU?$_Tree_node@PAVISDKInMeetingServiceMgrEvent@@PAX@1@@Z 0042d220 f i sdk_util.obj
 0001:0002c220       ??$_Insert_nohint@AAPAVIPreMeetingServiceEvent@ZOOMSDK@@PAU?$_Tree_node@PAVIPreMeetingServiceEvent@ZOOMSDK@@PAX@std@@@?$_Tree@V?$_Tset_traits@PAVIPreMeetingServiceEvent@ZOOMSDK@@U?$less@PAVIPreMeetingServiceEvent@ZOOMSDK@@@std@@V?$allocator@PAVIPreMeetingServiceEvent@ZOOMSDK@@@4@$0A@@std@@@std@@IAE?AU?$pair@V?$_Tree_const_iterator@V?$_Tree_val@U?$_Tree_simple_types@PAVIPreMeetingServiceEvent@ZOOMSDK@@@std@@@std@@@std@@_N@1@_NAAPAVIPreMeetingServiceEvent@ZOOMSDK@@PAU?$_Tree_node@PAVIPreMeetingServiceEvent@ZOOMSDK@@PAX@1@@Z 0042d220 f i sdk_util.obj
 0001:0002c520       ??$_Insert_nohint@ABQAVIMeetingChatCtrlEvent@ZOOMSDK@@U_Not_a_node_tag@std@@@?$_Tree@V?$_Tset_traits@PAVIMeetingChatCtrlEvent@ZOOMSDK@@U?$less@PAVIMeetingChatCtrlEvent@ZOOMSDK@@@std@@V?$allocator@PAVIMeetingChatCtrlEvent@ZOOMSDK@@@4@$0A@@std@@@std@@IAE?AU?$pair@V?$_Tree_const_iterator@V?$_Tree_val@U?$_Tree_simple_types@PAVIMeetingChatCtrlEvent@ZOOMSDK@@@std@@@std@@@std@@_N@1@_NABQAVIMeetingChatCtrlEvent@ZOOMSDK@@U_Not_a_node_tag@1@@Z 0042d520 f i sdk_util.obj
 0001:0002c520       ??$_Insert_nohint@ABQAVIMeetingParticipantsCtrlEvent@ZOOMSDK@@U_Not_a_node_tag@std@@@?$_Tree@V?$_Tset_traits@PAVIMeetingParticipantsCtrlEvent@ZOOMSDK@@U?$less@PAVIMeetingParticipantsCtrlEvent@ZOOMSDK@@@std@@V?$allocator@PAVIMeetingParticipantsCtrlEvent@ZOOMSDK@@@4@$0A@@std@@@std@@IAE?AU?$pair@V?$_Tree_const_iterator@V?$_Tree_val@U?$_Tree_simple_types@PAVIMeetingParticipantsCtrlEvent@ZOOMSDK@@@std@@@std@@@std@@_N@1@_NABQAVIMeetingParticipantsCtrlEvent@ZOOMSDK@@U_Not_a_node_tag@1@@Z 0042d520 f i sdk_util.obj
 0001:0002c520       ??$_Insert_nohint@ABQAVIMeetingVideoCtrlEvent@ZOOMSDK@@U_Not_a_node_tag@std@@@?$_Tree@V?$_Tset_traits@PAVIMeetingVideoCtrlEvent@ZOOMSDK@@U?$less@PAVIMeetingVideoCtrlEvent@ZOOMSDK@@@std@@V?$allocator@PAVIMeetingVideoCtrlEvent@ZOOMSDK@@@4@$0A@@std@@@std@@IAE?AU?$pair@V?$_Tree_const_iterator@V?$_Tree_val@U?$_Tree_simple_types@PAVIMeetingVideoCtrlEvent@ZOOMSDK@@@std@@@std@@@std@@_N@1@_NABQAVIMeetingVideoCtrlEvent@ZOOMSDK@@U_Not_a_node_tag@1@@Z 0042d520 f i sdk_util.obj
 0001:0002c520       ??$_Insert_nohint@ABQAVIMeetingServiceEvent@ZOOMSDK@@U_Not_a_node_tag@std@@@?$_Tree@V?$_Tset_traits@PAVIMeetingServiceEvent@ZOOMSDK@@U?$less@PAVIMeetingServiceEvent@ZOOMSDK@@@std@@V?$allocator@PAVIMeetingServiceEvent@ZOOMSDK@@@4@$0A@@std@@@std@@IAE?AU?$pair@V?$_Tree_const_iterator@V?$_Tree_val@U?$_Tree_simple_types@PAVIMeetingServiceEvent@ZOOMSDK@@@std@@@std@@@std@@_N@1@_NABQAVIMeetingServiceEvent@ZOOMSDK@@U_Not_a_node_tag@1@@Z 0042d520 f i sdk_util.obj
 0001:0002c520       ??$_Insert_nohint@ABQAVIClosedCaptionControllerEvent@ZOOMSDK@@U_Not_a_node_tag@std@@@?$_Tree@V?$_Tset_traits@PAVIClosedCaptionControllerEvent@ZOOMSDK@@U?$less@PAVIClosedCaptionControllerEvent@ZOOMSDK@@@std@@V?$allocator@PAVIClosedCaptionControllerEvent@ZOOMSDK@@@4@$0A@@std@@@std@@IAE?AU?$pair@V?$_Tree_const_iterator@V?$_Tree_val@U?$_Tree_simple_types@PAVIClosedCaptionControllerEvent@ZOOMSDK@@@std@@@std@@@std@@_N@1@_NABQAVIClosedCaptionControllerEvent@ZOOMSDK@@U_Not_a_node_tag@1@@Z 0042d520 f i sdk_util.obj
 0001:0002c520       ??$_Insert_nohint@ABQAVIPreMeetingServiceEvent@ZOOMSDK@@U_Not_a_node_tag@std@@@?$_Tree@V?$_Tset_traits@PAVIPreMeetingServiceEvent@ZOOMSDK@@U?$less@PAVIPreMeetingServiceEvent@ZOOMSDK@@@std@@V?$allocator@PAVIPreMeetingServiceEvent@ZOOMSDK@@@4@$0A@@std@@@std@@IAE?AU?$pair@V?$_Tree_const_iterator@V?$_Tree_val@U?$_Tree_simple_types@PAVIPreMeetingServiceEvent@ZOOMSDK@@@std@@@std@@@std@@_N@1@_NABQAVIPreMeetingServiceEvent@ZOOMSDK@@U_Not_a_node_tag@1@@Z 0042d520 f i sdk_util.obj
 0001:0002c520       ??$_Insert_nohint@ABQAVISDKInMeetingServiceMgrEvent@@U_Not_a_node_tag@std@@@?$_Tree@V?$_Tset_traits@PAVISDKInMeetingServiceMgrEvent@@U?$less@PAVISDKInMeetingServiceMgrEvent@@@std@@V?$allocator@PAVISDKInMeetingServiceMgrEvent@@@3@$0A@@std@@@std@@IAE?AU?$pair@V?$_Tree_const_iterator@V?$_Tree_val@U?$_Tree_simple_types@PAVISDKInMeetingServiceMgrEvent@@@std@@@std@@@std@@_N@1@_NABQAVISDKInMeetingServiceMgrEvent@@U_Not_a_node_tag@1@@Z 0042d520 f i sdk_util.obj
 0001:0002c520       ??$_Insert_nohint@ABQAVIAuthServiceEvent@ZOOMSDK@@U_Not_a_node_tag@std@@@?$_Tree@V?$_Tset_traits@PAVIAuthServiceEvent@ZOOMSDK@@U?$less@PAVIAuthServiceEvent@ZOOMSDK@@@std@@V?$allocator@PAVIAuthServiceEvent@ZOOMSDK@@@4@$0A@@std@@@std@@IAE?AU?$pair@V?$_Tree_const_iterator@V?$_Tree_val@U?$_Tree_simple_types@PAVIAuthServiceEvent@ZOOMSDK@@@std@@@std@@@std@@_N@1@_NABQAVIAuthServiceEvent@ZOOMSDK@@U_Not_a_node_tag@1@@Z 0042d520 f i sdk_util.obj
 0001:0002c820       ??$distance@V?$_Tree_const_iterator@V?$_Tree_val@U?$_Tree_simple_types@PAVIMeetingServiceEvent@ZOOMSDK@@@std@@@std@@@std@@@std@@YAHV?$_Tree_const_iterator@V?$_Tree_val@U?$_Tree_simple_types@PAVIMeetingServiceEvent@ZOOMSDK@@@std@@@std@@@0@0@Z 0042d820 f i sdk_util.obj
 0001:0002c820       ??$distance@V?$_Tree_const_iterator@V?$_Tree_val@U?$_Tree_simple_types@PAVISDKInMeetingServiceMgrEvent@@@std@@@std@@@std@@@std@@YAHV?$_Tree_const_iterator@V?$_Tree_val@U?$_Tree_simple_types@PAVISDKInMeetingServiceMgrEvent@@@std@@@std@@@0@0@Z 0042d820 f i sdk_util.obj
 0001:0002c820       ??$distance@V?$_Tree_const_iterator@V?$_Tree_val@U?$_Tree_simple_types@PAVIAuthServiceEvent@ZOOMSDK@@@std@@@std@@@std@@@std@@YAHV?$_Tree_const_iterator@V?$_Tree_val@U?$_Tree_simple_types@PAVIAuthServiceEvent@ZOOMSDK@@@std@@@std@@@0@0@Z 0042d820 f i sdk_util.obj
 0001:0002c820       ??$distance@V?$_Tree_const_iterator@V?$_Tree_val@U?$_Tree_simple_types@PAVIClosedCaptionControllerEvent@ZOOMSDK@@@std@@@std@@@std@@@std@@YAHV?$_Tree_const_iterator@V?$_Tree_val@U?$_Tree_simple_types@PAVIClosedCaptionControllerEvent@ZOOMSDK@@@std@@@std@@@0@0@Z 0042d820 f i sdk_util.obj
 0001:0002c820       ??$distance@V?$_Tree_const_iterator@V?$_Tree_val@U?$_Tree_simple_types@PAVIPreMeetingServiceEvent@ZOOMSDK@@@std@@@std@@@std@@@std@@YAHV?$_Tree_const_iterator@V?$_Tree_val@U?$_Tree_simple_types@PAVIPreMeetingServiceEvent@ZOOMSDK@@@std@@@std@@@0@0@Z 0042d820 f i sdk_util.obj
 0001:0002c820       ??$distance@V?$_Tree_const_iterator@V?$_Tree_val@U?$_Tree_simple_types@PAVIMeetingParticipantsCtrlEvent@ZOOMSDK@@@std@@@std@@@std@@@std@@YAHV?$_Tree_const_iterator@V?$_Tree_val@U?$_Tree_simple_types@PAVIMeetingParticipantsCtrlEvent@ZOOMSDK@@@std@@@std@@@0@0@Z 0042d820 f i sdk_util.obj
 0001:0002c820       ??$distance@V?$_Tree_const_iterator@V?$_Tree_val@U?$_Tree_simple_types@PAVIMeetingChatCtrlEvent@ZOOMSDK@@@std@@@std@@@std@@@std@@YAHV?$_Tree_const_iterator@V?$_Tree_val@U?$_Tree_simple_types@PAVIMeetingChatCtrlEvent@ZOOMSDK@@@std@@@std@@@0@0@Z 0042d820 f i sdk_util.obj
 0001:0002c840       ??$emplace_hint@ABQAVISDKInMeetingServiceMgrEvent@@@?$_Tree@V?$_Tset_traits@PAVISDKInMeetingServiceMgrEvent@@U?$less@PAVISDKInMeetingServiceMgrEvent@@@std@@V?$allocator@PAVISDKInMeetingServiceMgrEvent@@@3@$0A@@std@@@std@@QAE?AV?$_Tree_const_iterator@V?$_Tree_val@U?$_Tree_simple_types@PAVISDKInMeetingServiceMgrEvent@@@std@@@std@@@1@V21@ABQAVISDKInMeetingServiceMgrEvent@@@Z 0042d840 f i sdk_util.obj
 0001:0002c840       ??$emplace_hint@ABQAVIMeetingServiceEvent@ZOOMSDK@@@?$_Tree@V?$_Tset_traits@PAVIMeetingServiceEvent@ZOOMSDK@@U?$less@PAVIMeetingServiceEvent@ZOOMSDK@@@std@@V?$allocator@PAVIMeetingServiceEvent@ZOOMSDK@@@4@$0A@@std@@@std@@QAE?AV?$_Tree_const_iterator@V?$_Tree_val@U?$_Tree_simple_types@PAVIMeetingServiceEvent@ZOOMSDK@@@std@@@std@@@1@V21@ABQAVIMeetingServiceEvent@ZOOMSDK@@@Z 0042d840 f i sdk_util.obj
 0001:0002c840       ??$emplace_hint@ABQAVIMeetingParticipantsCtrlEvent@ZOOMSDK@@@?$_Tree@V?$_Tset_traits@PAVIMeetingParticipantsCtrlEvent@ZOOMSDK@@U?$less@PAVIMeetingParticipantsCtrlEvent@ZOOMSDK@@@std@@V?$allocator@PAVIMeetingParticipantsCtrlEvent@ZOOMSDK@@@4@$0A@@std@@@std@@QAE?AV?$_Tree_const_iterator@V?$_Tree_val@U?$_Tree_simple_types@PAVIMeetingParticipantsCtrlEvent@ZOOMSDK@@@std@@@std@@@1@V21@ABQAVIMeetingParticipantsCtrlEvent@ZOOMSDK@@@Z 0042d840 f i sdk_util.obj
 0001:0002c840       ??$emplace_hint@ABQAVIAuthServiceEvent@ZOOMSDK@@@?$_Tree@V?$_Tset_traits@PAVIAuthServiceEvent@ZOOMSDK@@U?$less@PAVIAuthServiceEvent@ZOOMSDK@@@std@@V?$allocator@PAVIAuthServiceEvent@ZOOMSDK@@@4@$0A@@std@@@std@@QAE?AV?$_Tree_const_iterator@V?$_Tree_val@U?$_Tree_simple_types@PAVIAuthServiceEvent@ZOOMSDK@@@std@@@std@@@1@V21@ABQAVIAuthServiceEvent@ZOOMSDK@@@Z 0042d840 f i sdk_util.obj
 0001:0002c840       ??$emplace_hint@ABQAVIMeetingVideoCtrlEvent@ZOOMSDK@@@?$_Tree@V?$_Tset_traits@PAVIMeetingVideoCtrlEvent@ZOOMSDK@@U?$less@PAVIMeetingVideoCtrlEvent@ZOOMSDK@@@std@@V?$allocator@PAVIMeetingVideoCtrlEvent@ZOOMSDK@@@4@$0A@@std@@@std@@QAE?AV?$_Tree_const_iterator@V?$_Tree_val@U?$_Tree_simple_types@PAVIMeetingVideoCtrlEvent@ZOOMSDK@@@std@@@std@@@1@V21@ABQAVIMeetingVideoCtrlEvent@ZOOMSDK@@@Z 0042d840 f i sdk_util.obj
 0001:0002c840       ??$emplace_hint@ABQAVIMeetingChatCtrlEvent@ZOOMSDK@@@?$_Tree@V?$_Tset_traits@PAVIMeetingChatCtrlEvent@ZOOMSDK@@U?$less@PAVIMeetingChatCtrlEvent@ZOOMSDK@@@std@@V?$allocator@PAVIMeetingChatCtrlEvent@ZOOMSDK@@@4@$0A@@std@@@std@@QAE?AV?$_Tree_const_iterator@V?$_Tree_val@U?$_Tree_simple_types@PAVIMeetingChatCtrlEvent@ZOOMSDK@@@std@@@std@@@1@V21@ABQAVIMeetingChatCtrlEvent@ZOOMSDK@@@Z 0042d840 f i sdk_util.obj
 0001:0002c840       ??$emplace_hint@ABQAVIPreMeetingServiceEvent@ZOOMSDK@@@?$_Tree@V?$_Tset_traits@PAVIPreMeetingServiceEvent@ZOOMSDK@@U?$less@PAVIPreMeetingServiceEvent@ZOOMSDK@@@std@@V?$allocator@PAVIPreMeetingServiceEvent@ZOOMSDK@@@4@$0A@@std@@@std@@QAE?AV?$_Tree_const_iterator@V?$_Tree_val@U?$_Tree_simple_types@PAVIPreMeetingServiceEvent@ZOOMSDK@@@std@@@std@@@1@V21@ABQAVIPreMeetingServiceEvent@ZOOMSDK@@@Z 0042d840 f i sdk_util.obj
 0001:0002c840       ??$emplace_hint@ABQAVIClosedCaptionControllerEvent@ZOOMSDK@@@?$_Tree@V?$_Tset_traits@PAVIClosedCaptionControllerEvent@ZOOMSDK@@U?$less@PAVIClosedCaptionControllerEvent@ZOOMSDK@@@std@@V?$allocator@PAVIClosedCaptionControllerEvent@ZOOMSDK@@@4@$0A@@std@@@std@@QAE?AV?$_Tree_const_iterator@V?$_Tree_val@U?$_Tree_simple_types@PAVIClosedCaptionControllerEvent@ZOOMSDK@@@std@@@std@@@1@V21@ABQAVIClosedCaptionControllerEvent@ZOOMSDK@@@Z 0042d840 f i sdk_util.obj
 0001:0002c890       ??$insert@$0A@$0A@@?$_Tree@V?$_Tset_traits@PAVIMeetingVideoCtrlEvent@ZOOMSDK@@U?$less@PAVIMeetingVideoCtrlEvent@ZOOMSDK@@@std@@V?$allocator@PAVIMeetingVideoCtrlEvent@ZOOMSDK@@@4@$0A@@std@@@std@@QAE?AU?$pair@V?$_Tree_const_iterator@V?$_Tree_val@U?$_Tree_simple_types@PAVIMeetingVideoCtrlEvent@ZOOMSDK@@@std@@@std@@@std@@_N@1@ABQAVIMeetingVideoCtrlEvent@ZOOMSDK@@@Z 0042d890 f i sdk_util.obj
 0001:0002c890       ??$insert@$0A@$0A@@?$_Tree@V?$_Tset_traits@PAVIPreMeetingServiceEvent@ZOOMSDK@@U?$less@PAVIPreMeetingServiceEvent@ZOOMSDK@@@std@@V?$allocator@PAVIPreMeetingServiceEvent@ZOOMSDK@@@4@$0A@@std@@@std@@QAE?AU?$pair@V?$_Tree_const_iterator@V?$_Tree_val@U?$_Tree_simple_types@PAVIPreMeetingServiceEvent@ZOOMSDK@@@std@@@std@@@std@@_N@1@ABQAVIPreMeetingServiceEvent@ZOOMSDK@@@Z 0042d890 f i sdk_util.obj
 0001:0002c890       ??$insert@$0A@$0A@@?$_Tree@V?$_Tset_traits@PAVIAuthServiceEvent@ZOOMSDK@@U?$less@PAVIAuthServiceEvent@ZOOMSDK@@@std@@V?$allocator@PAVIAuthServiceEvent@ZOOMSDK@@@4@$0A@@std@@@std@@QAE?AU?$pair@V?$_Tree_const_iterator@V?$_Tree_val@U?$_Tree_simple_types@PAVIAuthServiceEvent@ZOOMSDK@@@std@@@std@@@std@@_N@1@ABQAVIAuthServiceEvent@ZOOMSDK@@@Z 0042d890 f i sdk_util.obj
 0001:0002c890       ??$insert@$0A@$0A@@?$_Tree@V?$_Tset_traits@PAVIMeetingChatCtrlEvent@ZOOMSDK@@U?$less@PAVIMeetingChatCtrlEvent@ZOOMSDK@@@std@@V?$allocator@PAVIMeetingChatCtrlEvent@ZOOMSDK@@@4@$0A@@std@@@std@@QAE?AU?$pair@V?$_Tree_const_iterator@V?$_Tree_val@U?$_Tree_simple_types@PAVIMeetingChatCtrlEvent@ZOOMSDK@@@std@@@std@@@std@@_N@1@ABQAVIMeetingChatCtrlEvent@ZOOMSDK@@@Z 0042d890 f i sdk_util.obj
 0001:0002c890       ??$insert@$0A@$0A@@?$_Tree@V?$_Tset_traits@PAVISDKInMeetingServiceMgrEvent@@U?$less@PAVISDKInMeetingServiceMgrEvent@@@std@@V?$allocator@PAVISDKInMeetingServiceMgrEvent@@@3@$0A@@std@@@std@@QAE?AU?$pair@V?$_Tree_const_iterator@V?$_Tree_val@U?$_Tree_simple_types@PAVISDKInMeetingServiceMgrEvent@@@std@@@std@@@std@@_N@1@ABQAVISDKInMeetingServiceMgrEvent@@@Z 0042d890 f i sdk_util.obj
 0001:0002c890       ??$insert@$0A@$0A@@?$_Tree@V?$_Tset_traits@PAVIMeetingServiceEvent@ZOOMSDK@@U?$less@PAVIMeetingServiceEvent@ZOOMSDK@@@std@@V?$allocator@PAVIMeetingServiceEvent@ZOOMSDK@@@4@$0A@@std@@@std@@QAE?AU?$pair@V?$_Tree_const_iterator@V?$_Tree_val@U?$_Tree_simple_types@PAVIMeetingServiceEvent@ZOOMSDK@@@std@@@std@@@std@@_N@1@ABQAVIMeetingServiceEvent@ZOOMSDK@@@Z 0042d890 f i sdk_util.obj
 0001:0002c890       ??$insert@$0A@$0A@@?$_Tree@V?$_Tset_traits@PAVIClosedCaptionControllerEvent@ZOOMSDK@@U?$less@PAVIClosedCaptionControllerEvent@ZOOMSDK@@@std@@V?$allocator@PAVIClosedCaptionControllerEvent@ZOOMSDK@@@4@$0A@@std@@@std@@QAE?AU?$pair@V?$_Tree_const_iterator@V?$_Tree_val@U?$_Tree_simple_types@PAVIClosedCaptionControllerEvent@ZOOMSDK@@@std@@@std@@@std@@_N@1@ABQAVIClosedCaptionControllerEvent@ZOOMSDK@@@Z 0042d890 f i sdk_util.obj
 0001:0002c890       ??$insert@$0A@$0A@@?$_Tree@V?$_Tset_traits@PAVIMeetingParticipantsCtrlEvent@ZOOMSDK@@U?$less@PAVIMeetingParticipantsCtrlEvent@ZOOMSDK@@@std@@V?$allocator@PAVIMeetingParticipantsCtrlEvent@ZOOMSDK@@@4@$0A@@std@@@std@@QAE?AU?$pair@V?$_Tree_const_iterator@V?$_Tree_val@U?$_Tree_simple_types@PAVIMeetingParticipantsCtrlEvent@ZOOMSDK@@@std@@@std@@@std@@_N@1@ABQAVIMeetingParticipantsCtrlEvent@ZOOMSDK@@@Z 0042d890 f i sdk_util.obj
 0001:0002c8c0       ??$insert@V?$_Tree_const_iterator@V?$_Tree_val@U?$_Tree_simple_types@PAVIMeetingVideoCtrlEvent@ZOOMSDK@@@std@@@std@@@std@@@?$_Tree@V?$_Tset_traits@PAVIMeetingVideoCtrlEvent@ZOOMSDK@@U?$less@PAVIMeetingVideoCtrlEvent@ZOOMSDK@@@std@@V?$allocator@PAVIMeetingVideoCtrlEvent@ZOOMSDK@@@4@$0A@@std@@@std@@QAEXV?$_Tree_const_iterator@V?$_Tree_val@U?$_Tree_simple_types@PAVIMeetingVideoCtrlEvent@ZOOMSDK@@@std@@@std@@@1@0@Z 0042d8c0 f i sdk_util.obj
 0001:0002c8c0       ??$insert@V?$_Tree_const_iterator@V?$_Tree_val@U?$_Tree_simple_types@PAVIAuthServiceEvent@ZOOMSDK@@@std@@@std@@@std@@@?$_Tree@V?$_Tset_traits@PAVIAuthServiceEvent@ZOOMSDK@@U?$less@PAVIAuthServiceEvent@ZOOMSDK@@@std@@V?$allocator@PAVIAuthServiceEvent@ZOOMSDK@@@4@$0A@@std@@@std@@QAEXV?$_Tree_const_iterator@V?$_Tree_val@U?$_Tree_simple_types@PAVIAuthServiceEvent@ZOOMSDK@@@std@@@std@@@1@0@Z 0042d8c0 f i sdk_util.obj
 0001:0002c8c0       ??$insert@V?$_Tree_const_iterator@V?$_Tree_val@U?$_Tree_simple_types@PAVIMeetingServiceEvent@ZOOMSDK@@@std@@@std@@@std@@@?$_Tree@V?$_Tset_traits@PAVIMeetingServiceEvent@ZOOMSDK@@U?$less@PAVIMeetingServiceEvent@ZOOMSDK@@@std@@V?$allocator@PAVIMeetingServiceEvent@ZOOMSDK@@@4@$0A@@std@@@std@@QAEXV?$_Tree_const_iterator@V?$_Tree_val@U?$_Tree_simple_types@PAVIMeetingServiceEvent@ZOOMSDK@@@std@@@std@@@1@0@Z 0042d8c0 f i sdk_util.obj
 0001:0002c8c0       ??$insert@V?$_Tree_const_iterator@V?$_Tree_val@U?$_Tree_simple_types@PAVIMeetingParticipantsCtrlEvent@ZOOMSDK@@@std@@@std@@@std@@@?$_Tree@V?$_Tset_traits@PAVIMeetingParticipantsCtrlEvent@ZOOMSDK@@U?$less@PAVIMeetingParticipantsCtrlEvent@ZOOMSDK@@@std@@V?$allocator@PAVIMeetingParticipantsCtrlEvent@ZOOMSDK@@@4@$0A@@std@@@std@@QAEXV?$_Tree_const_iterator@V?$_Tree_val@U?$_Tree_simple_types@PAVIMeetingParticipantsCtrlEvent@ZOOMSDK@@@std@@@std@@@1@0@Z 0042d8c0 f i sdk_util.obj
 0001:0002c8c0       ??$insert@V?$_Tree_const_iterator@V?$_Tree_val@U?$_Tree_simple_types@PAVIPreMeetingServiceEvent@ZOOMSDK@@@std@@@std@@@std@@@?$_Tree@V?$_Tset_traits@PAVIPreMeetingServiceEvent@ZOOMSDK@@U?$less@PAVIPreMeetingServiceEvent@ZOOMSDK@@@std@@V?$allocator@PAVIPreMeetingServiceEvent@ZOOMSDK@@@4@$0A@@std@@@std@@QAEXV?$_Tree_const_iterator@V?$_Tree_val@U?$_Tree_simple_types@PAVIPreMeetingServiceEvent@ZOOMSDK@@@std@@@std@@@1@0@Z 0042d8c0 f i sdk_util.obj
 0001:0002c8c0       ??$insert@V?$_Tree_const_iterator@V?$_Tree_val@U?$_Tree_simple_types@PAVIMeetingChatCtrlEvent@ZOOMSDK@@@std@@@std@@@std@@@?$_Tree@V?$_Tset_traits@PAVIMeetingChatCtrlEvent@ZOOMSDK@@U?$less@PAVIMeetingChatCtrlEvent@ZOOMSDK@@@std@@V?$allocator@PAVIMeetingChatCtrlEvent@ZOOMSDK@@@4@$0A@@std@@@std@@QAEXV?$_Tree_const_iterator@V?$_Tree_val@U?$_Tree_simple_types@PAVIMeetingChatCtrlEvent@ZOOMSDK@@@std@@@std@@@1@0@Z 0042d8c0 f i sdk_util.obj
 0001:0002c8c0       ??$insert@V?$_Tree_const_iterator@V?$_Tree_val@U?$_Tree_simple_types@PAVIClosedCaptionControllerEvent@ZOOMSDK@@@std@@@std@@@std@@@?$_Tree@V?$_Tset_traits@PAVIClosedCaptionControllerEvent@ZOOMSDK@@U?$less@PAVIClosedCaptionControllerEvent@ZOOMSDK@@@std@@V?$allocator@PAVIClosedCaptionControllerEvent@ZOOMSDK@@@4@$0A@@std@@@std@@QAEXV?$_Tree_const_iterator@V?$_Tree_val@U?$_Tree_simple_types@PAVIClosedCaptionControllerEvent@ZOOMSDK@@@std@@@std@@@1@0@Z 0042d8c0 f i sdk_util.obj
 0001:0002c8c0       ??$insert@V?$_Tree_const_iterator@V?$_Tree_val@U?$_Tree_simple_types@PAVISDKInMeetingServiceMgrEvent@@@std@@@std@@@std@@@?$_Tree@V?$_Tset_traits@PAVISDKInMeetingServiceMgrEvent@@U?$less@PAVISDKInMeetingServiceMgrEvent@@@std@@V?$allocator@PAVISDKInMeetingServiceMgrEvent@@@3@$0A@@std@@@std@@QAEXV?$_Tree_const_iterator@V?$_Tree_val@U?$_Tree_simple_types@PAVISDKInMeetingServiceMgrEvent@@@std@@@std@@@1@0@Z 0042d8c0 f i sdk_util.obj
 0001:0002c950       ??$swap@DX@std@@YAXAAD0@Z  0042d950 f i sdk_util.obj
 0001:0002c990       ??0?$EventSinkPool@VIAuthServiceEvent@ZOOMSDK@@@@QAE@XZ 0042d990 f i sdk_util.obj
 0001:0002ca00       ??0?$EventSinkPool@VIClosedCaptionControllerEvent@ZOOMSDK@@@@QAE@XZ 0042da00 f i sdk_util.obj
 0001:0002ca70       ??0?$EventSinkPool@VIMeetingChatCtrlEvent@ZOOMSDK@@@@QAE@XZ 0042da70 f i sdk_util.obj
 0001:0002cae0       ??0?$EventSinkPool@VIMeetingParticipantsCtrlEvent@ZOOMSDK@@@@QAE@XZ 0042dae0 f i sdk_util.obj
 0001:0002cb50       ??0?$EventSinkPool@VIMeetingServiceEvent@ZOOMSDK@@@@QAE@XZ 0042db50 f i sdk_util.obj
 0001:0002cbc0       ??0?$EventSinkPool@VIMeetingVideoCtrlEvent@ZOOMSDK@@@@QAE@XZ 0042dbc0 f i sdk_util.obj
 0001:0002cc30       ??0?$EventSinkPool@VIPreMeetingServiceEvent@ZOOMSDK@@@@QAE@XZ 0042dc30 f i sdk_util.obj
 0001:0002cca0       ??0?$EventSinkPool@VISDKInMeetingServiceMgrEvent@@@@QAE@XZ 0042dca0 f i sdk_util.obj
 0001:0002cd10       ??0?$_Tree@V?$_Tset_traits@PAVISDKInMeetingServiceMgrEvent@@U?$less@PAVISDKInMeetingServiceMgrEvent@@@std@@V?$allocator@PAVISDKInMeetingServiceMgrEvent@@@3@$0A@@std@@@std@@QAE@ABU?$less@PAVISDKInMeetingServiceMgrEvent@@@1@@Z 0042dd10 f i sdk_util.obj
 0001:0002cd10       ??0?$_Tree@V?$_Tset_traits@PAVIMeetingChatCtrlEvent@ZOOMSDK@@U?$less@PAVIMeetingChatCtrlEvent@ZOOMSDK@@@std@@V?$allocator@PAVIMeetingChatCtrlEvent@ZOOMSDK@@@4@$0A@@std@@@std@@QAE@ABU?$less@PAVIMeetingChatCtrlEvent@ZOOMSDK@@@1@@Z 0042dd10 f i sdk_util.obj
 0001:0002cd10       ??0?$_Tree@V?$_Tset_traits@PAVIPreMeetingServiceEvent@ZOOMSDK@@U?$less@PAVIPreMeetingServiceEvent@ZOOMSDK@@@std@@V?$allocator@PAVIPreMeetingServiceEvent@ZOOMSDK@@@4@$0A@@std@@@std@@QAE@ABU?$less@PAVIPreMeetingServiceEvent@ZOOMSDK@@@1@@Z 0042dd10 f i sdk_util.obj
 0001:0002cd10       ??0?$_Tree@V?$_Tset_traits@PAVIMeetingParticipantsCtrlEvent@ZOOMSDK@@U?$less@PAVIMeetingParticipantsCtrlEvent@ZOOMSDK@@@std@@V?$allocator@PAVIMeetingParticipantsCtrlEvent@ZOOMSDK@@@4@$0A@@std@@@std@@QAE@ABU?$less@PAVIMeetingParticipantsCtrlEvent@ZOOMSDK@@@1@@Z 0042dd10 f i sdk_util.obj
 0001:0002cd10       ??0?$_Tree@V?$_Tset_traits@PAVIAuthServiceEvent@ZOOMSDK@@U?$less@PAVIAuthServiceEvent@ZOOMSDK@@@std@@V?$allocator@PAVIAuthServiceEvent@ZOOMSDK@@@4@$0A@@std@@@std@@QAE@ABU?$less@PAVIAuthServiceEvent@ZOOMSDK@@@1@@Z 0042dd10 f i sdk_util.obj
 0001:0002cd10       ??0?$_Tree@V?$_Tset_traits@PAVIMeetingVideoCtrlEvent@ZOOMSDK@@U?$less@PAVIMeetingVideoCtrlEvent@ZOOMSDK@@@std@@V?$allocator@PAVIMeetingVideoCtrlEvent@ZOOMSDK@@@4@$0A@@std@@@std@@QAE@ABU?$less@PAVIMeetingVideoCtrlEvent@ZOOMSDK@@@1@@Z 0042dd10 f i sdk_util.obj
 0001:0002cd10       ??0?$_Tree@V?$_Tset_traits@PAVIMeetingServiceEvent@ZOOMSDK@@U?$less@PAVIMeetingServiceEvent@ZOOMSDK@@@std@@V?$allocator@PAVIMeetingServiceEvent@ZOOMSDK@@@4@$0A@@std@@@std@@QAE@ABU?$less@PAVIMeetingServiceEvent@ZOOMSDK@@@1@@Z 0042dd10 f i sdk_util.obj
 0001:0002cd10       ??0?$_Tree@V?$_Tset_traits@PAVIClosedCaptionControllerEvent@ZOOMSDK@@U?$less@PAVIClosedCaptionControllerEvent@ZOOMSDK@@@std@@V?$allocator@PAVIClosedCaptionControllerEvent@ZOOMSDK@@@4@$0A@@std@@@std@@QAE@ABU?$less@PAVIClosedCaptionControllerEvent@ZOOMSDK@@@1@@Z 0042dd10 f i sdk_util.obj
 0001:0002cd30       ??0?$_Tree_comp_alloc@V?$_Tset_traits@PAVIMeetingParticipantsCtrlEvent@ZOOMSDK@@U?$less@PAVIMeetingParticipantsCtrlEvent@ZOOMSDK@@@std@@V?$allocator@PAVIMeetingParticipantsCtrlEvent@ZOOMSDK@@@4@$0A@@std@@@std@@QAE@ABU?$less@PAVIMeetingParticipantsCtrlEvent@ZOOMSDK@@@1@@Z 0042dd30 f i sdk_util.obj
 0001:0002cd30       ??0?$_Tree_comp_alloc@V?$_Tset_traits@PAVIPreMeetingServiceEvent@ZOOMSDK@@U?$less@PAVIPreMeetingServiceEvent@ZOOMSDK@@@std@@V?$allocator@PAVIPreMeetingServiceEvent@ZOOMSDK@@@4@$0A@@std@@@std@@QAE@ABU?$less@PAVIPreMeetingServiceEvent@ZOOMSDK@@@1@@Z 0042dd30 f i sdk_util.obj
 0001:0002cd30       ??0?$_Tree_comp_alloc@V?$_Tset_traits@PAVIMeetingVideoCtrlEvent@ZOOMSDK@@U?$less@PAVIMeetingVideoCtrlEvent@ZOOMSDK@@@std@@V?$allocator@PAVIMeetingVideoCtrlEvent@ZOOMSDK@@@4@$0A@@std@@@std@@QAE@ABU?$less@PAVIMeetingVideoCtrlEvent@ZOOMSDK@@@1@@Z 0042dd30 f i sdk_util.obj
 0001:0002cd30       ??0?$_Tree_comp_alloc@V?$_Tset_traits@PAVIClosedCaptionControllerEvent@ZOOMSDK@@U?$less@PAVIClosedCaptionControllerEvent@ZOOMSDK@@@std@@V?$allocator@PAVIClosedCaptionControllerEvent@ZOOMSDK@@@4@$0A@@std@@@std@@QAE@ABU?$less@PAVIClosedCaptionControllerEvent@ZOOMSDK@@@1@@Z 0042dd30 f i sdk_util.obj
 0001:0002cd30       ??0?$_Tree_comp_alloc@V?$_Tset_traits@PAVIAuthServiceEvent@ZOOMSDK@@U?$less@PAVIAuthServiceEvent@ZOOMSDK@@@std@@V?$allocator@PAVIAuthServiceEvent@ZOOMSDK@@@4@$0A@@std@@@std@@QAE@ABU?$less@PAVIAuthServiceEvent@ZOOMSDK@@@1@@Z 0042dd30 f i sdk_util.obj
 0001:0002cd30       ??0?$_Tree_comp_alloc@V?$_Tset_traits@PAVISDKInMeetingServiceMgrEvent@@U?$less@PAVISDKInMeetingServiceMgrEvent@@@std@@V?$allocator@PAVISDKInMeetingServiceMgrEvent@@@3@$0A@@std@@@std@@QAE@ABU?$less@PAVISDKInMeetingServiceMgrEvent@@@1@@Z 0042dd30 f i sdk_util.obj
 0001:0002cd30       ??0?$_Tree_comp_alloc@V?$_Tset_traits@PAVIMeetingServiceEvent@ZOOMSDK@@U?$less@PAVIMeetingServiceEvent@ZOOMSDK@@@std@@V?$allocator@PAVIMeetingServiceEvent@ZOOMSDK@@@4@$0A@@std@@@std@@QAE@ABU?$less@PAVIMeetingServiceEvent@ZOOMSDK@@@1@@Z 0042dd30 f i sdk_util.obj
 0001:0002cd30       ??0?$_Tree_comp_alloc@V?$_Tset_traits@PAVIMeetingChatCtrlEvent@ZOOMSDK@@U?$less@PAVIMeetingChatCtrlEvent@ZOOMSDK@@@std@@V?$allocator@PAVIMeetingChatCtrlEvent@ZOOMSDK@@@4@$0A@@std@@@std@@QAE@ABU?$less@PAVIMeetingChatCtrlEvent@ZOOMSDK@@@1@@Z 0042dd30 f i sdk_util.obj
 0001:0002cd60       ??0?$_Tree_const_iterator@V?$_Tree_val@U?$_Tree_simple_types@PAVIAuthServiceEvent@ZOOMSDK@@@std@@@std@@@std@@QAE@XZ 0042dd60 f i sdk_util.obj
 0001:0002cd60       ??0?$_Tree_const_iterator@V?$_Tree_val@U?$_Tree_simple_types@PAVIMeetingVideoCtrlEvent@ZOOMSDK@@@std@@@std@@@std@@QAE@XZ 0042dd60 f i sdk_util.obj
 0001:0002cd60       ??0?$_Tree_const_iterator@V?$_Tree_val@U?$_Tree_simple_types@PAVISDKInMeetingServiceMgrEvent@@@std@@@std@@@std@@QAE@XZ 0042dd60 f i sdk_util.obj
 0001:0002cd60       ??0?$_Tree_const_iterator@V?$_Tree_val@U?$_Tree_simple_types@PAVIMeetingServiceEvent@ZOOMSDK@@@std@@@std@@@std@@QAE@XZ 0042dd60 f i sdk_util.obj
 0001:0002cd60       ??0?$_Tree_const_iterator@V?$_Tree_val@U?$_Tree_simple_types@PAVIMeetingParticipantsCtrlEvent@ZOOMSDK@@@std@@@std@@@std@@QAE@XZ 0042dd60 f i sdk_util.obj
 0001:0002cd60       ??0?$_Tree_const_iterator@V?$_Tree_val@U?$_Tree_simple_types@PAVIPreMeetingServiceEvent@ZOOMSDK@@@std@@@std@@@std@@QAE@XZ 0042dd60 f i sdk_util.obj
 0001:0002cd60       ??0?$_Tree_const_iterator@V?$_Tree_val@U?$_Tree_simple_types@U?$pair@$$CBIPAVIUserInfo@ZOOMSDK@@@std@@@std@@@std@@@std@@QAE@XZ 0042dd60 f i user_manager.obj
 0001:0002cd60       ??0?$_Tree_const_iterator@V?$_Tree_val@U?$_Tree_simple_types@PAVIClosedCaptionControllerEvent@ZOOMSDK@@@std@@@std@@@std@@QAE@XZ 0042dd60 f i sdk_util.obj
 0001:0002cd60       ??0?$_Tree_const_iterator@V?$_Tree_val@U?$_Tree_simple_types@PAVIMeetingChatCtrlEvent@ZOOMSDK@@@std@@@std@@@std@@QAE@XZ 0042dd60 f i sdk_util.obj
 0001:0002cd80       ??0?$set@PAVISDKInMeetingServiceMgrEvent@@U?$less@PAVISDKInMeetingServiceMgrEvent@@@std@@V?$allocator@PAVISDKInMeetingServiceMgrEvent@@@3@@std@@QAE@XZ 0042dd80 f i sdk_util.obj
 0001:0002cd80       ??0?$set@PAVIMeetingParticipantsCtrlEvent@ZOOMSDK@@U?$less@PAVIMeetingParticipantsCtrlEvent@ZOOMSDK@@@std@@V?$allocator@PAVIMeetingParticipantsCtrlEvent@ZOOMSDK@@@4@@std@@QAE@XZ 0042dd80 f i sdk_util.obj
 0001:0002cd80       ??0?$set@PAVIAuthServiceEvent@ZOOMSDK@@U?$less@PAVIAuthServiceEvent@ZOOMSDK@@@std@@V?$allocator@PAVIAuthServiceEvent@ZOOMSDK@@@4@@std@@QAE@XZ 0042dd80 f i sdk_util.obj
 0001:0002cd80       ??0?$set@PAVIMeetingChatCtrlEvent@ZOOMSDK@@U?$less@PAVIMeetingChatCtrlEvent@ZOOMSDK@@@std@@V?$allocator@PAVIMeetingChatCtrlEvent@ZOOMSDK@@@4@@std@@QAE@XZ 0042dd80 f i sdk_util.obj
 0001:0002cd80       ??0?$set@PAVIClosedCaptionControllerEvent@ZOOMSDK@@U?$less@PAVIClosedCaptionControllerEvent@ZOOMSDK@@@std@@V?$allocator@PAVIClosedCaptionControllerEvent@ZOOMSDK@@@4@@std@@QAE@XZ 0042dd80 f i sdk_util.obj
 0001:0002cd80       ??0?$set@PAVIMeetingVideoCtrlEvent@ZOOMSDK@@U?$less@PAVIMeetingVideoCtrlEvent@ZOOMSDK@@@std@@V?$allocator@PAVIMeetingVideoCtrlEvent@ZOOMSDK@@@4@@std@@QAE@XZ 0042dd80 f i sdk_util.obj
 0001:0002cd80       ??0?$set@PAVIMeetingServiceEvent@ZOOMSDK@@U?$less@PAVIMeetingServiceEvent@ZOOMSDK@@@std@@V?$allocator@PAVIMeetingServiceEvent@ZOOMSDK@@@4@@std@@QAE@XZ 0042dd80 f i sdk_util.obj
 0001:0002cd80       ??0?$set@PAVIPreMeetingServiceEvent@ZOOMSDK@@U?$less@PAVIPreMeetingServiceEvent@ZOOMSDK@@@std@@V?$allocator@PAVIPreMeetingServiceEvent@ZOOMSDK@@@4@@std@@QAE@XZ 0042dd80 f i sdk_util.obj
 0001:0002cda0       ??0CAtlException@ATL@@QAE@J@Z 0042dda0 f i sdk_util.obj
 0001:0002cdc0       ??0CComAutoCriticalSection@ATL@@QAE@XZ 0042ddc0 f i sdk_util.obj
 0001:0002ce30       ??0SDKInterfaceWrap@@AAE@XZ 0042de30 f   sdk_util.obj
 0001:0002d030       ??1?$EventSinkPool@VIAuthServiceEvent@ZOOMSDK@@@@UAE@XZ 0042e030 f i sdk_util.obj
 0001:0002d080       ??1?$EventSinkPool@VIClosedCaptionControllerEvent@ZOOMSDK@@@@UAE@XZ 0042e080 f i sdk_util.obj
 0001:0002d0d0       ??1?$EventSinkPool@VIMeetingChatCtrlEvent@ZOOMSDK@@@@UAE@XZ 0042e0d0 f i sdk_util.obj
 0001:0002d120       ??1?$EventSinkPool@VIMeetingParticipantsCtrlEvent@ZOOMSDK@@@@UAE@XZ 0042e120 f i sdk_util.obj
 0001:0002d170       ??1?$EventSinkPool@VIMeetingServiceEvent@ZOOMSDK@@@@UAE@XZ 0042e170 f i sdk_util.obj
 0001:0002d1c0       ??1?$EventSinkPool@VIMeetingVideoCtrlEvent@ZOOMSDK@@@@UAE@XZ 0042e1c0 f i sdk_util.obj
 0001:0002d210       ??1?$EventSinkPool@VIPreMeetingServiceEvent@ZOOMSDK@@@@UAE@XZ 0042e210 f i sdk_util.obj
 0001:0002d260       ??1?$EventSinkPool@VISDKInMeetingServiceMgrEvent@@@@UAE@XZ 0042e260 f i sdk_util.obj
 0001:0002d2b0       ??1?$_Tree@V?$_Tset_traits@PAVISDKInMeetingServiceMgrEvent@@U?$less@PAVISDKInMeetingServiceMgrEvent@@@std@@V?$allocator@PAVISDKInMeetingServiceMgrEvent@@@3@$0A@@std@@@std@@QAE@XZ 0042e2b0 f i sdk_util.obj
 0001:0002d2b0       ??1?$_Tree@V?$_Tset_traits@PAVIMeetingParticipantsCtrlEvent@ZOOMSDK@@U?$less@PAVIMeetingParticipantsCtrlEvent@ZOOMSDK@@@std@@V?$allocator@PAVIMeetingParticipantsCtrlEvent@ZOOMSDK@@@4@$0A@@std@@@std@@QAE@XZ 0042e2b0 f i sdk_util.obj
 0001:0002d2b0       ??1?$_Tree@V?$_Tset_traits@PAVIPreMeetingServiceEvent@ZOOMSDK@@U?$less@PAVIPreMeetingServiceEvent@ZOOMSDK@@@std@@V?$allocator@PAVIPreMeetingServiceEvent@ZOOMSDK@@@4@$0A@@std@@@std@@QAE@XZ 0042e2b0 f i sdk_util.obj
 0001:0002d2b0       ??1?$_Tree@V?$_Tset_traits@PAVIAuthServiceEvent@ZOOMSDK@@U?$less@PAVIAuthServiceEvent@ZOOMSDK@@@std@@V?$allocator@PAVIAuthServiceEvent@ZOOMSDK@@@4@$0A@@std@@@std@@QAE@XZ 0042e2b0 f i sdk_util.obj
 0001:0002d2b0       ??1?$_Tree@V?$_Tset_traits@PAVIMeetingVideoCtrlEvent@ZOOMSDK@@U?$less@PAVIMeetingVideoCtrlEvent@ZOOMSDK@@@std@@V?$allocator@PAVIMeetingVideoCtrlEvent@ZOOMSDK@@@4@$0A@@std@@@std@@QAE@XZ 0042e2b0 f i sdk_util.obj
 0001:0002d2b0       ??1?$_Tree@V?$_Tset_traits@PAVIClosedCaptionControllerEvent@ZOOMSDK@@U?$less@PAVIClosedCaptionControllerEvent@ZOOMSDK@@@std@@V?$allocator@PAVIClosedCaptionControllerEvent@ZOOMSDK@@@4@$0A@@std@@@std@@QAE@XZ 0042e2b0 f i sdk_util.obj
 0001:0002d2b0       ??1?$_Tree@V?$_Tset_traits@PAVIMeetingChatCtrlEvent@ZOOMSDK@@U?$less@PAVIMeetingChatCtrlEvent@ZOOMSDK@@@std@@V?$allocator@PAVIMeetingChatCtrlEvent@ZOOMSDK@@@4@$0A@@std@@@std@@QAE@XZ 0042e2b0 f i sdk_util.obj
 0001:0002d2b0       ??1?$_Tree@V?$_Tset_traits@PAVIMeetingServiceEvent@ZOOMSDK@@U?$less@PAVIMeetingServiceEvent@ZOOMSDK@@@std@@V?$allocator@PAVIMeetingServiceEvent@ZOOMSDK@@@4@$0A@@std@@@std@@QAE@XZ 0042e2b0 f i sdk_util.obj
 0001:0002d300       ??1?$_Tree_comp_alloc@V?$_Tset_traits@PAVIMeetingParticipantsCtrlEvent@ZOOMSDK@@U?$less@PAVIMeetingParticipantsCtrlEvent@ZOOMSDK@@@std@@V?$allocator@PAVIMeetingParticipantsCtrlEvent@ZOOMSDK@@@4@$0A@@std@@@std@@QAE@XZ 0042e300 f i sdk_util.obj
 0001:0002d300       ??1?$_Tree_comp_alloc@V?$_Tset_traits@PAVISDKInMeetingServiceMgrEvent@@U?$less@PAVISDKInMeetingServiceMgrEvent@@@std@@V?$allocator@PAVISDKInMeetingServiceMgrEvent@@@3@$0A@@std@@@std@@QAE@XZ 0042e300 f i sdk_util.obj
 0001:0002d300       ??1?$_Tree_comp_alloc@V?$_Tset_traits@PAVIClosedCaptionControllerEvent@ZOOMSDK@@U?$less@PAVIClosedCaptionControllerEvent@ZOOMSDK@@@std@@V?$allocator@PAVIClosedCaptionControllerEvent@ZOOMSDK@@@4@$0A@@std@@@std@@QAE@XZ 0042e300 f i sdk_util.obj
 0001:0002d300       ??1?$_Tree_comp_alloc@V?$_Tset_traits@PAVIPreMeetingServiceEvent@ZOOMSDK@@U?$less@PAVIPreMeetingServiceEvent@ZOOMSDK@@@std@@V?$allocator@PAVIPreMeetingServiceEvent@ZOOMSDK@@@4@$0A@@std@@@std@@QAE@XZ 0042e300 f i sdk_util.obj
 0001:0002d300       ??1?$_Tree_comp_alloc@V?$_Tset_traits@PAVIAuthServiceEvent@ZOOMSDK@@U?$less@PAVIAuthServiceEvent@ZOOMSDK@@@std@@V?$allocator@PAVIAuthServiceEvent@ZOOMSDK@@@4@$0A@@std@@@std@@QAE@XZ 0042e300 f i sdk_util.obj
 0001:0002d300       ??1?$_Tree_comp_alloc@V?$_Tset_traits@PAVIMeetingChatCtrlEvent@ZOOMSDK@@U?$less@PAVIMeetingChatCtrlEvent@ZOOMSDK@@@std@@V?$allocator@PAVIMeetingChatCtrlEvent@ZOOMSDK@@@4@$0A@@std@@@std@@QAE@XZ 0042e300 f i sdk_util.obj
 0001:0002d300       ??1?$_Tree_comp_alloc@V?$_Tset_traits@PAVIMeetingVideoCtrlEvent@ZOOMSDK@@U?$less@PAVIMeetingVideoCtrlEvent@ZOOMSDK@@@std@@V?$allocator@PAVIMeetingVideoCtrlEvent@ZOOMSDK@@@4@$0A@@std@@@std@@QAE@XZ 0042e300 f i sdk_util.obj
 0001:0002d300       ??1?$_Tree_comp_alloc@V?$_Tset_traits@PAVIMeetingServiceEvent@ZOOMSDK@@U?$less@PAVIMeetingServiceEvent@ZOOMSDK@@@std@@V?$allocator@PAVIMeetingServiceEvent@ZOOMSDK@@@4@$0A@@std@@@std@@QAE@XZ 0042e300 f i sdk_util.obj
 0001:0002d350       ??1?$set@PAVIMeetingVideoCtrlEvent@ZOOMSDK@@U?$less@PAVIMeetingVideoCtrlEvent@ZOOMSDK@@@std@@V?$allocator@PAVIMeetingVideoCtrlEvent@ZOOMSDK@@@4@@std@@QAE@XZ 0042e350 f i sdk_util.obj
 0001:0002d350       ??1?$set@PAVIPreMeetingServiceEvent@ZOOMSDK@@U?$less@PAVIPreMeetingServiceEvent@ZOOMSDK@@@std@@V?$allocator@PAVIPreMeetingServiceEvent@ZOOMSDK@@@4@@std@@QAE@XZ 0042e350 f i sdk_util.obj
 0001:0002d350       ??1?$set@PAVIClosedCaptionControllerEvent@ZOOMSDK@@U?$less@PAVIClosedCaptionControllerEvent@ZOOMSDK@@@std@@V?$allocator@PAVIClosedCaptionControllerEvent@ZOOMSDK@@@4@@std@@QAE@XZ 0042e350 f i sdk_util.obj
 0001:0002d350       ??1?$set@PAVIMeetingServiceEvent@ZOOMSDK@@U?$less@PAVIMeetingServiceEvent@ZOOMSDK@@@std@@V?$allocator@PAVIMeetingServiceEvent@ZOOMSDK@@@4@@std@@QAE@XZ 0042e350 f i sdk_util.obj
 0001:0002d350       ??1?$set@PAVISDKInMeetingServiceMgrEvent@@U?$less@PAVISDKInMeetingServiceMgrEvent@@@std@@V?$allocator@PAVISDKInMeetingServiceMgrEvent@@@3@@std@@QAE@XZ 0042e350 f i sdk_util.obj
 0001:0002d350       ??1?$set@PAVIMeetingParticipantsCtrlEvent@ZOOMSDK@@U?$less@PAVIMeetingParticipantsCtrlEvent@ZOOMSDK@@@std@@V?$allocator@PAVIMeetingParticipantsCtrlEvent@ZOOMSDK@@@4@@std@@QAE@XZ 0042e350 f i sdk_util.obj
 0001:0002d350       ??1?$set@PAVIAuthServiceEvent@ZOOMSDK@@U?$less@PAVIAuthServiceEvent@ZOOMSDK@@@std@@V?$allocator@PAVIAuthServiceEvent@ZOOMSDK@@@4@@std@@QAE@XZ 0042e350 f i sdk_util.obj
 0001:0002d350       ??1?$set@PAVIMeetingChatCtrlEvent@ZOOMSDK@@U?$less@PAVIMeetingChatCtrlEvent@ZOOMSDK@@@std@@V?$allocator@PAVIMeetingChatCtrlEvent@ZOOMSDK@@@4@@std@@QAE@XZ 0042e350 f i sdk_util.obj
 0001:0002d370       ??1CComAutoCriticalSection@ATL@@QAE@XZ 0042e370 f i sdk_util.obj
 0001:0002d390       ??1SDKInterfaceWrap@@EAE@XZ 0042e390 f   sdk_util.obj
 0001:0002d490       ??D?$_Tree_const_iterator@V?$_Tree_val@U?$_Tree_simple_types@PAVIAuthServiceEvent@ZOOMSDK@@@std@@@std@@@std@@QBEABQAVIAuthServiceEvent@ZOOMSDK@@XZ 0042e490 f i sdk_util.obj
 0001:0002d490       ??D?$_Tree_const_iterator@V?$_Tree_val@U?$_Tree_simple_types@U?$pair@$$CBIPAVIUserInfo@ZOOMSDK@@@std@@@std@@@std@@@std@@QBEABU?$pair@$$CBIPAVIUserInfo@ZOOMSDK@@@1@XZ 0042e490 f i user_manager.obj
 0001:0002d490       ??D?$_Tree_const_iterator@V?$_Tree_val@U?$_Tree_simple_types@PAVIMeetingChatCtrlEvent@ZOOMSDK@@@std@@@std@@@std@@QBEABQAVIMeetingChatCtrlEvent@ZOOMSDK@@XZ 0042e490 f i sdk_util.obj
 0001:0002d490       ??D?$_Tree_unchecked_const_iterator@V?$_Tree_val@U?$_Tree_simple_types@PAVISDKInMeetingServiceMgrEvent@@@std@@@std@@U_Iterator_base0@2@@std@@QBEABQAVISDKInMeetingServiceMgrEvent@@XZ 0042e490 f i sdk_util.obj
 0001:0002d490       ??D?$_Tree_const_iterator@V?$_Tree_val@U?$_Tree_simple_types@PAVIMeetingVideoCtrlEvent@ZOOMSDK@@@std@@@std@@@std@@QBEABQAVIMeetingVideoCtrlEvent@ZOOMSDK@@XZ 0042e490 f i sdk_util.obj
 0001:0002d490       ??D?$_Tree_unchecked_const_iterator@V?$_Tree_val@U?$_Tree_simple_types@PAVIAuthServiceEvent@ZOOMSDK@@@std@@@std@@U_Iterator_base0@2@@std@@QBEABQAVIAuthServiceEvent@ZOOMSDK@@XZ 0042e490 f i sdk_util.obj
 0001:0002d490       ??D?$_Tree_unchecked_const_iterator@V?$_Tree_val@U?$_Tree_simple_types@PAVIMeetingChatCtrlEvent@ZOOMSDK@@@std@@@std@@U_Iterator_base0@2@@std@@QBEABQAVIMeetingChatCtrlEvent@ZOOMSDK@@XZ 0042e490 f i sdk_util.obj
 0001:0002d490       ??D?$_Tree_const_iterator@V?$_Tree_val@U?$_Tree_simple_types@PAVISDKInMeetingServiceMgrEvent@@@std@@@std@@@std@@QBEABQAVISDKInMeetingServiceMgrEvent@@XZ 0042e490 f i sdk_util.obj
 0001:0002d490       ??D?$_Tree_unchecked_const_iterator@V?$_Tree_val@U?$_Tree_simple_types@PAVIMeetingVideoCtrlEvent@ZOOMSDK@@@std@@@std@@U_Iterator_base0@2@@std@@QBEABQAVIMeetingVideoCtrlEvent@ZOOMSDK@@XZ 0042e490 f i sdk_util.obj
 0001:0002d490       ??D?$_Tree_const_iterator@V?$_Tree_val@U?$_Tree_simple_types@PAVIMeetingParticipantsCtrlEvent@ZOOMSDK@@@std@@@std@@@std@@QBEABQAVIMeetingParticipantsCtrlEvent@ZOOMSDK@@XZ 0042e490 f i sdk_util.obj
 0001:0002d490       ??D?$_Tree_unchecked_const_iterator@V?$_Tree_val@U?$_Tree_simple_types@PAVIMeetingParticipantsCtrlEvent@ZOOMSDK@@@std@@@std@@U_Iterator_base0@2@@std@@QBEABQAVIMeetingParticipantsCtrlEvent@ZOOMSDK@@XZ 0042e490 f i sdk_util.obj
 0001:0002d490       ??D?$_Tree_unchecked_const_iterator@V?$_Tree_val@U?$_Tree_simple_types@PAVIClosedCaptionControllerEvent@ZOOMSDK@@@std@@@std@@U_Iterator_base0@2@@std@@QBEABQAVIClosedCaptionControllerEvent@ZOOMSDK@@XZ 0042e490 f i sdk_util.obj
 0001:0002d490       ??D?$_Tree_const_iterator@V?$_Tree_val@U?$_Tree_simple_types@PAVIClosedCaptionControllerEvent@ZOOMSDK@@@std@@@std@@@std@@QBEABQAVIClosedCaptionControllerEvent@ZOOMSDK@@XZ 0042e490 f i sdk_util.obj
 0001:0002d490       ??D?$_Tree_const_iterator@V?$_Tree_val@U?$_Tree_simple_types@PAVIPreMeetingServiceEvent@ZOOMSDK@@@std@@@std@@@std@@QBEABQAVIPreMeetingServiceEvent@ZOOMSDK@@XZ 0042e490 f i sdk_util.obj
 0001:0002d490       ??D?$_Tree_unchecked_const_iterator@V?$_Tree_val@U?$_Tree_simple_types@PAVIMeetingServiceEvent@ZOOMSDK@@@std@@@std@@U_Iterator_base0@2@@std@@QBEABQAVIMeetingServiceEvent@ZOOMSDK@@XZ 0042e490 f i sdk_util.obj
 0001:0002d490       ??D?$_Tree_unchecked_const_iterator@V?$_Tree_val@U?$_Tree_simple_types@PAVIPreMeetingServiceEvent@ZOOMSDK@@@std@@@std@@U_Iterator_base0@2@@std@@QBEABQAVIPreMeetingServiceEvent@ZOOMSDK@@XZ 0042e490 f i sdk_util.obj
 0001:0002d490       ??D?$_Tree_const_iterator@V?$_Tree_val@U?$_Tree_simple_types@PAVIMeetingServiceEvent@ZOOMSDK@@@std@@@std@@@std@@QBEABQAVIMeetingServiceEvent@ZOOMSDK@@XZ 0042e490 f i sdk_util.obj
 0001:0002d4b0       ??E?$_Tree_const_iterator@V?$_Tree_val@U?$_Tree_simple_types@PAVIMeetingParticipantsCtrlEvent@ZOOMSDK@@@std@@@std@@@std@@QAE?AV01@H@Z 0042e4b0 f i sdk_util.obj
 0001:0002d4b0       ??E?$_Tree_const_iterator@V?$_Tree_val@U?$_Tree_simple_types@PAVIAuthServiceEvent@ZOOMSDK@@@std@@@std@@@std@@QAE?AV01@H@Z 0042e4b0 f i sdk_util.obj
 0001:0002d4b0       ??E?$_Tree_const_iterator@V?$_Tree_val@U?$_Tree_simple_types@U?$pair@$$CBIPAVIUserInfo@ZOOMSDK@@@std@@@std@@@std@@@std@@QAE?AV01@H@Z 0042e4b0 f i user_manager.obj
 0001:0002d4b0       ??E?$_Tree_const_iterator@V?$_Tree_val@U?$_Tree_simple_types@PAVIPreMeetingServiceEvent@ZOOMSDK@@@std@@@std@@@std@@QAE?AV01@H@Z 0042e4b0 f i sdk_util.obj
 0001:0002d4b0       ??E?$_Tree_const_iterator@V?$_Tree_val@U?$_Tree_simple_types@PAVIMeetingServiceEvent@ZOOMSDK@@@std@@@std@@@std@@QAE?AV01@H@Z 0042e4b0 f i sdk_util.obj
 0001:0002d4b0       ??E?$_Tree_const_iterator@V?$_Tree_val@U?$_Tree_simple_types@PAVIMeetingVideoCtrlEvent@ZOOMSDK@@@std@@@std@@@std@@QAE?AV01@H@Z 0042e4b0 f i sdk_util.obj
 0001:0002d4b0       ??E?$_Tree_const_iterator@V?$_Tree_val@U?$_Tree_simple_types@PAVISDKInMeetingServiceMgrEvent@@@std@@@std@@@std@@QAE?AV01@H@Z 0042e4b0 f i sdk_util.obj
 0001:0002d4b0       ??E?$_Tree_const_iterator@V?$_Tree_val@U?$_Tree_simple_types@PAVIMeetingChatCtrlEvent@ZOOMSDK@@@std@@@std@@@std@@QAE?AV01@H@Z 0042e4b0 f i sdk_util.obj
 0001:0002d4b0       ??E?$_Tree_const_iterator@V?$_Tree_val@U?$_Tree_simple_types@PAVIClosedCaptionControllerEvent@ZOOMSDK@@@std@@@std@@@std@@QAE?AV01@H@Z 0042e4b0 f i sdk_util.obj
 0001:0002d4e0       ??E?$_Tree_const_iterator@V?$_Tree_val@U?$_Tree_simple_types@PAVIMeetingVideoCtrlEvent@ZOOMSDK@@@std@@@std@@@std@@QAEAAV01@XZ 0042e4e0 f i sdk_util.obj
 0001:0002d4e0       ??E?$_Tree_const_iterator@V?$_Tree_val@U?$_Tree_simple_types@PAVIPreMeetingServiceEvent@ZOOMSDK@@@std@@@std@@@std@@QAEAAV01@XZ 0042e4e0 f i sdk_util.obj
 0001:0002d4e0       ??E?$_Tree_const_iterator@V?$_Tree_val@U?$_Tree_simple_types@PAVIMeetingServiceEvent@ZOOMSDK@@@std@@@std@@@std@@QAEAAV01@XZ 0042e4e0 f i sdk_util.obj
 0001:0002d4e0       ??E?$_Tree_const_iterator@V?$_Tree_val@U?$_Tree_simple_types@PAVIMeetingChatCtrlEvent@ZOOMSDK@@@std@@@std@@@std@@QAEAAV01@XZ 0042e4e0 f i sdk_util.obj
 0001:0002d4e0       ??E?$_Tree_const_iterator@V?$_Tree_val@U?$_Tree_simple_types@U?$pair@$$CBIPAVIUserInfo@ZOOMSDK@@@std@@@std@@@std@@@std@@QAEAAV01@XZ 0042e4e0 f i user_manager.obj
 0001:0002d4e0       ??E?$_Tree_const_iterator@V?$_Tree_val@U?$_Tree_simple_types@PAVIAuthServiceEvent@ZOOMSDK@@@std@@@std@@@std@@QAEAAV01@XZ 0042e4e0 f i sdk_util.obj
 0001:0002d4e0       ??E?$_Tree_const_iterator@V?$_Tree_val@U?$_Tree_simple_types@PAVISDKInMeetingServiceMgrEvent@@@std@@@std@@@std@@QAEAAV01@XZ 0042e4e0 f i sdk_util.obj
 0001:0002d4e0       ??E?$_Tree_const_iterator@V?$_Tree_val@U?$_Tree_simple_types@PAVIClosedCaptionControllerEvent@ZOOMSDK@@@std@@@std@@@std@@QAEAAV01@XZ 0042e4e0 f i sdk_util.obj
 0001:0002d4e0       ??E?$_Tree_const_iterator@V?$_Tree_val@U?$_Tree_simple_types@PAVIMeetingParticipantsCtrlEvent@ZOOMSDK@@@std@@@std@@@std@@QAEAAV01@XZ 0042e4e0 f i sdk_util.obj
 0001:0002d500       ??E?$_Tree_unchecked_const_iterator@V?$_Tree_val@U?$_Tree_simple_types@PAVIMeetingChatCtrlEvent@ZOOMSDK@@@std@@@std@@U_Iterator_base0@2@@std@@QAEAAV01@XZ 0042e500 f i sdk_util.obj
 0001:0002d500       ??E?$_Tree_unchecked_const_iterator@V?$_Tree_val@U?$_Tree_simple_types@PAVISDKInMeetingServiceMgrEvent@@@std@@@std@@U_Iterator_base0@2@@std@@QAEAAV01@XZ 0042e500 f i sdk_util.obj
 0001:0002d500       ??E?$_Tree_unchecked_const_iterator@V?$_Tree_val@U?$_Tree_simple_types@PAVIMeetingVideoCtrlEvent@ZOOMSDK@@@std@@@std@@U_Iterator_base0@2@@std@@QAEAAV01@XZ 0042e500 f i sdk_util.obj
 0001:0002d500       ??E?$_Tree_unchecked_const_iterator@V?$_Tree_val@U?$_Tree_simple_types@PAVIPreMeetingServiceEvent@ZOOMSDK@@@std@@@std@@U_Iterator_base0@2@@std@@QAEAAV01@XZ 0042e500 f i sdk_util.obj
 0001:0002d500       ??E?$_Tree_unchecked_const_iterator@V?$_Tree_val@U?$_Tree_simple_types@U?$pair@$$CBIPAVIUserInfo@ZOOMSDK@@@std@@@std@@@std@@U_Iterator_base0@2@@std@@QAEAAV01@XZ 0042e500 f i user_manager.obj
 0001:0002d500       ??E?$_Tree_unchecked_const_iterator@V?$_Tree_val@U?$_Tree_simple_types@PAVIMeetingServiceEvent@ZOOMSDK@@@std@@@std@@U_Iterator_base0@2@@std@@QAEAAV01@XZ 0042e500 f i sdk_util.obj
 0001:0002d500       ??E?$_Tree_unchecked_const_iterator@V?$_Tree_val@U?$_Tree_simple_types@PAVIClosedCaptionControllerEvent@ZOOMSDK@@@std@@@std@@U_Iterator_base0@2@@std@@QAEAAV01@XZ 0042e500 f i sdk_util.obj
 0001:0002d500       ??E?$_Tree_unchecked_const_iterator@V?$_Tree_val@U?$_Tree_simple_types@PAVIAuthServiceEvent@ZOOMSDK@@@std@@@std@@U_Iterator_base0@2@@std@@QAEAAV01@XZ 0042e500 f i sdk_util.obj
 0001:0002d500       ??E?$_Tree_unchecked_const_iterator@V?$_Tree_val@U?$_Tree_simple_types@PAVIMeetingParticipantsCtrlEvent@ZOOMSDK@@@std@@@std@@U_Iterator_base0@2@@std@@QAEAAV01@XZ 0042e500 f i sdk_util.obj
 0001:0002d570       ??F?$_Tree_const_iterator@V?$_Tree_val@U?$_Tree_simple_types@U?$pair@$$CBIPAVIUserInfo@ZOOMSDK@@@std@@@std@@@std@@@std@@QAEAAV01@XZ 0042e570 f i user_manager.obj
 0001:0002d570       ??F?$_Tree_const_iterator@V?$_Tree_val@U?$_Tree_simple_types@PAVIClosedCaptionControllerEvent@ZOOMSDK@@@std@@@std@@@std@@QAEAAV01@XZ 0042e570 f i sdk_util.obj
 0001:0002d570       ??F?$_Tree_const_iterator@V?$_Tree_val@U?$_Tree_simple_types@PAVIMeetingVideoCtrlEvent@ZOOMSDK@@@std@@@std@@@std@@QAEAAV01@XZ 0042e570 f i sdk_util.obj
 0001:0002d570       ??F?$_Tree_const_iterator@V?$_Tree_val@U?$_Tree_simple_types@PAVISDKInMeetingServiceMgrEvent@@@std@@@std@@@std@@QAEAAV01@XZ 0042e570 f i sdk_util.obj
 0001:0002d570       ??F?$_Tree_const_iterator@V?$_Tree_val@U?$_Tree_simple_types@PAVIMeetingParticipantsCtrlEvent@ZOOMSDK@@@std@@@std@@@std@@QAEAAV01@XZ 0042e570 f i sdk_util.obj
 0001:0002d570       ??F?$_Tree_const_iterator@V?$_Tree_val@U?$_Tree_simple_types@PAVIMeetingChatCtrlEvent@ZOOMSDK@@@std@@@std@@@std@@QAEAAV01@XZ 0042e570 f i sdk_util.obj
 0001:0002d570       ??F?$_Tree_const_iterator@V?$_Tree_val@U?$_Tree_simple_types@PAVIAuthServiceEvent@ZOOMSDK@@@std@@@std@@@std@@QAEAAV01@XZ 0042e570 f i sdk_util.obj
 0001:0002d570       ??F?$_Tree_const_iterator@V?$_Tree_val@U?$_Tree_simple_types@PAVIMeetingServiceEvent@ZOOMSDK@@@std@@@std@@@std@@QAEAAV01@XZ 0042e570 f i sdk_util.obj
 0001:0002d570       ??F?$_Tree_const_iterator@V?$_Tree_val@U?$_Tree_simple_types@PAVIPreMeetingServiceEvent@ZOOMSDK@@@std@@@std@@@std@@QAEAAV01@XZ 0042e570 f i sdk_util.obj
 0001:0002d590       ??F?$_Tree_unchecked_const_iterator@V?$_Tree_val@U?$_Tree_simple_types@PAVIPreMeetingServiceEvent@ZOOMSDK@@@std@@@std@@U_Iterator_base0@2@@std@@QAEAAV01@XZ 0042e590 f i sdk_util.obj
 0001:0002d590       ??F?$_Tree_unchecked_const_iterator@V?$_Tree_val@U?$_Tree_simple_types@U?$pair@$$CBIPAVIUserInfo@ZOOMSDK@@@std@@@std@@@std@@U_Iterator_base0@2@@std@@QAEAAV01@XZ 0042e590 f i user_manager.obj
 0001:0002d590       ??F?$_Tree_unchecked_const_iterator@V?$_Tree_val@U?$_Tree_simple_types@PAVIMeetingParticipantsCtrlEvent@ZOOMSDK@@@std@@@std@@U_Iterator_base0@2@@std@@QAEAAV01@XZ 0042e590 f i sdk_util.obj
 0001:0002d590       ??F?$_Tree_unchecked_const_iterator@V?$_Tree_val@U?$_Tree_simple_types@PAVIMeetingServiceEvent@ZOOMSDK@@@std@@@std@@U_Iterator_base0@2@@std@@QAEAAV01@XZ 0042e590 f i sdk_util.obj
 0001:0002d590       ??F?$_Tree_unchecked_const_iterator@V?$_Tree_val@U?$_Tree_simple_types@PAVIAuthServiceEvent@ZOOMSDK@@@std@@@std@@U_Iterator_base0@2@@std@@QAEAAV01@XZ 0042e590 f i sdk_util.obj
 0001:0002d590       ??F?$_Tree_unchecked_const_iterator@V?$_Tree_val@U?$_Tree_simple_types@PAVIClosedCaptionControllerEvent@ZOOMSDK@@@std@@@std@@U_Iterator_base0@2@@std@@QAEAAV01@XZ 0042e590 f i sdk_util.obj
 0001:0002d590       ??F?$_Tree_unchecked_const_iterator@V?$_Tree_val@U?$_Tree_simple_types@PAVIMeetingVideoCtrlEvent@ZOOMSDK@@@std@@@std@@U_Iterator_base0@2@@std@@QAEAAV01@XZ 0042e590 f i sdk_util.obj
 0001:0002d590       ??F?$_Tree_unchecked_const_iterator@V?$_Tree_val@U?$_Tree_simple_types@PAVIMeetingChatCtrlEvent@ZOOMSDK@@@std@@@std@@U_Iterator_base0@2@@std@@QAEAAV01@XZ 0042e590 f i sdk_util.obj
 0001:0002d590       ??F?$_Tree_unchecked_const_iterator@V?$_Tree_val@U?$_Tree_simple_types@PAVISDKInMeetingServiceMgrEvent@@@std@@@std@@U_Iterator_base0@2@@std@@QAEAAV01@XZ 0042e590 f i sdk_util.obj
 0001:0002d630       ??R?$less@PAVISDKInMeetingServiceMgrEvent@@@std@@QBE_NABQAVISDKInMeetingServiceMgrEvent@@0@Z 0042e630 f i sdk_util.obj
 0001:0002d630       ??R?$less@PAVIAuthServiceEvent@ZOOMSDK@@@std@@QBE_NABQAVIAuthServiceEvent@ZOOMSDK@@0@Z 0042e630 f i sdk_util.obj
 0001:0002d630       ??R?$less@PAVIMeetingParticipantsCtrlEvent@ZOOMSDK@@@std@@QBE_NABQAVIMeetingParticipantsCtrlEvent@ZOOMSDK@@0@Z 0042e630 f i sdk_util.obj
 0001:0002d630       ??R?$less@PAVIClosedCaptionControllerEvent@ZOOMSDK@@@std@@QBE_NABQAVIClosedCaptionControllerEvent@ZOOMSDK@@0@Z 0042e630 f i sdk_util.obj
 0001:0002d630       ??R?$less@PAVIPreMeetingServiceEvent@ZOOMSDK@@@std@@QBE_NABQAVIPreMeetingServiceEvent@ZOOMSDK@@0@Z 0042e630 f i sdk_util.obj
 0001:0002d630       ??R?$less@PAVIMeetingServiceEvent@ZOOMSDK@@@std@@QBE_NABQAVIMeetingServiceEvent@ZOOMSDK@@0@Z 0042e630 f i sdk_util.obj
 0001:0002d630       ??R?$less@PAVIMeetingVideoCtrlEvent@ZOOMSDK@@@std@@QBE_NABQAVIMeetingVideoCtrlEvent@ZOOMSDK@@0@Z 0042e630 f i sdk_util.obj
 0001:0002d630       ??R?$less@PAVIMeetingChatCtrlEvent@ZOOMSDK@@@std@@QBE_NABQAVIMeetingChatCtrlEvent@ZOOMSDK@@0@Z 0042e630 f i sdk_util.obj
 0001:0002d630       ??R?$less@I@std@@QBE_NABI0@Z 0042e630 f i user_manager.obj
 0001:0002d660       ??_E?$EventSinkPool@VIAuthServiceEvent@ZOOMSDK@@@@UAEPAXI@Z 0042e660 f i sdk_util.obj
 0001:0002d660       ??_G?$EventSinkPool@VIAuthServiceEvent@ZOOMSDK@@@@UAEPAXI@Z 0042e660 f i sdk_util.obj
 0001:0002d690       ??_G?$EventSinkPool@VIClosedCaptionControllerEvent@ZOOMSDK@@@@UAEPAXI@Z 0042e690 f i sdk_util.obj
 0001:0002d690       ??_E?$EventSinkPool@VIClosedCaptionControllerEvent@ZOOMSDK@@@@UAEPAXI@Z 0042e690 f i sdk_util.obj
 0001:0002d6c0       ??_E?$EventSinkPool@VIMeetingChatCtrlEvent@ZOOMSDK@@@@UAEPAXI@Z 0042e6c0 f i sdk_util.obj
 0001:0002d6c0       ??_G?$EventSinkPool@VIMeetingChatCtrlEvent@ZOOMSDK@@@@UAEPAXI@Z 0042e6c0 f i sdk_util.obj
 0001:0002d6f0       ??_E?$EventSinkPool@VIMeetingParticipantsCtrlEvent@ZOOMSDK@@@@UAEPAXI@Z 0042e6f0 f i sdk_util.obj
 0001:0002d6f0       ??_G?$EventSinkPool@VIMeetingParticipantsCtrlEvent@ZOOMSDK@@@@UAEPAXI@Z 0042e6f0 f i sdk_util.obj
 0001:0002d720       ??_G?$EventSinkPool@VIMeetingServiceEvent@ZOOMSDK@@@@UAEPAXI@Z 0042e720 f i sdk_util.obj
 0001:0002d720       ??_E?$EventSinkPool@VIMeetingServiceEvent@ZOOMSDK@@@@UAEPAXI@Z 0042e720 f i sdk_util.obj
 0001:0002d750       ??_G?$EventSinkPool@VIMeetingVideoCtrlEvent@ZOOMSDK@@@@UAEPAXI@Z 0042e750 f i sdk_util.obj
 0001:0002d750       ??_E?$EventSinkPool@VIMeetingVideoCtrlEvent@ZOOMSDK@@@@UAEPAXI@Z 0042e750 f i sdk_util.obj
 0001:0002d780       ??_G?$EventSinkPool@VIPreMeetingServiceEvent@ZOOMSDK@@@@UAEPAXI@Z 0042e780 f i sdk_util.obj
 0001:0002d780       ??_E?$EventSinkPool@VIPreMeetingServiceEvent@ZOOMSDK@@@@UAEPAXI@Z 0042e780 f i sdk_util.obj
 0001:0002d7b0       ??_E?$EventSinkPool@VISDKInMeetingServiceMgrEvent@@@@UAEPAXI@Z 0042e7b0 f i sdk_util.obj
 0001:0002d7b0       ??_G?$EventSinkPool@VISDKInMeetingServiceMgrEvent@@@@UAEPAXI@Z 0042e7b0 f i sdk_util.obj
 0001:0002d7e0       ??_ESDKInterfaceWrap@@EAEPAXI@Z 0042e7e0 f i sdk_util.obj
 0001:0002d7e0       ??_GSDKInterfaceWrap@@EAEPAXI@Z 0042e7e0 f i sdk_util.obj
 0001:0002d820       ?ActiveWindowToTop@@YAXPAUHWND__@@H@Z 0042e820 f   sdk_util.obj
 0001:0002d920       ?AddListener@?$EventSinkPool@VISDKInMeetingServiceMgrEvent@@@@QAEXPAVISDKInMeetingServiceMgrEvent@@@Z 0042e920 f i sdk_util.obj
 0001:0002d920       ?AddListener@?$EventSinkPool@VIMeetingVideoCtrlEvent@ZOOMSDK@@@@QAEXPAVIMeetingVideoCtrlEvent@ZOOMSDK@@@Z 0042e920 f i sdk_util.obj
 0001:0002d920       ?AddListener@?$EventSinkPool@VIMeetingParticipantsCtrlEvent@ZOOMSDK@@@@QAEXPAVIMeetingParticipantsCtrlEvent@ZOOMSDK@@@Z 0042e920 f i sdk_util.obj
 0001:0002d920       ?AddListener@?$EventSinkPool@VIMeetingServiceEvent@ZOOMSDK@@@@QAEXPAVIMeetingServiceEvent@ZOOMSDK@@@Z 0042e920 f i sdk_util.obj
 0001:0002d920       ?AddListener@?$EventSinkPool@VIAuthServiceEvent@ZOOMSDK@@@@QAEXPAVIAuthServiceEvent@ZOOMSDK@@@Z 0042e920 f i sdk_util.obj
 0001:0002d920       ?AddListener@?$EventSinkPool@VIPreMeetingServiceEvent@ZOOMSDK@@@@QAEXPAVIPreMeetingServiceEvent@ZOOMSDK@@@Z 0042e920 f i sdk_util.obj
 0001:0002d920       ?AddListener@?$EventSinkPool@VIMeetingChatCtrlEvent@ZOOMSDK@@@@QAEXPAVIMeetingChatCtrlEvent@ZOOMSDK@@@Z 0042e920 f i sdk_util.obj
 0001:0002d920       ?AddListener@?$EventSinkPool@VIClosedCaptionControllerEvent@ZOOMSDK@@@@QAEXPAVIClosedCaptionControllerEvent@ZOOMSDK@@@Z 0042e920 f i sdk_util.obj
 0001:0002d960       ?AtlThrowImpl@ATL@@YGXJ@Z  0042e960 f i sdk_util.obj
 0001:0002d990       ?Cleanup@SDKInterfaceWrap@@QAE?AW4SDKError@ZOOMSDK@@XZ 0042e990 f   sdk_util.obj
 0001:0002dac0       ?GetAuthService@SDKInterfaceWrap@@QAEPAVIAuthService@ZOOMSDK@@XZ 0042eac0 f   sdk_util.obj
 0001:0002db30       ?GetCloseCaptionController@SDKInterfaceWrap@@QAEPAVIClosedCaptionController@ZOOMSDK@@XZ 0042eb30 f   sdk_util.obj
 0001:0002dbd0       ?GetCustomizedAnnotationController@SDKInterfaceWrap@@QAEPAVICustomizedAnnotationController@ZOOMSDK@@PAVICustomizedShareRender@3@@Z 0042ebd0 f   sdk_util.obj
 0001:0002dc50       ?GetInst@SDKInterfaceWrap@@SAAAV1@XZ 0042ec50 f   sdk_util.obj
 0001:0002dcf0       ?GetLastError@SDKInterfaceWrap@@QAEPBVIZoomLastError@ZOOMSDK@@XZ 0042ecf0 f   sdk_util.obj
 0001:0002dd30       ?GetMeetingChatController@SDKInterfaceWrap@@QAEPAVIMeetingChatController@ZOOMSDK@@XZ 0042ed30 f   sdk_util.obj
 0001:0002ddd0       ?GetMeetingParticipantsController@SDKInterfaceWrap@@QAEPAVIMeetingParticipantsController@ZOOMSDK@@XZ 0042edd0 f   sdk_util.obj
 0001:0002de70       ?GetMeetingRemoteController@SDKInterfaceWrap@@QAEPAVIMeetingRemoteController@ZOOMSDK@@XZ 0042ee70 f   sdk_util.obj
 0001:0002dec0       ?GetMeetingService@SDKInterfaceWrap@@QAEPAVIMeetingService@ZOOMSDK@@XZ 0042eec0 f   sdk_util.obj
 0001:0002df60       ?GetMeetingVideoController@SDKInterfaceWrap@@QAEPAVIMeetingVideoController@ZOOMSDK@@XZ 0042ef60 f   sdk_util.obj
 0001:0002e000       ?GetNetworkConnectionHelper@SDKInterfaceWrap@@QAEPAVINetworkConnectionHelper@ZOOMSDK@@XZ 0042f000 f   sdk_util.obj
 0001:0002e040       ?GetPreMeetingService@SDKInterfaceWrap@@QAEPAVIPreMeetingService@ZOOMSDK@@XZ 0042f040 f   sdk_util.obj
 0001:0002e0d0       ?GetSettingService@SDKInterfaceWrap@@QAEPAVISettingService@ZOOMSDK@@XZ 0042f0d0 f   sdk_util.obj
 0001:0002e110       ?Init@SDKInterfaceWrap@@QAE?AW4SDKError@ZOOMSDK@@AAUtagInitParam@3@@Z 0042f110 f   sdk_util.obj
 0001:0002e190       ?ListenAuthServiceEvent@SDKInterfaceWrap@@QAEXPAVIAuthServiceEvent@ZOOMSDK@@@Z 0042f190 f   sdk_util.obj
 0001:0002e1c0       ?ListenChatServiceMgrEvent@SDKInterfaceWrap@@QAEXPAVIMeetingChatCtrlEvent@ZOOMSDK@@@Z 0042f1c0 f   sdk_util.obj
 0001:0002e1e0       ?ListenCloseCaptionEvent@SDKInterfaceWrap@@QAEXPAVIClosedCaptionControllerEvent@ZOOMSDK@@@Z 0042f1e0 f   sdk_util.obj
 0001:0002e200       ?ListenInMeetingServiceMgrEvent@SDKInterfaceWrap@@QAEXPAVISDKInMeetingServiceMgrEvent@@@Z 0042f200 f   sdk_util.obj
 0001:0002e220       ?ListenMeetingParticipantsCtrEvent@SDKInterfaceWrap@@QAEXPAVIMeetingParticipantsCtrlEvent@ZOOMSDK@@@Z 0042f220 f   sdk_util.obj
 0001:0002e240       ?ListenMeetingServiceEvent@SDKInterfaceWrap@@QAEXPAVIMeetingServiceEvent@ZOOMSDK@@@Z 0042f240 f   sdk_util.obj
 0001:0002e260       ?ListenMeetingVideoCtrEvent@SDKInterfaceWrap@@QAEXPAVIMeetingVideoCtrlEvent@ZOOMSDK@@@Z 0042f260 f   sdk_util.obj
 0001:0002e280       ?ListenPremeetingServiceEvent@SDKInterfaceWrap@@QAEXPAVIPreMeetingServiceEvent@ZOOMSDK@@@Z 0042f280 f   sdk_util.obj
 0001:0002e2a0       ?Lock@CComCriticalSection@ATL@@QAEJXZ 0042f2a0 f i sdk_util.obj
 0001:0002e2c0       ?OnMicSpkVolumnChanged@SDKInterfaceWrap@@UAEXII@Z 0042f2c0 f i sdk_util.obj
 0001:0002e3e0       ?OnNoAudioDeviceIsUseful@SDKInterfaceWrap@@UAEX_N@Z 0042f3e0 f i sdk_util.obj
 0001:0002e4f0       ?OnNoVideoDeviceIsUseful@SDKInterfaceWrap@@UAEXXZ 0042f4f0 f i sdk_util.obj
 0001:0002e600       ?OnNoWindowToShowPreview@SDKInterfaceWrap@@UAEXXZ 0042f600 f i sdk_util.obj
 0001:0002e710       ?OnSelectedAudioDeviceIsChanged@SDKInterfaceWrap@@UAEXXZ 0042f710 f i sdk_util.obj
 0001:0002e820       ?OnSelectedVideoDeviceIsChanged@SDKInterfaceWrap@@UAEXXZ 0042f820 f i sdk_util.obj
 0001:0002e930       ?OnTestMicStatusChanged@SDKInterfaceWrap@@UAEXW4SDK_TESTMIC_STATUS@ZOOMSDK@@AA_N@Z 0042f930 f i sdk_util.obj
 0001:0002ea50       ?RemoveListener@?$EventSinkPool@VISDKInMeetingServiceMgrEvent@@@@QAEXPAVISDKInMeetingServiceMgrEvent@@@Z 0042fa50 f i sdk_util.obj
 0001:0002ea50       ?RemoveListener@?$EventSinkPool@VIMeetingServiceEvent@ZOOMSDK@@@@QAEXPAVIMeetingServiceEvent@ZOOMSDK@@@Z 0042fa50 f i sdk_util.obj
 0001:0002ea50       ?RemoveListener@?$EventSinkPool@VIMeetingChatCtrlEvent@ZOOMSDK@@@@QAEXPAVIMeetingChatCtrlEvent@ZOOMSDK@@@Z 0042fa50 f i sdk_util.obj
 0001:0002ea50       ?RemoveListener@?$EventSinkPool@VIAuthServiceEvent@ZOOMSDK@@@@QAEXPAVIAuthServiceEvent@ZOOMSDK@@@Z 0042fa50 f i sdk_util.obj
 0001:0002ea50       ?RemoveListener@?$EventSinkPool@VIMeetingParticipantsCtrlEvent@ZOOMSDK@@@@QAEXPAVIMeetingParticipantsCtrlEvent@ZOOMSDK@@@Z 0042fa50 f i sdk_util.obj
 0001:0002ea50       ?RemoveListener@?$EventSinkPool@VIClosedCaptionControllerEvent@ZOOMSDK@@@@QAEXPAVIClosedCaptionControllerEvent@ZOOMSDK@@@Z 0042fa50 f i sdk_util.obj
 0001:0002ea50       ?RemoveListener@?$EventSinkPool@VIPreMeetingServiceEvent@ZOOMSDK@@@@QAEXPAVIPreMeetingServiceEvent@ZOOMSDK@@@Z 0042fa50 f i sdk_util.obj
 0001:0002ea90       ?SetDataToClipboard@@YA_NPB_WPAUHWND__@@@Z 0042fa90 f   sdk_util.obj
 0001:0002eb80       ?UnListenAuthServiceEvent@SDKInterfaceWrap@@QAEXPAVIAuthServiceEvent@ZOOMSDK@@@Z 0042fb80 f   sdk_util.obj
 0001:0002eba0       ?UnListenChatServiceMgrEvent@SDKInterfaceWrap@@QAEXPAVIMeetingChatCtrlEvent@ZOOMSDK@@@Z 0042fba0 f   sdk_util.obj
 0001:0002ebc0       ?UnListenCloseCaptionEvent@SDKInterfaceWrap@@QAEXPAVIClosedCaptionControllerEvent@ZOOMSDK@@@Z 0042fbc0 f   sdk_util.obj
 0001:0002ebe0       ?UnListenInMeetingServiceMgrEvent@SDKInterfaceWrap@@QAEXPAVISDKInMeetingServiceMgrEvent@@@Z 0042fbe0 f   sdk_util.obj
 0001:0002ec00       ?UnListenMeetingParticipantsCtrEvent@SDKInterfaceWrap@@QAEXPAVIMeetingParticipantsCtrlEvent@ZOOMSDK@@@Z 0042fc00 f   sdk_util.obj
 0001:0002ec20       ?UnListenMeetingServiceEvent@SDKInterfaceWrap@@QAEXPAVIMeetingServiceEvent@ZOOMSDK@@@Z 0042fc20 f   sdk_util.obj
 0001:0002ec40       ?UnListenPremeetingServiceEvent@SDKInterfaceWrap@@QAEXPAVIPreMeetingServiceEvent@ZOOMSDK@@@Z 0042fc40 f   sdk_util.obj
 0001:0002ec60       ?Unlock@CComCriticalSection@ATL@@QAEJXZ 0042fc60 f i sdk_util.obj
 0001:0002ec80       ?_Buyheadnode@?$_Tree_comp_alloc@V?$_Tset_traits@PAVIClosedCaptionControllerEvent@ZOOMSDK@@U?$less@PAVIClosedCaptionControllerEvent@ZOOMSDK@@@std@@V?$allocator@PAVIClosedCaptionControllerEvent@ZOOMSDK@@@4@$0A@@std@@@std@@QAEPAU?$_Tree_node@PAVIClosedCaptionControllerEvent@ZOOMSDK@@PAX@2@XZ 0042fc80 f i sdk_util.obj
 0001:0002ec80       ?_Buyheadnode@?$_Tree_comp_alloc@V?$_Tset_traits@PAVIMeetingServiceEvent@ZOOMSDK@@U?$less@PAVIMeetingServiceEvent@ZOOMSDK@@@std@@V?$allocator@PAVIMeetingServiceEvent@ZOOMSDK@@@4@$0A@@std@@@std@@QAEPAU?$_Tree_node@PAVIMeetingServiceEvent@ZOOMSDK@@PAX@2@XZ 0042fc80 f i sdk_util.obj
 0001:0002ec80       ?_Buyheadnode@?$_Tree_comp_alloc@V?$_Tset_traits@PAVIMeetingChatCtrlEvent@ZOOMSDK@@U?$less@PAVIMeetingChatCtrlEvent@ZOOMSDK@@@std@@V?$allocator@PAVIMeetingChatCtrlEvent@ZOOMSDK@@@4@$0A@@std@@@std@@QAEPAU?$_Tree_node@PAVIMeetingChatCtrlEvent@ZOOMSDK@@PAX@2@XZ 0042fc80 f i sdk_util.obj
 0001:0002ec80       ?_Buyheadnode@?$_Tree_comp_alloc@V?$_Tset_traits@PAVIAuthServiceEvent@ZOOMSDK@@U?$less@PAVIAuthServiceEvent@ZOOMSDK@@@std@@V?$allocator@PAVIAuthServiceEvent@ZOOMSDK@@@4@$0A@@std@@@std@@QAEPAU?$_Tree_node@PAVIAuthServiceEvent@ZOOMSDK@@PAX@2@XZ 0042fc80 f i sdk_util.obj
 0001:0002ec80       ?_Buyheadnode@?$_Tree_comp_alloc@V?$_Tset_traits@PAVISDKInMeetingServiceMgrEvent@@U?$less@PAVISDKInMeetingServiceMgrEvent@@@std@@V?$allocator@PAVISDKInMeetingServiceMgrEvent@@@3@$0A@@std@@@std@@QAEPAU?$_Tree_node@PAVISDKInMeetingServiceMgrEvent@@PAX@2@XZ 0042fc80 f i sdk_util.obj
 0001:0002ec80       ?_Buyheadnode@?$_Tree_comp_alloc@V?$_Tset_traits@PAVIMeetingParticipantsCtrlEvent@ZOOMSDK@@U?$less@PAVIMeetingParticipantsCtrlEvent@ZOOMSDK@@@std@@V?$allocator@PAVIMeetingParticipantsCtrlEvent@ZOOMSDK@@@4@$0A@@std@@@std@@QAEPAU?$_Tree_node@PAVIMeetingParticipantsCtrlEvent@ZOOMSDK@@PAX@2@XZ 0042fc80 f i sdk_util.obj
 0001:0002ec80       ?_Buyheadnode@?$_Tree_comp_alloc@V?$_Tset_traits@PAVIPreMeetingServiceEvent@ZOOMSDK@@U?$less@PAVIPreMeetingServiceEvent@ZOOMSDK@@@std@@V?$allocator@PAVIPreMeetingServiceEvent@ZOOMSDK@@@4@$0A@@std@@@std@@QAEPAU?$_Tree_node@PAVIPreMeetingServiceEvent@ZOOMSDK@@PAX@2@XZ 0042fc80 f i sdk_util.obj
 0001:0002ec80       ?_Buyheadnode@?$_Tree_comp_alloc@V?$_Tset_traits@PAVIMeetingVideoCtrlEvent@ZOOMSDK@@U?$less@PAVIMeetingVideoCtrlEvent@ZOOMSDK@@@std@@V?$allocator@PAVIMeetingVideoCtrlEvent@ZOOMSDK@@@4@$0A@@std@@@std@@QAEPAU?$_Tree_node@PAVIMeetingVideoCtrlEvent@ZOOMSDK@@PAX@2@XZ 0042fc80 f i sdk_util.obj
 0001:0002ed80       ?_Buynode0@?$_Tree_comp_alloc@V?$_Tset_traits@PAVIClosedCaptionControllerEvent@ZOOMSDK@@U?$less@PAVIClosedCaptionControllerEvent@ZOOMSDK@@@std@@V?$allocator@PAVIClosedCaptionControllerEvent@ZOOMSDK@@@4@$0A@@std@@@std@@QAEPAU?$_Tree_node@PAVIClosedCaptionControllerEvent@ZOOMSDK@@PAX@2@XZ 0042fd80 f i sdk_util.obj
 0001:0002ed80       ?_Buynode0@?$_Tree_comp_alloc@V?$_Tset_traits@PAVIMeetingServiceEvent@ZOOMSDK@@U?$less@PAVIMeetingServiceEvent@ZOOMSDK@@@std@@V?$allocator@PAVIMeetingServiceEvent@ZOOMSDK@@@4@$0A@@std@@@std@@QAEPAU?$_Tree_node@PAVIMeetingServiceEvent@ZOOMSDK@@PAX@2@XZ 0042fd80 f i sdk_util.obj
 0001:0002ed80       ?_Buynode0@?$_Tree_comp_alloc@V?$_Tset_traits@PAVIMeetingVideoCtrlEvent@ZOOMSDK@@U?$less@PAVIMeetingVideoCtrlEvent@ZOOMSDK@@@std@@V?$allocator@PAVIMeetingVideoCtrlEvent@ZOOMSDK@@@4@$0A@@std@@@std@@QAEPAU?$_Tree_node@PAVIMeetingVideoCtrlEvent@ZOOMSDK@@PAX@2@XZ 0042fd80 f i sdk_util.obj
 0001:0002ed80       ?_Buynode0@?$_Tree_comp_alloc@V?$_Tset_traits@PAVISDKInMeetingServiceMgrEvent@@U?$less@PAVISDKInMeetingServiceMgrEvent@@@std@@V?$allocator@PAVISDKInMeetingServiceMgrEvent@@@3@$0A@@std@@@std@@QAEPAU?$_Tree_node@PAVISDKInMeetingServiceMgrEvent@@PAX@2@XZ 0042fd80 f i sdk_util.obj
 0001:0002ed80       ?_Buynode0@?$_Tree_comp_alloc@V?$_Tset_traits@PAVIPreMeetingServiceEvent@ZOOMSDK@@U?$less@PAVIPreMeetingServiceEvent@ZOOMSDK@@@std@@V?$allocator@PAVIPreMeetingServiceEvent@ZOOMSDK@@@4@$0A@@std@@@std@@QAEPAU?$_Tree_node@PAVIPreMeetingServiceEvent@ZOOMSDK@@PAX@2@XZ 0042fd80 f i sdk_util.obj
 0001:0002ed80       ?_Buynode0@?$_Tree_comp_alloc@V?$_Tset_traits@PAVIAuthServiceEvent@ZOOMSDK@@U?$less@PAVIAuthServiceEvent@ZOOMSDK@@@std@@V?$allocator@PAVIAuthServiceEvent@ZOOMSDK@@@4@$0A@@std@@@std@@QAEPAU?$_Tree_node@PAVIAuthServiceEvent@ZOOMSDK@@PAX@2@XZ 0042fd80 f i sdk_util.obj
 0001:0002ed80       ?_Buynode0@?$_Tree_comp_alloc@V?$_Tset_traits@PAVIMeetingParticipantsCtrlEvent@ZOOMSDK@@U?$less@PAVIMeetingParticipantsCtrlEvent@ZOOMSDK@@@std@@V?$allocator@PAVIMeetingParticipantsCtrlEvent@ZOOMSDK@@@4@$0A@@std@@@std@@QAEPAU?$_Tree_node@PAVIMeetingParticipantsCtrlEvent@ZOOMSDK@@PAX@2@XZ 0042fd80 f i sdk_util.obj
 0001:0002ed80       ?_Buynode0@?$_Tree_comp_alloc@V?$_Tset_traits@PAVIMeetingChatCtrlEvent@ZOOMSDK@@U?$less@PAVIMeetingChatCtrlEvent@ZOOMSDK@@@std@@V?$allocator@PAVIMeetingChatCtrlEvent@ZOOMSDK@@@4@$0A@@std@@@std@@QAEPAU?$_Tree_node@PAVIMeetingChatCtrlEvent@ZOOMSDK@@PAX@2@XZ 0042fd80 f i sdk_util.obj
 0001:0002ee80       ?_Construct@?$_Tree_comp_alloc@V?$_Tset_traits@PAVIMeetingParticipantsCtrlEvent@ZOOMSDK@@U?$less@PAVIMeetingParticipantsCtrlEvent@ZOOMSDK@@@std@@V?$allocator@PAVIMeetingParticipantsCtrlEvent@ZOOMSDK@@@4@$0A@@std@@@std@@QAEXXZ 0042fe80 f i sdk_util.obj
 0001:0002ee80       ?_Construct@?$_Tree_comp_alloc@V?$_Tset_traits@PAVIAuthServiceEvent@ZOOMSDK@@U?$less@PAVIAuthServiceEvent@ZOOMSDK@@@std@@V?$allocator@PAVIAuthServiceEvent@ZOOMSDK@@@4@$0A@@std@@@std@@QAEXXZ 0042fe80 f i sdk_util.obj
 0001:0002ee80       ?_Construct@?$_Tree_comp_alloc@V?$_Tset_traits@PAVIMeetingServiceEvent@ZOOMSDK@@U?$less@PAVIMeetingServiceEvent@ZOOMSDK@@@std@@V?$allocator@PAVIMeetingServiceEvent@ZOOMSDK@@@4@$0A@@std@@@std@@QAEXXZ 0042fe80 f i sdk_util.obj
 0001:0002ee80       ?_Construct@?$_Tree_comp_alloc@V?$_Tset_traits@PAVIClosedCaptionControllerEvent@ZOOMSDK@@U?$less@PAVIClosedCaptionControllerEvent@ZOOMSDK@@@std@@V?$allocator@PAVIClosedCaptionControllerEvent@ZOOMSDK@@@4@$0A@@std@@@std@@QAEXXZ 0042fe80 f i sdk_util.obj
 0001:0002ee80       ?_Construct@?$_Tree_comp_alloc@V?$_Tset_traits@PAVIMeetingVideoCtrlEvent@ZOOMSDK@@U?$less@PAVIMeetingVideoCtrlEvent@ZOOMSDK@@@std@@V?$allocator@PAVIMeetingVideoCtrlEvent@ZOOMSDK@@@4@$0A@@std@@@std@@QAEXXZ 0042fe80 f i sdk_util.obj
 0001:0002ee80       ?_Construct@?$_Tree_comp_alloc@V?$_Tset_traits@PAVIMeetingChatCtrlEvent@ZOOMSDK@@U?$less@PAVIMeetingChatCtrlEvent@ZOOMSDK@@@std@@V?$allocator@PAVIMeetingChatCtrlEvent@ZOOMSDK@@@4@$0A@@std@@@std@@QAEXXZ 0042fe80 f i sdk_util.obj
 0001:0002ee80       ?_Construct@?$_Tree_comp_alloc@V?$_Tset_traits@PAVISDKInMeetingServiceMgrEvent@@U?$less@PAVISDKInMeetingServiceMgrEvent@@@std@@V?$allocator@PAVISDKInMeetingServiceMgrEvent@@@3@$0A@@std@@@std@@QAEXXZ 0042fe80 f i sdk_util.obj
 0001:0002ee80       ?_Construct@?$_Tree_comp_alloc@V?$_Tset_traits@PAVIPreMeetingServiceEvent@ZOOMSDK@@U?$less@PAVIPreMeetingServiceEvent@ZOOMSDK@@@std@@V?$allocator@PAVIPreMeetingServiceEvent@ZOOMSDK@@@4@$0A@@std@@@std@@QAEXXZ 0042fe80 f i sdk_util.obj
 0001:0002eeb0       ?_Destroy_if_node@?$_Tree@V?$_Tset_traits@PAVIClosedCaptionControllerEvent@ZOOMSDK@@U?$less@PAVIClosedCaptionControllerEvent@ZOOMSDK@@@std@@V?$allocator@PAVIClosedCaptionControllerEvent@ZOOMSDK@@@4@$0A@@std@@@std@@IAEXPAU?$_Tree_node@PAVIClosedCaptionControllerEvent@ZOOMSDK@@PAX@2@@Z 0042feb0 f i sdk_util.obj
 0001:0002eeb0       ?_Destroy_if_node@?$_Tree@V?$_Tset_traits@PAVIPreMeetingServiceEvent@ZOOMSDK@@U?$less@PAVIPreMeetingServiceEvent@ZOOMSDK@@@std@@V?$allocator@PAVIPreMeetingServiceEvent@ZOOMSDK@@@4@$0A@@std@@@std@@IAEXPAU?$_Tree_node@PAVIPreMeetingServiceEvent@ZOOMSDK@@PAX@2@@Z 0042feb0 f i sdk_util.obj
 0001:0002eeb0       ?_Destroy_if_node@?$_Tree@V?$_Tset_traits@PAVIMeetingChatCtrlEvent@ZOOMSDK@@U?$less@PAVIMeetingChatCtrlEvent@ZOOMSDK@@@std@@V?$allocator@PAVIMeetingChatCtrlEvent@ZOOMSDK@@@4@$0A@@std@@@std@@IAEXPAU?$_Tree_node@PAVIMeetingChatCtrlEvent@ZOOMSDK@@PAX@2@@Z 0042feb0 f i sdk_util.obj
 0001:0002eeb0       ?_Destroy_if_node@?$_Tree@V?$_Tset_traits@PAVISDKInMeetingServiceMgrEvent@@U?$less@PAVISDKInMeetingServiceMgrEvent@@@std@@V?$allocator@PAVISDKInMeetingServiceMgrEvent@@@3@$0A@@std@@@std@@IAEXPAU?$_Tree_node@PAVISDKInMeetingServiceMgrEvent@@PAX@2@@Z 0042feb0 f i sdk_util.obj
 0001:0002eeb0       ?_Destroy_if_node@?$_Tree@V?$_Tset_traits@PAVIAuthServiceEvent@ZOOMSDK@@U?$less@PAVIAuthServiceEvent@ZOOMSDK@@@std@@V?$allocator@PAVIAuthServiceEvent@ZOOMSDK@@@4@$0A@@std@@@std@@IAEXPAU?$_Tree_node@PAVIAuthServiceEvent@ZOOMSDK@@PAX@2@@Z 0042feb0 f i sdk_util.obj
 0001:0002eeb0       ?_Destroy_if_node@?$_Tree@V?$_Tset_traits@PAVIMeetingServiceEvent@ZOOMSDK@@U?$less@PAVIMeetingServiceEvent@ZOOMSDK@@@std@@V?$allocator@PAVIMeetingServiceEvent@ZOOMSDK@@@4@$0A@@std@@@std@@IAEXPAU?$_Tree_node@PAVIMeetingServiceEvent@ZOOMSDK@@PAX@2@@Z 0042feb0 f i sdk_util.obj
 0001:0002eeb0       ?_Destroy_if_node@?$_Tree@V?$_Tset_traits@PAVIMeetingParticipantsCtrlEvent@ZOOMSDK@@U?$less@PAVIMeetingParticipantsCtrlEvent@ZOOMSDK@@@std@@V?$allocator@PAVIMeetingParticipantsCtrlEvent@ZOOMSDK@@@4@$0A@@std@@@std@@IAEXPAU?$_Tree_node@PAVIMeetingParticipantsCtrlEvent@ZOOMSDK@@PAX@2@@Z 0042feb0 f i sdk_util.obj
 0001:0002eeb0       ?_Destroy_if_node@?$_Tree@V?$_Tset_traits@PAVIMeetingVideoCtrlEvent@ZOOMSDK@@U?$less@PAVIMeetingVideoCtrlEvent@ZOOMSDK@@@std@@V?$allocator@PAVIMeetingVideoCtrlEvent@ZOOMSDK@@@4@$0A@@std@@@std@@IAEXPAU?$_Tree_node@PAVIMeetingVideoCtrlEvent@ZOOMSDK@@PAX@2@@Z 0042feb0 f i sdk_util.obj
 0001:0002ef00       ?_Erase@?$_Tree@V?$_Tset_traits@PAVIMeetingServiceEvent@ZOOMSDK@@U?$less@PAVIMeetingServiceEvent@ZOOMSDK@@@std@@V?$allocator@PAVIMeetingServiceEvent@ZOOMSDK@@@4@$0A@@std@@@std@@IAEXPAU?$_Tree_node@PAVIMeetingServiceEvent@ZOOMSDK@@PAX@2@@Z 0042ff00 f i sdk_util.obj
 0001:0002ef00       ?_Erase@?$_Tree@V?$_Tset_traits@PAVIAuthServiceEvent@ZOOMSDK@@U?$less@PAVIAuthServiceEvent@ZOOMSDK@@@std@@V?$allocator@PAVIAuthServiceEvent@ZOOMSDK@@@4@$0A@@std@@@std@@IAEXPAU?$_Tree_node@PAVIAuthServiceEvent@ZOOMSDK@@PAX@2@@Z 0042ff00 f i sdk_util.obj
 0001:0002ef00       ?_Erase@?$_Tree@V?$_Tset_traits@PAVIPreMeetingServiceEvent@ZOOMSDK@@U?$less@PAVIPreMeetingServiceEvent@ZOOMSDK@@@std@@V?$allocator@PAVIPreMeetingServiceEvent@ZOOMSDK@@@4@$0A@@std@@@std@@IAEXPAU?$_Tree_node@PAVIPreMeetingServiceEvent@ZOOMSDK@@PAX@2@@Z 0042ff00 f i sdk_util.obj
 0001:0002ef00       ?_Erase@?$_Tree@V?$_Tset_traits@PAVIClosedCaptionControllerEvent@ZOOMSDK@@U?$less@PAVIClosedCaptionControllerEvent@ZOOMSDK@@@std@@V?$allocator@PAVIClosedCaptionControllerEvent@ZOOMSDK@@@4@$0A@@std@@@std@@IAEXPAU?$_Tree_node@PAVIClosedCaptionControllerEvent@ZOOMSDK@@PAX@2@@Z 0042ff00 f i sdk_util.obj
 0001:0002ef00       ?_Erase@?$_Tree@V?$_Tset_traits@PAVIMeetingChatCtrlEvent@ZOOMSDK@@U?$less@PAVIMeetingChatCtrlEvent@ZOOMSDK@@@std@@V?$allocator@PAVIMeetingChatCtrlEvent@ZOOMSDK@@@4@$0A@@std@@@std@@IAEXPAU?$_Tree_node@PAVIMeetingChatCtrlEvent@ZOOMSDK@@PAX@2@@Z 0042ff00 f i sdk_util.obj
 0001:0002ef00       ?_Erase@?$_Tree@V?$_Tset_traits@PAVIMeetingParticipantsCtrlEvent@ZOOMSDK@@U?$less@PAVIMeetingParticipantsCtrlEvent@ZOOMSDK@@@std@@V?$allocator@PAVIMeetingParticipantsCtrlEvent@ZOOMSDK@@@4@$0A@@std@@@std@@IAEXPAU?$_Tree_node@PAVIMeetingParticipantsCtrlEvent@ZOOMSDK@@PAX@2@@Z 0042ff00 f i sdk_util.obj
 0001:0002ef00       ?_Erase@?$_Tree@V?$_Tset_traits@PAVISDKInMeetingServiceMgrEvent@@U?$less@PAVISDKInMeetingServiceMgrEvent@@@std@@V?$allocator@PAVISDKInMeetingServiceMgrEvent@@@3@$0A@@std@@@std@@IAEXPAU?$_Tree_node@PAVISDKInMeetingServiceMgrEvent@@PAX@2@@Z 0042ff00 f i sdk_util.obj
 0001:0002ef00       ?_Erase@?$_Tree@V?$_Tset_traits@PAVIMeetingVideoCtrlEvent@ZOOMSDK@@U?$less@PAVIMeetingVideoCtrlEvent@ZOOMSDK@@@std@@V?$allocator@PAVIMeetingVideoCtrlEvent@ZOOMSDK@@@4@$0A@@std@@@std@@IAEXPAU?$_Tree_node@PAVIMeetingVideoCtrlEvent@ZOOMSDK@@PAX@2@@Z 0042ff00 f i sdk_util.obj
 0001:0002ef80       ?_Extract@?$_Tree_val@U?$_Tree_simple_types@PAVIPreMeetingServiceEvent@ZOOMSDK@@@std@@@std@@QAEPAU?$_Tree_node@PAVIPreMeetingServiceEvent@ZOOMSDK@@PAX@2@V?$_Tree_const_iterator@V?$_Tree_val@U?$_Tree_simple_types@PAVIPreMeetingServiceEvent@ZOOMSDK@@@std@@@std@@@2@@Z 0042ff80 f i sdk_util.obj
 0001:0002ef80       ?_Extract@?$_Tree_val@U?$_Tree_simple_types@U?$pair@$$CBIPAVIUserInfo@ZOOMSDK@@@std@@@std@@@std@@QAEPAU?$_Tree_node@U?$pair@$$CBIPAVIUserInfo@ZOOMSDK@@@std@@PAX@2@V?$_Tree_const_iterator@V?$_Tree_val@U?$_Tree_simple_types@U?$pair@$$CBIPAVIUserInfo@ZOOMSDK@@@std@@@std@@@std@@@2@@Z 0042ff80 f i user_manager.obj
 0001:0002ef80       ?_Extract@?$_Tree_val@U?$_Tree_simple_types@PAVISDKInMeetingServiceMgrEvent@@@std@@@std@@QAEPAU?$_Tree_node@PAVISDKInMeetingServiceMgrEvent@@PAX@2@V?$_Tree_const_iterator@V?$_Tree_val@U?$_Tree_simple_types@PAVISDKInMeetingServiceMgrEvent@@@std@@@std@@@2@@Z 0042ff80 f i sdk_util.obj
 0001:0002ef80       ?_Extract@?$_Tree_val@U?$_Tree_simple_types@PAVIMeetingChatCtrlEvent@ZOOMSDK@@@std@@@std@@QAEPAU?$_Tree_node@PAVIMeetingChatCtrlEvent@ZOOMSDK@@PAX@2@V?$_Tree_const_iterator@V?$_Tree_val@U?$_Tree_simple_types@PAVIMeetingChatCtrlEvent@ZOOMSDK@@@std@@@std@@@2@@Z 0042ff80 f i sdk_util.obj
 0001:0002ef80       ?_Extract@?$_Tree_val@U?$_Tree_simple_types@PAVIAuthServiceEvent@ZOOMSDK@@@std@@@std@@QAEPAU?$_Tree_node@PAVIAuthServiceEvent@ZOOMSDK@@PAX@2@V?$_Tree_const_iterator@V?$_Tree_val@U?$_Tree_simple_types@PAVIAuthServiceEvent@ZOOMSDK@@@std@@@std@@@2@@Z 0042ff80 f i sdk_util.obj
 0001:0002ef80       ?_Extract@?$_Tree_val@U?$_Tree_simple_types@PAVIMeetingVideoCtrlEvent@ZOOMSDK@@@std@@@std@@QAEPAU?$_Tree_node@PAVIMeetingVideoCtrlEvent@ZOOMSDK@@PAX@2@V?$_Tree_const_iterator@V?$_Tree_val@U?$_Tree_simple_types@PAVIMeetingVideoCtrlEvent@ZOOMSDK@@@std@@@std@@@2@@Z 0042ff80 f i sdk_util.obj
 0001:0002ef80       ?_Extract@?$_Tree_val@U?$_Tree_simple_types@PAVIClosedCaptionControllerEvent@ZOOMSDK@@@std@@@std@@QAEPAU?$_Tree_node@PAVIClosedCaptionControllerEvent@ZOOMSDK@@PAX@2@V?$_Tree_const_iterator@V?$_Tree_val@U?$_Tree_simple_types@PAVIClosedCaptionControllerEvent@ZOOMSDK@@@std@@@std@@@2@@Z 0042ff80 f i sdk_util.obj
 0001:0002ef80       ?_Extract@?$_Tree_val@U?$_Tree_simple_types@PAVIMeetingServiceEvent@ZOOMSDK@@@std@@@std@@QAEPAU?$_Tree_node@PAVIMeetingServiceEvent@ZOOMSDK@@PAX@2@V?$_Tree_const_iterator@V?$_Tree_val@U?$_Tree_simple_types@PAVIMeetingServiceEvent@ZOOMSDK@@@std@@@std@@@2@@Z 0042ff80 f i sdk_util.obj
 0001:0002ef80       ?_Extract@?$_Tree_val@U?$_Tree_simple_types@PAVIMeetingParticipantsCtrlEvent@ZOOMSDK@@@std@@@std@@QAEPAU?$_Tree_node@PAVIMeetingParticipantsCtrlEvent@ZOOMSDK@@PAX@2@V?$_Tree_const_iterator@V?$_Tree_val@U?$_Tree_simple_types@PAVIMeetingParticipantsCtrlEvent@ZOOMSDK@@@std@@@std@@@2@@Z 0042ff80 f i sdk_util.obj
 0001:0002f3c0       ?_Freenode0@?$_Tree_comp_alloc@V?$_Tset_traits@PAVIPreMeetingServiceEvent@ZOOMSDK@@U?$less@PAVIPreMeetingServiceEvent@ZOOMSDK@@@std@@V?$allocator@PAVIPreMeetingServiceEvent@ZOOMSDK@@@4@$0A@@std@@@std@@QAEXPAU?$_Tree_node@PAVIPreMeetingServiceEvent@ZOOMSDK@@PAX@2@@Z 004303c0 f i sdk_util.obj
 0001:0002f3c0       ?_Freeheadnode@?$_Tree_comp_alloc@V?$_Tset_traits@PAVIAuthServiceEvent@ZOOMSDK@@U?$less@PAVIAuthServiceEvent@ZOOMSDK@@@std@@V?$allocator@PAVIAuthServiceEvent@ZOOMSDK@@@4@$0A@@std@@@std@@QAEXPAU?$_Tree_node@PAVIAuthServiceEvent@ZOOMSDK@@PAX@2@@Z 004303c0 f i sdk_util.obj
 0001:0002f3c0       ?_Freeheadnode@?$_Tree_comp_alloc@V?$_Tset_traits@PAVIMeetingParticipantsCtrlEvent@ZOOMSDK@@U?$less@PAVIMeetingParticipantsCtrlEvent@ZOOMSDK@@@std@@V?$allocator@PAVIMeetingParticipantsCtrlEvent@ZOOMSDK@@@4@$0A@@std@@@std@@QAEXPAU?$_Tree_node@PAVIMeetingParticipantsCtrlEvent@ZOOMSDK@@PAX@2@@Z 004303c0 f i sdk_util.obj
 0001:0002f3c0       ?_Freeheadnode@?$_Tree_comp_alloc@V?$_Tset_traits@PAVIClosedCaptionControllerEvent@ZOOMSDK@@U?$less@PAVIClosedCaptionControllerEvent@ZOOMSDK@@@std@@V?$allocator@PAVIClosedCaptionControllerEvent@ZOOMSDK@@@4@$0A@@std@@@std@@QAEXPAU?$_Tree_node@PAVIClosedCaptionControllerEvent@ZOOMSDK@@PAX@2@@Z 004303c0 f i sdk_util.obj
 0001:0002f3c0       ?_Freenode0@?$_Tree_comp_alloc@V?$_Tset_traits@PAVIMeetingVideoCtrlEvent@ZOOMSDK@@U?$less@PAVIMeetingVideoCtrlEvent@ZOOMSDK@@@std@@V?$allocator@PAVIMeetingVideoCtrlEvent@ZOOMSDK@@@4@$0A@@std@@@std@@QAEXPAU?$_Tree_node@PAVIMeetingVideoCtrlEvent@ZOOMSDK@@PAX@2@@Z 004303c0 f i sdk_util.obj
 0001:0002f3c0       ?_Freenode0@?$_Tree_comp_alloc@V?$_Tset_traits@PAVIMeetingServiceEvent@ZOOMSDK@@U?$less@PAVIMeetingServiceEvent@ZOOMSDK@@@std@@V?$allocator@PAVIMeetingServiceEvent@ZOOMSDK@@@4@$0A@@std@@@std@@QAEXPAU?$_Tree_node@PAVIMeetingServiceEvent@ZOOMSDK@@PAX@2@@Z 004303c0 f i sdk_util.obj
 0001:0002f3c0       ?_Freeheadnode@?$_Tree_comp_alloc@V?$_Tset_traits@PAVIMeetingChatCtrlEvent@ZOOMSDK@@U?$less@PAVIMeetingChatCtrlEvent@ZOOMSDK@@@std@@V?$allocator@PAVIMeetingChatCtrlEvent@ZOOMSDK@@@4@$0A@@std@@@std@@QAEXPAU?$_Tree_node@PAVIMeetingChatCtrlEvent@ZOOMSDK@@PAX@2@@Z 004303c0 f i sdk_util.obj
 0001:0002f3c0       ?_Freeheadnode@?$_Tree_comp_alloc@V?$_Tset_traits@PAVIPreMeetingServiceEvent@ZOOMSDK@@U?$less@PAVIPreMeetingServiceEvent@ZOOMSDK@@@std@@V?$allocator@PAVIPreMeetingServiceEvent@ZOOMSDK@@@4@$0A@@std@@@std@@QAEXPAU?$_Tree_node@PAVIPreMeetingServiceEvent@ZOOMSDK@@PAX@2@@Z 004303c0 f i sdk_util.obj
 0001:0002f3c0       ?_Freeheadnode@?$_Tree_comp_alloc@V?$_Tset_traits@PAVIMeetingVideoCtrlEvent@ZOOMSDK@@U?$less@PAVIMeetingVideoCtrlEvent@ZOOMSDK@@@std@@V?$allocator@PAVIMeetingVideoCtrlEvent@ZOOMSDK@@@4@$0A@@std@@@std@@QAEXPAU?$_Tree_node@PAVIMeetingVideoCtrlEvent@ZOOMSDK@@PAX@2@@Z 004303c0 f i sdk_util.obj
 0001:0002f3c0       ?_Freenode0@?$_Tree_comp_alloc@V?$_Tset_traits@PAVIClosedCaptionControllerEvent@ZOOMSDK@@U?$less@PAVIClosedCaptionControllerEvent@ZOOMSDK@@@std@@V?$allocator@PAVIClosedCaptionControllerEvent@ZOOMSDK@@@4@$0A@@std@@@std@@QAEXPAU?$_Tree_node@PAVIClosedCaptionControllerEvent@ZOOMSDK@@PAX@2@@Z 004303c0 f i sdk_util.obj
 0001:0002f3c0       ?_Freeheadnode@?$_Tree_comp_alloc@V?$_Tset_traits@PAVISDKInMeetingServiceMgrEvent@@U?$less@PAVISDKInMeetingServiceMgrEvent@@@std@@V?$allocator@PAVISDKInMeetingServiceMgrEvent@@@3@$0A@@std@@@std@@QAEXPAU?$_Tree_node@PAVISDKInMeetingServiceMgrEvent@@PAX@2@@Z 004303c0 f i sdk_util.obj
 0001:0002f3c0       ?_Freenode0@?$_Tree_comp_alloc@V?$_Tset_traits@PAVISDKInMeetingServiceMgrEvent@@U?$less@PAVISDKInMeetingServiceMgrEvent@@@std@@V?$allocator@PAVISDKInMeetingServiceMgrEvent@@@3@$0A@@std@@@std@@QAEXPAU?$_Tree_node@PAVISDKInMeetingServiceMgrEvent@@PAX@2@@Z 004303c0 f i sdk_util.obj
 0001:0002f3c0       ?_Freenode0@?$_Tree_comp_alloc@V?$_Tset_traits@PAVIMeetingParticipantsCtrlEvent@ZOOMSDK@@U?$less@PAVIMeetingParticipantsCtrlEvent@ZOOMSDK@@@std@@V?$allocator@PAVIMeetingParticipantsCtrlEvent@ZOOMSDK@@@4@$0A@@std@@@std@@QAEXPAU?$_Tree_node@PAVIMeetingParticipantsCtrlEvent@ZOOMSDK@@PAX@2@@Z 004303c0 f i sdk_util.obj
 0001:0002f3c0       ?_Freenode0@?$_Tree_comp_alloc@V?$_Tset_traits@PAVIMeetingChatCtrlEvent@ZOOMSDK@@U?$less@PAVIMeetingChatCtrlEvent@ZOOMSDK@@@std@@V?$allocator@PAVIMeetingChatCtrlEvent@ZOOMSDK@@@4@$0A@@std@@@std@@QAEXPAU?$_Tree_node@PAVIMeetingChatCtrlEvent@ZOOMSDK@@PAX@2@@Z 004303c0 f i sdk_util.obj
 0001:0002f3c0       ?_Freenode0@?$_Tree_comp_alloc@V?$_Tset_traits@PAVIAuthServiceEvent@ZOOMSDK@@U?$less@PAVIAuthServiceEvent@ZOOMSDK@@@std@@V?$allocator@PAVIAuthServiceEvent@ZOOMSDK@@@4@$0A@@std@@@std@@QAEXPAU?$_Tree_node@PAVIAuthServiceEvent@ZOOMSDK@@PAX@2@@Z 004303c0 f i sdk_util.obj
 0001:0002f3c0       ?_Freeheadnode@?$_Tree_comp_alloc@V?$_Tset_traits@PAVIMeetingServiceEvent@ZOOMSDK@@U?$less@PAVIMeetingServiceEvent@ZOOMSDK@@@std@@V?$allocator@PAVIMeetingServiceEvent@ZOOMSDK@@@4@$0A@@std@@@std@@QAEXPAU?$_Tree_node@PAVIMeetingServiceEvent@ZOOMSDK@@PAX@2@@Z 004303c0 f i sdk_util.obj
 0001:0002f3f0       ?_Get_data@?$_Tree_comp_alloc@V?$_Tset_traits@PAVIPreMeetingServiceEvent@ZOOMSDK@@U?$less@PAVIPreMeetingServiceEvent@ZOOMSDK@@@std@@V?$allocator@PAVIPreMeetingServiceEvent@ZOOMSDK@@@4@$0A@@std@@@std@@QBEABV?$_Tree_val@U?$_Tree_simple_types@PAVIPreMeetingServiceEvent@ZOOMSDK@@@std@@@2@XZ 004303f0 f i sdk_util.obj
 0001:0002f3f0       ?_Get_data@?$_Tree_comp_alloc@V?$_Tset_traits@PAVIClosedCaptionControllerEvent@ZOOMSDK@@U?$less@PAVIClosedCaptionControllerEvent@ZOOMSDK@@@std@@V?$allocator@PAVIClosedCaptionControllerEvent@ZOOMSDK@@@4@$0A@@std@@@std@@QAEAAV?$_Tree_val@U?$_Tree_simple_types@PAVIClosedCaptionControllerEvent@ZOOMSDK@@@std@@@2@XZ 004303f0 f i sdk_util.obj
 0001:0002f3f0       ?_Get_data@?$_Tree_comp_alloc@V?$_Tset_traits@PAVIMeetingVideoCtrlEvent@ZOOMSDK@@U?$less@PAVIMeetingVideoCtrlEvent@ZOOMSDK@@@std@@V?$allocator@PAVIMeetingVideoCtrlEvent@ZOOMSDK@@@4@$0A@@std@@@std@@QAEAAV?$_Tree_val@U?$_Tree_simple_types@PAVIMeetingVideoCtrlEvent@ZOOMSDK@@@std@@@2@XZ 004303f0 f i sdk_util.obj
 0001:0002f3f0       ?_Getal@?$_Tree_comp_alloc@V?$_Tset_traits@PAVIPreMeetingServiceEvent@ZOOMSDK@@U?$less@PAVIPreMeetingServiceEvent@ZOOMSDK@@@std@@V?$allocator@PAVIPreMeetingServiceEvent@ZOOMSDK@@@4@$0A@@std@@@std@@QBEABV?$allocator@U?$_Tree_node@PAVIPreMeetingServiceEvent@ZOOMSDK@@PAX@std@@@2@XZ 004303f0 f i sdk_util.obj
 0001:0002f3f0       ?_Getal@?$_Tree_comp_alloc@V?$_Tmap_traits@IPAVIUserInfo@ZOOMSDK@@U?$less@I@std@@V?$allocator@U?$pair@$$CBIPAVIUserInfo@ZOOMSDK@@@std@@@4@$0A@@std@@@std@@QAEAAV?$allocator@U?$_Tree_node@U?$pair@$$CBIPAVIUserInfo@ZOOMSDK@@@std@@PAX@std@@@2@XZ 004303f0 f i user_manager.obj
 0001:0002f3f0       ?_Getal@?$_Tree_comp_alloc@V?$_Tset_traits@PAVIMeetingChatCtrlEvent@ZOOMSDK@@U?$less@PAVIMeetingChatCtrlEvent@ZOOMSDK@@@std@@V?$allocator@PAVIMeetingChatCtrlEvent@ZOOMSDK@@@4@$0A@@std@@@std@@QBEABV?$allocator@U?$_Tree_node@PAVIMeetingChatCtrlEvent@ZOOMSDK@@PAX@std@@@2@XZ 004303f0 f i sdk_util.obj
 0001:0002f3f0       ?_Getal@?$_Tree_comp_alloc@V?$_Tset_traits@PAVIMeetingVideoCtrlEvent@ZOOMSDK@@U?$less@PAVIMeetingVideoCtrlEvent@ZOOMSDK@@@std@@V?$allocator@PAVIMeetingVideoCtrlEvent@ZOOMSDK@@@4@$0A@@std@@@std@@QBEABV?$allocator@U?$_Tree_node@PAVIMeetingVideoCtrlEvent@ZOOMSDK@@PAX@std@@@2@XZ 004303f0 f i sdk_util.obj
 0001:0002f3f0       ?_Getal@?$_Tree_comp_alloc@V?$_Tset_traits@PAVIClosedCaptionControllerEvent@ZOOMSDK@@U?$less@PAVIClosedCaptionControllerEvent@ZOOMSDK@@@std@@V?$allocator@PAVIClosedCaptionControllerEvent@ZOOMSDK@@@4@$0A@@std@@@std@@QAEAAV?$allocator@U?$_Tree_node@PAVIClosedCaptionControllerEvent@ZOOMSDK@@PAX@std@@@2@XZ 004303f0 f i sdk_util.obj
 0001:0002f3f0       ?_Get_data@?$_Tree_comp_alloc@V?$_Tset_traits@PAVIPreMeetingServiceEvent@ZOOMSDK@@U?$less@PAVIPreMeetingServiceEvent@ZOOMSDK@@@std@@V?$allocator@PAVIPreMeetingServiceEvent@ZOOMSDK@@@4@$0A@@std@@@std@@QAEAAV?$_Tree_val@U?$_Tree_simple_types@PAVIPreMeetingServiceEvent@ZOOMSDK@@@std@@@2@XZ 004303f0 f i sdk_util.obj
 0001:0002f3f0       ?_Get_data@?$_Tree_comp_alloc@V?$_Tset_traits@PAVIMeetingChatCtrlEvent@ZOOMSDK@@U?$less@PAVIMeetingChatCtrlEvent@ZOOMSDK@@@std@@V?$allocator@PAVIMeetingChatCtrlEvent@ZOOMSDK@@@4@$0A@@std@@@std@@QBEABV?$_Tree_val@U?$_Tree_simple_types@PAVIMeetingChatCtrlEvent@ZOOMSDK@@@std@@@2@XZ 004303f0 f i sdk_util.obj
 0001:0002f3f0       ?_Get_data@?$_Tree_comp_alloc@V?$_Tset_traits@PAVIMeetingVideoCtrlEvent@ZOOMSDK@@U?$less@PAVIMeetingVideoCtrlEvent@ZOOMSDK@@@std@@V?$allocator@PAVIMeetingVideoCtrlEvent@ZOOMSDK@@@4@$0A@@std@@@std@@QBEABV?$_Tree_val@U?$_Tree_simple_types@PAVIMeetingVideoCtrlEvent@ZOOMSDK@@@std@@@2@XZ 004303f0 f i sdk_util.obj
 0001:0002f3f0       ?_Get_data@?$_Tree_comp_alloc@V?$_Tset_traits@PAVIClosedCaptionControllerEvent@ZOOMSDK@@U?$less@PAVIClosedCaptionControllerEvent@ZOOMSDK@@@std@@V?$allocator@PAVIClosedCaptionControllerEvent@ZOOMSDK@@@4@$0A@@std@@@std@@QBEABV?$_Tree_val@U?$_Tree_simple_types@PAVIClosedCaptionControllerEvent@ZOOMSDK@@@std@@@2@XZ 004303f0 f i sdk_util.obj
 0001:0002f3f0       ?_Getal@?$_Tree_comp_alloc@V?$_Tset_traits@PAVIMeetingParticipantsCtrlEvent@ZOOMSDK@@U?$less@PAVIMeetingParticipantsCtrlEvent@ZOOMSDK@@@std@@V?$allocator@PAVIMeetingParticipantsCtrlEvent@ZOOMSDK@@@4@$0A@@std@@@std@@QBEABV?$allocator@U?$_Tree_node@PAVIMeetingParticipantsCtrlEvent@ZOOMSDK@@PAX@std@@@2@XZ 004303f0 f i sdk_util.obj
 0001:0002f3f0       ?_Get_data@?$_Tree_comp_alloc@V?$_Tset_traits@PAVIMeetingServiceEvent@ZOOMSDK@@U?$less@PAVIMeetingServiceEvent@ZOOMSDK@@@std@@V?$allocator@PAVIMeetingServiceEvent@ZOOMSDK@@@4@$0A@@std@@@std@@QBEABV?$_Tree_val@U?$_Tree_simple_types@PAVIMeetingServiceEvent@ZOOMSDK@@@std@@@2@XZ 004303f0 f i sdk_util.obj
 0001:0002f3f0       ?_Get_data@?$_Tree_comp_alloc@V?$_Tmap_traits@IPAVIUserInfo@ZOOMSDK@@U?$less@I@std@@V?$allocator@U?$pair@$$CBIPAVIUserInfo@ZOOMSDK@@@std@@@4@$0A@@std@@@std@@QAEAAV?$_Tree_val@U?$_Tree_simple_types@U?$pair@$$CBIPAVIUserInfo@ZOOMSDK@@@std@@@std@@@2@XZ 004303f0 f i user_manager.obj
 0001:0002f3f0       ?_Getal@?$_Tree_comp_alloc@V?$_Tset_traits@PAVIPreMeetingServiceEvent@ZOOMSDK@@U?$less@PAVIPreMeetingServiceEvent@ZOOMSDK@@@std@@V?$allocator@PAVIPreMeetingServiceEvent@ZOOMSDK@@@4@$0A@@std@@@std@@QAEAAV?$allocator@U?$_Tree_node@PAVIPreMeetingServiceEvent@ZOOMSDK@@PAX@std@@@2@XZ 004303f0 f i sdk_util.obj
 0001:0002f3f0       ?_Get_data@?$_Tree_comp_alloc@V?$_Tmap_traits@IPAVIUserInfo@ZOOMSDK@@U?$less@I@std@@V?$allocator@U?$pair@$$CBIPAVIUserInfo@ZOOMSDK@@@std@@@4@$0A@@std@@@std@@QBEABV?$_Tree_val@U?$_Tree_simple_types@U?$pair@$$CBIPAVIUserInfo@ZOOMSDK@@@std@@@std@@@2@XZ 004303f0 f i user_manager.obj
 0001:0002f3f0       ?_Getal@?$_Tree_comp_alloc@V?$_Tset_traits@PAVIClosedCaptionControllerEvent@ZOOMSDK@@U?$less@PAVIClosedCaptionControllerEvent@ZOOMSDK@@@std@@V?$allocator@PAVIClosedCaptionControllerEvent@ZOOMSDK@@@4@$0A@@std@@@std@@QBEABV?$allocator@U?$_Tree_node@PAVIClosedCaptionControllerEvent@ZOOMSDK@@PAX@std@@@2@XZ 004303f0 f i sdk_util.obj
 0001:0002f3f0       ?_Get_data@?$_Tree_comp_alloc@V?$_Tset_traits@PAVIMeetingServiceEvent@ZOOMSDK@@U?$less@PAVIMeetingServiceEvent@ZOOMSDK@@@std@@V?$allocator@PAVIMeetingServiceEvent@ZOOMSDK@@@4@$0A@@std@@@std@@QAEAAV?$_Tree_val@U?$_Tree_simple_types@PAVIMeetingServiceEvent@ZOOMSDK@@@std@@@2@XZ 004303f0 f i sdk_util.obj
 0001:0002f3f0       ?_Getal@?$_Tree_comp_alloc@V?$_Tset_traits@PAVIAuthServiceEvent@ZOOMSDK@@U?$less@PAVIAuthServiceEvent@ZOOMSDK@@@std@@V?$allocator@PAVIAuthServiceEvent@ZOOMSDK@@@4@$0A@@std@@@std@@QAEAAV?$allocator@U?$_Tree_node@PAVIAuthServiceEvent@ZOOMSDK@@PAX@std@@@2@XZ 004303f0 f i sdk_util.obj
 0001:0002f3f0       ?_Get_data@?$_Tree_comp_alloc@V?$_Tset_traits@PAVIMeetingChatCtrlEvent@ZOOMSDK@@U?$less@PAVIMeetingChatCtrlEvent@ZOOMSDK@@@std@@V?$allocator@PAVIMeetingChatCtrlEvent@ZOOMSDK@@@4@$0A@@std@@@std@@QAEAAV?$_Tree_val@U?$_Tree_simple_types@PAVIMeetingChatCtrlEvent@ZOOMSDK@@@std@@@2@XZ 004303f0 f i sdk_util.obj
 0001:0002f3f0       ?_Getal@?$_Tree_comp_alloc@V?$_Tset_traits@PAVIMeetingParticipantsCtrlEvent@ZOOMSDK@@U?$less@PAVIMeetingParticipantsCtrlEvent@ZOOMSDK@@@std@@V?$allocator@PAVIMeetingParticipantsCtrlEvent@ZOOMSDK@@@4@$0A@@std@@@std@@QAEAAV?$allocator@U?$_Tree_node@PAVIMeetingParticipantsCtrlEvent@ZOOMSDK@@PAX@std@@@2@XZ 004303f0 f i sdk_util.obj
 0001:0002f3f0       ?_Get_data@?$_Tree_comp_alloc@V?$_Tset_traits@PAVIMeetingParticipantsCtrlEvent@ZOOMSDK@@U?$less@PAVIMeetingParticipantsCtrlEvent@ZOOMSDK@@@std@@V?$allocator@PAVIMeetingParticipantsCtrlEvent@ZOOMSDK@@@4@$0A@@std@@@std@@QAEAAV?$_Tree_val@U?$_Tree_simple_types@PAVIMeetingParticipantsCtrlEvent@ZOOMSDK@@@std@@@2@XZ 004303f0 f i sdk_util.obj
 0001:0002f3f0       ?_Getal@?$_Tree_comp_alloc@V?$_Tset_traits@PAVISDKInMeetingServiceMgrEvent@@U?$less@PAVISDKInMeetingServiceMgrEvent@@@std@@V?$allocator@PAVISDKInMeetingServiceMgrEvent@@@3@$0A@@std@@@std@@QBEABV?$allocator@U?$_Tree_node@PAVISDKInMeetingServiceMgrEvent@@PAX@std@@@2@XZ 004303f0 f i sdk_util.obj
 0001:0002f3f0       ?_Getal@?$_Tree_comp_alloc@V?$_Tset_traits@PAVIMeetingChatCtrlEvent@ZOOMSDK@@U?$less@PAVIMeetingChatCtrlEvent@ZOOMSDK@@@std@@V?$allocator@PAVIMeetingChatCtrlEvent@ZOOMSDK@@@4@$0A@@std@@@std@@QAEAAV?$allocator@U?$_Tree_node@PAVIMeetingChatCtrlEvent@ZOOMSDK@@PAX@std@@@2@XZ 004303f0 f i sdk_util.obj
 0001:0002f3f0       ?_Get_data@?$_Tree_comp_alloc@V?$_Tset_traits@PAVIAuthServiceEvent@ZOOMSDK@@U?$less@PAVIAuthServiceEvent@ZOOMSDK@@@std@@V?$allocator@PAVIAuthServiceEvent@ZOOMSDK@@@4@$0A@@std@@@std@@QBEABV?$_Tree_val@U?$_Tree_simple_types@PAVIAuthServiceEvent@ZOOMSDK@@@std@@@2@XZ 004303f0 f i sdk_util.obj
 0001:0002f3f0       ?_Getal@?$_Tree_comp_alloc@V?$_Tset_traits@PAVIMeetingServiceEvent@ZOOMSDK@@U?$less@PAVIMeetingServiceEvent@ZOOMSDK@@@std@@V?$allocator@PAVIMeetingServiceEvent@ZOOMSDK@@@4@$0A@@std@@@std@@QBEABV?$allocator@U?$_Tree_node@PAVIMeetingServiceEvent@ZOOMSDK@@PAX@std@@@2@XZ 004303f0 f i sdk_util.obj
 0001:0002f3f0       ?_Get_data@?$_Tree_comp_alloc@V?$_Tset_traits@PAVIMeetingParticipantsCtrlEvent@ZOOMSDK@@U?$less@PAVIMeetingParticipantsCtrlEvent@ZOOMSDK@@@std@@V?$allocator@PAVIMeetingParticipantsCtrlEvent@ZOOMSDK@@@4@$0A@@std@@@std@@QBEABV?$_Tree_val@U?$_Tree_simple_types@PAVIMeetingParticipantsCtrlEvent@ZOOMSDK@@@std@@@2@XZ 004303f0 f i sdk_util.obj
 0001:0002f3f0       ?_Get_data@?$_Tree_comp_alloc@V?$_Tset_traits@PAVISDKInMeetingServiceMgrEvent@@U?$less@PAVISDKInMeetingServiceMgrEvent@@@std@@V?$allocator@PAVISDKInMeetingServiceMgrEvent@@@3@$0A@@std@@@std@@QBEABV?$_Tree_val@U?$_Tree_simple_types@PAVISDKInMeetingServiceMgrEvent@@@std@@@2@XZ 004303f0 f i sdk_util.obj
 0001:0002f3f0       ?_Get_data@?$_Tree_comp_alloc@V?$_Tset_traits@PAVIAuthServiceEvent@ZOOMSDK@@U?$less@PAVIAuthServiceEvent@ZOOMSDK@@@std@@V?$allocator@PAVIAuthServiceEvent@ZOOMSDK@@@4@$0A@@std@@@std@@QAEAAV?$_Tree_val@U?$_Tree_simple_types@PAVIAuthServiceEvent@ZOOMSDK@@@std@@@2@XZ 004303f0 f i sdk_util.obj
 0001:0002f3f0       ?_Getal@?$_Tree_comp_alloc@V?$_Tset_traits@PAVIMeetingServiceEvent@ZOOMSDK@@U?$less@PAVIMeetingServiceEvent@ZOOMSDK@@@std@@V?$allocator@PAVIMeetingServiceEvent@ZOOMSDK@@@4@$0A@@std@@@std@@QAEAAV?$allocator@U?$_Tree_node@PAVIMeetingServiceEvent@ZOOMSDK@@PAX@std@@@2@XZ 004303f0 f i sdk_util.obj
 0001:0002f3f0       ?_Getal@?$_Tree_comp_alloc@V?$_Tmap_traits@IPAVIUserInfo@ZOOMSDK@@U?$less@I@std@@V?$allocator@U?$pair@$$CBIPAVIUserInfo@ZOOMSDK@@@std@@@4@$0A@@std@@@std@@QBEABV?$allocator@U?$_Tree_node@U?$pair@$$CBIPAVIUserInfo@ZOOMSDK@@@std@@PAX@std@@@2@XZ 004303f0 f i user_manager.obj
 0001:0002f3f0       ?_Getal@?$_Tree_comp_alloc@V?$_Tset_traits@PAVIMeetingVideoCtrlEvent@ZOOMSDK@@U?$less@PAVIMeetingVideoCtrlEvent@ZOOMSDK@@@std@@V?$allocator@PAVIMeetingVideoCtrlEvent@ZOOMSDK@@@4@$0A@@std@@@std@@QAEAAV?$allocator@U?$_Tree_node@PAVIMeetingVideoCtrlEvent@ZOOMSDK@@PAX@std@@@2@XZ 004303f0 f i sdk_util.obj
 0001:0002f3f0       ?_Getal@?$_Tree_comp_alloc@V?$_Tset_traits@PAVIAuthServiceEvent@ZOOMSDK@@U?$less@PAVIAuthServiceEvent@ZOOMSDK@@@std@@V?$allocator@PAVIAuthServiceEvent@ZOOMSDK@@@4@$0A@@std@@@std@@QBEABV?$allocator@U?$_Tree_node@PAVIAuthServiceEvent@ZOOMSDK@@PAX@std@@@2@XZ 004303f0 f i sdk_util.obj
 0001:0002f3f0       ?_Getal@?$_Tree_comp_alloc@V?$_Tset_traits@PAVISDKInMeetingServiceMgrEvent@@U?$less@PAVISDKInMeetingServiceMgrEvent@@@std@@V?$allocator@PAVISDKInMeetingServiceMgrEvent@@@3@$0A@@std@@@std@@QAEAAV?$allocator@U?$_Tree_node@PAVISDKInMeetingServiceMgrEvent@@PAX@std@@@2@XZ 004303f0 f i sdk_util.obj
 0001:0002f3f0       ?_Get_data@?$_Tree_comp_alloc@V?$_Tset_traits@PAVISDKInMeetingServiceMgrEvent@@U?$less@PAVISDKInMeetingServiceMgrEvent@@@std@@V?$allocator@PAVISDKInMeetingServiceMgrEvent@@@3@$0A@@std@@@std@@QAEAAV?$_Tree_val@U?$_Tree_simple_types@PAVISDKInMeetingServiceMgrEvent@@@std@@@2@XZ 004303f0 f i sdk_util.obj
 0001:0002f410       ?_Getcont@_Iterator_base0@std@@QBEPBU_Container_base0@2@XZ 00430410 f i sdk_util.obj
 0001:0002f420       ?_Key@?$_Tree@V?$_Tset_traits@PAVIMeetingServiceEvent@ZOOMSDK@@U?$less@PAVIMeetingServiceEvent@ZOOMSDK@@@std@@V?$allocator@PAVIMeetingServiceEvent@ZOOMSDK@@@4@$0A@@std@@@std@@IBEABQAVIMeetingServiceEvent@ZOOMSDK@@PAU?$_Tree_node@PAVIMeetingServiceEvent@ZOOMSDK@@PAX@2@@Z 00430420 f i sdk_util.obj
 0001:0002f420       ?_Key@?$_Tree@V?$_Tset_traits@PAVIAuthServiceEvent@ZOOMSDK@@U?$less@PAVIAuthServiceEvent@ZOOMSDK@@@std@@V?$allocator@PAVIAuthServiceEvent@ZOOMSDK@@@4@$0A@@std@@@std@@IBEABQAVIAuthServiceEvent@ZOOMSDK@@PAU?$_Tree_node@PAVIAuthServiceEvent@ZOOMSDK@@PAX@2@@Z 00430420 f i sdk_util.obj
 0001:0002f420       ?_Key@?$_Tree@V?$_Tset_traits@PAVIMeetingParticipantsCtrlEvent@ZOOMSDK@@U?$less@PAVIMeetingParticipantsCtrlEvent@ZOOMSDK@@@std@@V?$allocator@PAVIMeetingParticipantsCtrlEvent@ZOOMSDK@@@4@$0A@@std@@@std@@IBEABQAVIMeetingParticipantsCtrlEvent@ZOOMSDK@@PAU?$_Tree_node@PAVIMeetingParticipantsCtrlEvent@ZOOMSDK@@PAX@2@@Z 00430420 f i sdk_util.obj
 0001:0002f420       ?_Key@?$_Tree@V?$_Tset_traits@PAVISDKInMeetingServiceMgrEvent@@U?$less@PAVISDKInMeetingServiceMgrEvent@@@std@@V?$allocator@PAVISDKInMeetingServiceMgrEvent@@@3@$0A@@std@@@std@@IBEABQAVISDKInMeetingServiceMgrEvent@@PAU?$_Tree_node@PAVISDKInMeetingServiceMgrEvent@@PAX@2@@Z 00430420 f i sdk_util.obj
 0001:0002f420       ?_Key@?$_Tree@V?$_Tset_traits@PAVIMeetingVideoCtrlEvent@ZOOMSDK@@U?$less@PAVIMeetingVideoCtrlEvent@ZOOMSDK@@@std@@V?$allocator@PAVIMeetingVideoCtrlEvent@ZOOMSDK@@@4@$0A@@std@@@std@@IBEABQAVIMeetingVideoCtrlEvent@ZOOMSDK@@PAU?$_Tree_node@PAVIMeetingVideoCtrlEvent@ZOOMSDK@@PAX@2@@Z 00430420 f i sdk_util.obj
 0001:0002f420       ?_Key@?$_Tree@V?$_Tset_traits@PAVIMeetingChatCtrlEvent@ZOOMSDK@@U?$less@PAVIMeetingChatCtrlEvent@ZOOMSDK@@@std@@V?$allocator@PAVIMeetingChatCtrlEvent@ZOOMSDK@@@4@$0A@@std@@@std@@IBEABQAVIMeetingChatCtrlEvent@ZOOMSDK@@PAU?$_Tree_node@PAVIMeetingChatCtrlEvent@ZOOMSDK@@PAX@2@@Z 00430420 f i sdk_util.obj
 0001:0002f420       ?_Key@?$_Tree@V?$_Tset_traits@PAVIPreMeetingServiceEvent@ZOOMSDK@@U?$less@PAVIPreMeetingServiceEvent@ZOOMSDK@@@std@@V?$allocator@PAVIPreMeetingServiceEvent@ZOOMSDK@@@4@$0A@@std@@@std@@IBEABQAVIPreMeetingServiceEvent@ZOOMSDK@@PAU?$_Tree_node@PAVIPreMeetingServiceEvent@ZOOMSDK@@PAX@2@@Z 00430420 f i sdk_util.obj
 0001:0002f420       ?_Key@?$_Tree@V?$_Tset_traits@PAVIClosedCaptionControllerEvent@ZOOMSDK@@U?$less@PAVIClosedCaptionControllerEvent@ZOOMSDK@@@std@@V?$allocator@PAVIClosedCaptionControllerEvent@ZOOMSDK@@@4@$0A@@std@@@std@@IBEABQAVIClosedCaptionControllerEvent@ZOOMSDK@@PAU?$_Tree_node@PAVIClosedCaptionControllerEvent@ZOOMSDK@@PAX@2@@Z 00430420 f i sdk_util.obj
 0001:0002f420       ?_Key@?$_Tree@V?$_Tmap_traits@IPAVIUserInfo@ZOOMSDK@@U?$less@I@std@@V?$allocator@U?$pair@$$CBIPAVIUserInfo@ZOOMSDK@@@std@@@4@$0A@@std@@@std@@IBEABIPAU?$_Tree_node@U?$pair@$$CBIPAVIUserInfo@ZOOMSDK@@@std@@PAX@2@@Z 00430420 f i user_manager.obj
 0001:0002f440       ?_Kfn@?$_Tree@V?$_Tset_traits@PAVIMeetingServiceEvent@ZOOMSDK@@U?$less@PAVIMeetingServiceEvent@ZOOMSDK@@@std@@V?$allocator@PAVIMeetingServiceEvent@ZOOMSDK@@@4@$0A@@std@@@std@@IBEABQAVIMeetingServiceEvent@ZOOMSDK@@ABQAV34@@Z 00430440 f i sdk_util.obj
 0001:0002f440       ?_Kfn@?$_Tree@V?$_Tset_traits@PAVIMeetingParticipantsCtrlEvent@ZOOMSDK@@U?$less@PAVIMeetingParticipantsCtrlEvent@ZOOMSDK@@@std@@V?$allocator@PAVIMeetingParticipantsCtrlEvent@ZOOMSDK@@@4@$0A@@std@@@std@@IBEABQAVIMeetingParticipantsCtrlEvent@ZOOMSDK@@ABQAV34@@Z 00430440 f i sdk_util.obj
 0001:0002f440       ?_Kfn@?$_Tree@V?$_Tset_traits@PAVIMeetingVideoCtrlEvent@ZOOMSDK@@U?$less@PAVIMeetingVideoCtrlEvent@ZOOMSDK@@@std@@V?$allocator@PAVIMeetingVideoCtrlEvent@ZOOMSDK@@@4@$0A@@std@@@std@@IBEABQAVIMeetingVideoCtrlEvent@ZOOMSDK@@ABQAV34@@Z 00430440 f i sdk_util.obj
 0001:0002f440       ?_Kfn@?$_Tree@V?$_Tset_traits@PAVIPreMeetingServiceEvent@ZOOMSDK@@U?$less@PAVIPreMeetingServiceEvent@ZOOMSDK@@@std@@V?$allocator@PAVIPreMeetingServiceEvent@ZOOMSDK@@@4@$0A@@std@@@std@@IBEABQAVIPreMeetingServiceEvent@ZOOMSDK@@ABQAV34@@Z 00430440 f i sdk_util.obj
 0001:0002f440       ?_Kfn@?$_Tree@V?$_Tset_traits@PAVIAuthServiceEvent@ZOOMSDK@@U?$less@PAVIAuthServiceEvent@ZOOMSDK@@@std@@V?$allocator@PAVIAuthServiceEvent@ZOOMSDK@@@4@$0A@@std@@@std@@IBEABQAVIAuthServiceEvent@ZOOMSDK@@ABQAV34@@Z 00430440 f i sdk_util.obj
 0001:0002f440       ?_Kfn@?$_Tree@V?$_Tset_traits@PAVISDKInMeetingServiceMgrEvent@@U?$less@PAVISDKInMeetingServiceMgrEvent@@@std@@V?$allocator@PAVISDKInMeetingServiceMgrEvent@@@3@$0A@@std@@@std@@IBEABQAVISDKInMeetingServiceMgrEvent@@ABQAV3@@Z 00430440 f i sdk_util.obj
 0001:0002f440       ?_Kfn@?$_Tree@V?$_Tmap_traits@IPAVIUserInfo@ZOOMSDK@@U?$less@I@std@@V?$allocator@U?$pair@$$CBIPAVIUserInfo@ZOOMSDK@@@std@@@4@$0A@@std@@@std@@IBEABIABU?$pair@$$CBIPAVIUserInfo@ZOOMSDK@@@2@@Z 00430440 f i user_manager.obj
 0001:0002f440       ?_Kfn@?$_Tree@V?$_Tset_traits@PAVIClosedCaptionControllerEvent@ZOOMSDK@@U?$less@PAVIClosedCaptionControllerEvent@ZOOMSDK@@@std@@V?$allocator@PAVIClosedCaptionControllerEvent@ZOOMSDK@@@4@$0A@@std@@@std@@IBEABQAVIClosedCaptionControllerEvent@ZOOMSDK@@ABQAV34@@Z 00430440 f i sdk_util.obj
 0001:0002f440       ?_Kfn@?$_Tree@V?$_Tset_traits@PAVIMeetingChatCtrlEvent@ZOOMSDK@@U?$less@PAVIMeetingChatCtrlEvent@ZOOMSDK@@@std@@V?$allocator@PAVIMeetingChatCtrlEvent@ZOOMSDK@@@4@$0A@@std@@@std@@IBEABQAVIMeetingChatCtrlEvent@ZOOMSDK@@ABQAV34@@Z 00430440 f i sdk_util.obj
 0001:0002f460       ?_Lmost@?$_Tree_val@U?$_Tree_simple_types@PAVIMeetingServiceEvent@ZOOMSDK@@@std@@@std@@QBEAAPAU?$_Tree_node@PAVIMeetingServiceEvent@ZOOMSDK@@PAX@2@XZ 00430460 f i sdk_util.obj
 0001:0002f460       ?_Lmost@?$_Tree_val@U?$_Tree_simple_types@U?$pair@$$CBIPAVIUserInfo@ZOOMSDK@@@std@@@std@@@std@@QBEAAPAU?$_Tree_node@U?$pair@$$CBIPAVIUserInfo@ZOOMSDK@@@std@@PAX@2@XZ 00430460 f i user_manager.obj
 0001:0002f460       ?_Lmost@?$_Tree_val@U?$_Tree_simple_types@PAVIClosedCaptionControllerEvent@ZOOMSDK@@@std@@@std@@QBEAAPAU?$_Tree_node@PAVIClosedCaptionControllerEvent@ZOOMSDK@@PAX@2@XZ 00430460 f i sdk_util.obj
 0001:0002f460       ?_Lmost@?$_Tree_val@U?$_Tree_simple_types@PAVIPreMeetingServiceEvent@ZOOMSDK@@@std@@@std@@QBEAAPAU?$_Tree_node@PAVIPreMeetingServiceEvent@ZOOMSDK@@PAX@2@XZ 00430460 f i sdk_util.obj
 0001:0002f460       ?_Lmost@?$_Tree_val@U?$_Tree_simple_types@PAVIMeetingVideoCtrlEvent@ZOOMSDK@@@std@@@std@@QBEAAPAU?$_Tree_node@PAVIMeetingVideoCtrlEvent@ZOOMSDK@@PAX@2@XZ 00430460 f i sdk_util.obj
 0001:0002f460       ?_Lmost@?$_Tree_val@U?$_Tree_simple_types@PAVISDKInMeetingServiceMgrEvent@@@std@@@std@@QBEAAPAU?$_Tree_node@PAVISDKInMeetingServiceMgrEvent@@PAX@2@XZ 00430460 f i sdk_util.obj
 0001:0002f460       ?_Lmost@?$_Tree_val@U?$_Tree_simple_types@PAVIMeetingChatCtrlEvent@ZOOMSDK@@@std@@@std@@QBEAAPAU?$_Tree_node@PAVIMeetingChatCtrlEvent@ZOOMSDK@@PAX@2@XZ 00430460 f i sdk_util.obj
 0001:0002f460       ?_Lmost@?$_Tree_val@U?$_Tree_simple_types@PAVIMeetingParticipantsCtrlEvent@ZOOMSDK@@@std@@@std@@QBEAAPAU?$_Tree_node@PAVIMeetingParticipantsCtrlEvent@ZOOMSDK@@PAX@2@XZ 00430460 f i sdk_util.obj
 0001:0002f460       ?_Lmost@?$_Tree_val@U?$_Tree_simple_types@PAVIAuthServiceEvent@ZOOMSDK@@@std@@@std@@QBEAAPAU?$_Tree_node@PAVIAuthServiceEvent@ZOOMSDK@@PAX@2@XZ 00430460 f i sdk_util.obj
 0001:0002f460       ??D?$_Vector_const_iterator@V?$_Vector_val@U?$_Simple_types@PAVIUserInfo@ZOOMSDK@@@std@@@std@@@std@@QBEABQAVIUserInfo@ZOOMSDK@@XZ 00430460 f i user_manager.obj
 0001:0002f470       ?_Lrotate@?$_Tree_val@U?$_Tree_simple_types@PAVISDKInMeetingServiceMgrEvent@@@std@@@std@@QAEXPAU?$_Tree_node@PAVISDKInMeetingServiceMgrEvent@@PAX@2@@Z 00430470 f i sdk_util.obj
 0001:0002f470       ?_Lrotate@?$_Tree_val@U?$_Tree_simple_types@PAVIMeetingServiceEvent@ZOOMSDK@@@std@@@std@@QAEXPAU?$_Tree_node@PAVIMeetingServiceEvent@ZOOMSDK@@PAX@2@@Z 00430470 f i sdk_util.obj
 0001:0002f470       ?_Lrotate@?$_Tree_val@U?$_Tree_simple_types@PAVIMeetingVideoCtrlEvent@ZOOMSDK@@@std@@@std@@QAEXPAU?$_Tree_node@PAVIMeetingVideoCtrlEvent@ZOOMSDK@@PAX@2@@Z 00430470 f i sdk_util.obj
 0001:0002f470       ?_Lrotate@?$_Tree_val@U?$_Tree_simple_types@PAVIClosedCaptionControllerEvent@ZOOMSDK@@@std@@@std@@QAEXPAU?$_Tree_node@PAVIClosedCaptionControllerEvent@ZOOMSDK@@PAX@2@@Z 00430470 f i sdk_util.obj
 0001:0002f470       ?_Lrotate@?$_Tree_val@U?$_Tree_simple_types@PAVIMeetingChatCtrlEvent@ZOOMSDK@@@std@@@std@@QAEXPAU?$_Tree_node@PAVIMeetingChatCtrlEvent@ZOOMSDK@@PAX@2@@Z 00430470 f i sdk_util.obj
 0001:0002f470       ?_Lrotate@?$_Tree_val@U?$_Tree_simple_types@PAVIMeetingParticipantsCtrlEvent@ZOOMSDK@@@std@@@std@@QAEXPAU?$_Tree_node@PAVIMeetingParticipantsCtrlEvent@ZOOMSDK@@PAX@2@@Z 00430470 f i sdk_util.obj
 0001:0002f470       ?_Lrotate@?$_Tree_val@U?$_Tree_simple_types@PAVIPreMeetingServiceEvent@ZOOMSDK@@@std@@@std@@QAEXPAU?$_Tree_node@PAVIPreMeetingServiceEvent@ZOOMSDK@@PAX@2@@Z 00430470 f i sdk_util.obj
 0001:0002f470       ?_Lrotate@?$_Tree_val@U?$_Tree_simple_types@U?$pair@$$CBIPAVIUserInfo@ZOOMSDK@@@std@@@std@@@std@@QAEXPAU?$_Tree_node@U?$pair@$$CBIPAVIUserInfo@ZOOMSDK@@@std@@PAX@2@@Z 00430470 f i user_manager.obj
 0001:0002f470       ?_Lrotate@?$_Tree_val@U?$_Tree_simple_types@PAVIAuthServiceEvent@ZOOMSDK@@@std@@@std@@QAEXPAU?$_Tree_node@PAVIAuthServiceEvent@ZOOMSDK@@PAX@2@@Z 00430470 f i sdk_util.obj
 0001:0002f510       ?_Max@?$_Tree_val@U?$_Tree_simple_types@PAVIAuthServiceEvent@ZOOMSDK@@@std@@@std@@SAPAU?$_Tree_node@PAVIAuthServiceEvent@ZOOMSDK@@PAX@2@PAU32@@Z 00430510 f i sdk_util.obj
 0001:0002f510       ?_Max@?$_Tree_val@U?$_Tree_simple_types@PAVIPreMeetingServiceEvent@ZOOMSDK@@@std@@@std@@SAPAU?$_Tree_node@PAVIPreMeetingServiceEvent@ZOOMSDK@@PAX@2@PAU32@@Z 00430510 f i sdk_util.obj
 0001:0002f510       ?_Max@?$_Tree_val@U?$_Tree_simple_types@PAVIMeetingVideoCtrlEvent@ZOOMSDK@@@std@@@std@@SAPAU?$_Tree_node@PAVIMeetingVideoCtrlEvent@ZOOMSDK@@PAX@2@PAU32@@Z 00430510 f i sdk_util.obj
 0001:0002f510       ?_Max@?$_Tree_val@U?$_Tree_simple_types@PAVIMeetingServiceEvent@ZOOMSDK@@@std@@@std@@SAPAU?$_Tree_node@PAVIMeetingServiceEvent@ZOOMSDK@@PAX@2@PAU32@@Z 00430510 f i sdk_util.obj
 0001:0002f510       ?_Max@?$_Tree_val@U?$_Tree_simple_types@PAVIMeetingChatCtrlEvent@ZOOMSDK@@@std@@@std@@SAPAU?$_Tree_node@PAVIMeetingChatCtrlEvent@ZOOMSDK@@PAX@2@PAU32@@Z 00430510 f i sdk_util.obj
 0001:0002f510       ?_Max@?$_Tree_val@U?$_Tree_simple_types@PAVISDKInMeetingServiceMgrEvent@@@std@@@std@@SAPAU?$_Tree_node@PAVISDKInMeetingServiceMgrEvent@@PAX@2@PAU32@@Z 00430510 f i sdk_util.obj
 0001:0002f510       ?_Max@?$_Tree_val@U?$_Tree_simple_types@PAVIMeetingParticipantsCtrlEvent@ZOOMSDK@@@std@@@std@@SAPAU?$_Tree_node@PAVIMeetingParticipantsCtrlEvent@ZOOMSDK@@PAX@2@PAU32@@Z 00430510 f i sdk_util.obj
 0001:0002f510       ?_Max@?$_Tree_val@U?$_Tree_simple_types@PAVIClosedCaptionControllerEvent@ZOOMSDK@@@std@@@std@@SAPAU?$_Tree_node@PAVIClosedCaptionControllerEvent@ZOOMSDK@@PAX@2@PAU32@@Z 00430510 f i sdk_util.obj
 0001:0002f510       ?_Max@?$_Tree_val@U?$_Tree_simple_types@U?$pair@$$CBIPAVIUserInfo@ZOOMSDK@@@std@@@std@@@std@@SAPAU?$_Tree_node@U?$pair@$$CBIPAVIUserInfo@ZOOMSDK@@@std@@PAX@2@PAU32@@Z 00430510 f i user_manager.obj
 0001:0002f540       ?_Min@?$_Tree_val@U?$_Tree_simple_types@PAVIMeetingServiceEvent@ZOOMSDK@@@std@@@std@@SAPAU?$_Tree_node@PAVIMeetingServiceEvent@ZOOMSDK@@PAX@2@PAU32@@Z 00430540 f i sdk_util.obj
 0001:0002f540       ?_Min@?$_Tree_val@U?$_Tree_simple_types@PAVIMeetingChatCtrlEvent@ZOOMSDK@@@std@@@std@@SAPAU?$_Tree_node@PAVIMeetingChatCtrlEvent@ZOOMSDK@@PAX@2@PAU32@@Z 00430540 f i sdk_util.obj
 0001:0002f540       ?_Min@?$_Tree_val@U?$_Tree_simple_types@PAVIMeetingVideoCtrlEvent@ZOOMSDK@@@std@@@std@@SAPAU?$_Tree_node@PAVIMeetingVideoCtrlEvent@ZOOMSDK@@PAX@2@PAU32@@Z 00430540 f i sdk_util.obj
 0001:0002f540       ?_Min@?$_Tree_val@U?$_Tree_simple_types@PAVISDKInMeetingServiceMgrEvent@@@std@@@std@@SAPAU?$_Tree_node@PAVISDKInMeetingServiceMgrEvent@@PAX@2@PAU32@@Z 00430540 f i sdk_util.obj
 0001:0002f540       ?_Min@?$_Tree_val@U?$_Tree_simple_types@PAVIPreMeetingServiceEvent@ZOOMSDK@@@std@@@std@@SAPAU?$_Tree_node@PAVIPreMeetingServiceEvent@ZOOMSDK@@PAX@2@PAU32@@Z 00430540 f i sdk_util.obj
 0001:0002f540       ?_Min@?$_Tree_val@U?$_Tree_simple_types@PAVIAuthServiceEvent@ZOOMSDK@@@std@@@std@@SAPAU?$_Tree_node@PAVIAuthServiceEvent@ZOOMSDK@@PAX@2@PAU32@@Z 00430540 f i sdk_util.obj
 0001:0002f540       ?_Min@?$_Tree_val@U?$_Tree_simple_types@PAVIMeetingParticipantsCtrlEvent@ZOOMSDK@@@std@@@std@@SAPAU?$_Tree_node@PAVIMeetingParticipantsCtrlEvent@ZOOMSDK@@PAX@2@PAU32@@Z 00430540 f i sdk_util.obj
 0001:0002f540       ?_Min@?$_Tree_val@U?$_Tree_simple_types@PAVIClosedCaptionControllerEvent@ZOOMSDK@@@std@@@std@@SAPAU?$_Tree_node@PAVIClosedCaptionControllerEvent@ZOOMSDK@@PAX@2@PAU32@@Z 00430540 f i sdk_util.obj
 0001:0002f540       ?_Min@?$_Tree_val@U?$_Tree_simple_types@U?$pair@$$CBIPAVIUserInfo@ZOOMSDK@@@std@@@std@@@std@@SAPAU?$_Tree_node@U?$pair@$$CBIPAVIUserInfo@ZOOMSDK@@@std@@PAX@2@PAU32@@Z 00430540 f i user_manager.obj
 0001:0002f560       ?_Root@?$_Tree_val@U?$_Tree_simple_types@PAVIPreMeetingServiceEvent@ZOOMSDK@@@std@@@std@@QBEAAPAU?$_Tree_node@PAVIPreMeetingServiceEvent@ZOOMSDK@@PAX@2@XZ 00430560 f i sdk_util.obj
 0001:0002f560       ?_Root@?$_Tree_val@U?$_Tree_simple_types@PAVIMeetingParticipantsCtrlEvent@ZOOMSDK@@@std@@@std@@QBEAAPAU?$_Tree_node@PAVIMeetingParticipantsCtrlEvent@ZOOMSDK@@PAX@2@XZ 00430560 f i sdk_util.obj
 0001:0002f560       ?_Root@?$_Tree_val@U?$_Tree_simple_types@PAVISDKInMeetingServiceMgrEvent@@@std@@@std@@QBEAAPAU?$_Tree_node@PAVISDKInMeetingServiceMgrEvent@@PAX@2@XZ 00430560 f i sdk_util.obj
 0001:0002f560       ?_Root@?$_Tree_val@U?$_Tree_simple_types@PAVIMeetingVideoCtrlEvent@ZOOMSDK@@@std@@@std@@QBEAAPAU?$_Tree_node@PAVIMeetingVideoCtrlEvent@ZOOMSDK@@PAX@2@XZ 00430560 f i sdk_util.obj
 0001:0002f560       ?_Root@?$_Tree_val@U?$_Tree_simple_types@PAVIMeetingServiceEvent@ZOOMSDK@@@std@@@std@@QBEAAPAU?$_Tree_node@PAVIMeetingServiceEvent@ZOOMSDK@@PAX@2@XZ 00430560 f i sdk_util.obj
 0001:0002f560       ?_Root@?$_Tree_val@U?$_Tree_simple_types@PAVIAuthServiceEvent@ZOOMSDK@@@std@@@std@@QBEAAPAU?$_Tree_node@PAVIAuthServiceEvent@ZOOMSDK@@PAX@2@XZ 00430560 f i sdk_util.obj
 0001:0002f560       ?_Root@?$_Tree_val@U?$_Tree_simple_types@PAVIClosedCaptionControllerEvent@ZOOMSDK@@@std@@@std@@QBEAAPAU?$_Tree_node@PAVIClosedCaptionControllerEvent@ZOOMSDK@@PAX@2@XZ 00430560 f i sdk_util.obj
 0001:0002f560       ?_Root@?$_Tree_val@U?$_Tree_simple_types@U?$pair@$$CBIPAVIUserInfo@ZOOMSDK@@@std@@@std@@@std@@QBEAAPAU?$_Tree_node@U?$pair@$$CBIPAVIUserInfo@ZOOMSDK@@@std@@PAX@2@XZ 00430560 f i user_manager.obj
 0001:0002f560       ?_Root@?$_Tree_val@U?$_Tree_simple_types@PAVIMeetingChatCtrlEvent@ZOOMSDK@@@std@@@std@@QBEAAPAU?$_Tree_node@PAVIMeetingChatCtrlEvent@ZOOMSDK@@PAX@2@XZ 00430560 f i sdk_util.obj
 0001:0002f580       ?_Rrotate@?$_Tree_val@U?$_Tree_simple_types@PAVISDKInMeetingServiceMgrEvent@@@std@@@std@@QAEXPAU?$_Tree_node@PAVISDKInMeetingServiceMgrEvent@@PAX@2@@Z 00430580 f i sdk_util.obj
 0001:0002f580       ?_Rrotate@?$_Tree_val@U?$_Tree_simple_types@PAVIClosedCaptionControllerEvent@ZOOMSDK@@@std@@@std@@QAEXPAU?$_Tree_node@PAVIClosedCaptionControllerEvent@ZOOMSDK@@PAX@2@@Z 00430580 f i sdk_util.obj
 0001:0002f580       ?_Rrotate@?$_Tree_val@U?$_Tree_simple_types@PAVIMeetingChatCtrlEvent@ZOOMSDK@@@std@@@std@@QAEXPAU?$_Tree_node@PAVIMeetingChatCtrlEvent@ZOOMSDK@@PAX@2@@Z 00430580 f i sdk_util.obj
 0001:0002f580       ?_Rrotate@?$_Tree_val@U?$_Tree_simple_types@PAVIMeetingParticipantsCtrlEvent@ZOOMSDK@@@std@@@std@@QAEXPAU?$_Tree_node@PAVIMeetingParticipantsCtrlEvent@ZOOMSDK@@PAX@2@@Z 00430580 f i sdk_util.obj
 0001:0002f580       ?_Rrotate@?$_Tree_val@U?$_Tree_simple_types@U?$pair@$$CBIPAVIUserInfo@ZOOMSDK@@@std@@@std@@@std@@QAEXPAU?$_Tree_node@U?$pair@$$CBIPAVIUserInfo@ZOOMSDK@@@std@@PAX@2@@Z 00430580 f i user_manager.obj
 0001:0002f580       ?_Rrotate@?$_Tree_val@U?$_Tree_simple_types@PAVIAuthServiceEvent@ZOOMSDK@@@std@@@std@@QAEXPAU?$_Tree_node@PAVIAuthServiceEvent@ZOOMSDK@@PAX@2@@Z 00430580 f i sdk_util.obj
 0001:0002f580       ?_Rrotate@?$_Tree_val@U?$_Tree_simple_types@PAVIPreMeetingServiceEvent@ZOOMSDK@@@std@@@std@@QAEXPAU?$_Tree_node@PAVIPreMeetingServiceEvent@ZOOMSDK@@PAX@2@@Z 00430580 f i sdk_util.obj
 0001:0002f580       ?_Rrotate@?$_Tree_val@U?$_Tree_simple_types@PAVIMeetingVideoCtrlEvent@ZOOMSDK@@@std@@@std@@QAEXPAU?$_Tree_node@PAVIMeetingVideoCtrlEvent@ZOOMSDK@@PAX@2@@Z 00430580 f i sdk_util.obj
 0001:0002f580       ?_Rrotate@?$_Tree_val@U?$_Tree_simple_types@PAVIMeetingServiceEvent@ZOOMSDK@@@std@@@std@@QAEXPAU?$_Tree_node@PAVIMeetingServiceEvent@ZOOMSDK@@PAX@2@@Z 00430580 f i sdk_util.obj
 0001:0002f620       ?_Tidy@?$_Tree@V?$_Tset_traits@PAVIMeetingParticipantsCtrlEvent@ZOOMSDK@@U?$less@PAVIMeetingParticipantsCtrlEvent@ZOOMSDK@@@std@@V?$allocator@PAVIMeetingParticipantsCtrlEvent@ZOOMSDK@@@4@$0A@@std@@@std@@IAEXXZ 00430620 f i sdk_util.obj
 0001:0002f620       ?_Tidy@?$_Tree@V?$_Tset_traits@PAVIClosedCaptionControllerEvent@ZOOMSDK@@U?$less@PAVIClosedCaptionControllerEvent@ZOOMSDK@@@std@@V?$allocator@PAVIClosedCaptionControllerEvent@ZOOMSDK@@@4@$0A@@std@@@std@@IAEXXZ 00430620 f i sdk_util.obj
 0001:0002f620       ?_Tidy@?$_Tree@V?$_Tset_traits@PAVIAuthServiceEvent@ZOOMSDK@@U?$less@PAVIAuthServiceEvent@ZOOMSDK@@@std@@V?$allocator@PAVIAuthServiceEvent@ZOOMSDK@@@4@$0A@@std@@@std@@IAEXXZ 00430620 f i sdk_util.obj
 0001:0002f620       ?_Tidy@?$_Tree@V?$_Tset_traits@PAVIPreMeetingServiceEvent@ZOOMSDK@@U?$less@PAVIPreMeetingServiceEvent@ZOOMSDK@@@std@@V?$allocator@PAVIPreMeetingServiceEvent@ZOOMSDK@@@4@$0A@@std@@@std@@IAEXXZ 00430620 f i sdk_util.obj
 0001:0002f620       ?_Tidy@?$_Tree@V?$_Tset_traits@PAVIMeetingVideoCtrlEvent@ZOOMSDK@@U?$less@PAVIMeetingVideoCtrlEvent@ZOOMSDK@@@std@@V?$allocator@PAVIMeetingVideoCtrlEvent@ZOOMSDK@@@4@$0A@@std@@@std@@IAEXXZ 00430620 f i sdk_util.obj
 0001:0002f620       ?_Tidy@?$_Tree@V?$_Tset_traits@PAVIMeetingChatCtrlEvent@ZOOMSDK@@U?$less@PAVIMeetingChatCtrlEvent@ZOOMSDK@@@std@@V?$allocator@PAVIMeetingChatCtrlEvent@ZOOMSDK@@@4@$0A@@std@@@std@@IAEXXZ 00430620 f i sdk_util.obj
 0001:0002f620       ?_Tidy@?$_Tree@V?$_Tset_traits@PAVISDKInMeetingServiceMgrEvent@@U?$less@PAVISDKInMeetingServiceMgrEvent@@@std@@V?$allocator@PAVISDKInMeetingServiceMgrEvent@@@3@$0A@@std@@@std@@IAEXXZ 00430620 f i sdk_util.obj
 0001:0002f620       ?_Tidy@?$_Tree@V?$_Tset_traits@PAVIMeetingServiceEvent@ZOOMSDK@@U?$less@PAVIMeetingServiceEvent@ZOOMSDK@@@std@@V?$allocator@PAVIMeetingServiceEvent@ZOOMSDK@@@4@$0A@@std@@@std@@IAEXXZ 00430620 f i sdk_util.obj
 0001:0002f660       ?_Unwrapped@?$_Tree_const_iterator@V?$_Tree_val@U?$_Tree_simple_types@PAVIMeetingChatCtrlEvent@ZOOMSDK@@@std@@@std@@@std@@QBE?AV?$_Tree_unchecked_const_iterator@V?$_Tree_val@U?$_Tree_simple_types@PAVIMeetingChatCtrlEvent@ZOOMSDK@@@std@@@std@@U_Iterator_base0@2@@2@XZ 00430660 f i sdk_util.obj
 0001:0002f660       ?_Unwrapped@?$_Tree_const_iterator@V?$_Tree_val@U?$_Tree_simple_types@PAVIMeetingServiceEvent@ZOOMSDK@@@std@@@std@@@std@@QBE?AV?$_Tree_unchecked_const_iterator@V?$_Tree_val@U?$_Tree_simple_types@PAVIMeetingServiceEvent@ZOOMSDK@@@std@@@std@@U_Iterator_base0@2@@2@XZ 00430660 f i sdk_util.obj
 0001:0002f660       ?_Unwrapped@?$_Tree_const_iterator@V?$_Tree_val@U?$_Tree_simple_types@PAVIAuthServiceEvent@ZOOMSDK@@@std@@@std@@@std@@QBE?AV?$_Tree_unchecked_const_iterator@V?$_Tree_val@U?$_Tree_simple_types@PAVIAuthServiceEvent@ZOOMSDK@@@std@@@std@@U_Iterator_base0@2@@2@XZ 00430660 f i sdk_util.obj
 0001:0002f660       ?_Unwrapped@?$_Tree_const_iterator@V?$_Tree_val@U?$_Tree_simple_types@PAVIMeetingVideoCtrlEvent@ZOOMSDK@@@std@@@std@@@std@@QBE?AV?$_Tree_unchecked_const_iterator@V?$_Tree_val@U?$_Tree_simple_types@PAVIMeetingVideoCtrlEvent@ZOOMSDK@@@std@@@std@@U_Iterator_base0@2@@2@XZ 00430660 f i sdk_util.obj
 0001:0002f660       ?_Unwrapped@?$_Tree_const_iterator@V?$_Tree_val@U?$_Tree_simple_types@PAVISDKInMeetingServiceMgrEvent@@@std@@@std@@@std@@QBE?AV?$_Tree_unchecked_const_iterator@V?$_Tree_val@U?$_Tree_simple_types@PAVISDKInMeetingServiceMgrEvent@@@std@@@std@@U_Iterator_base0@2@@2@XZ 00430660 f i sdk_util.obj
 0001:0002f660       ?_Unwrapped@?$_Tree_const_iterator@V?$_Tree_val@U?$_Tree_simple_types@PAVIMeetingParticipantsCtrlEvent@ZOOMSDK@@@std@@@std@@@std@@QBE?AV?$_Tree_unchecked_const_iterator@V?$_Tree_val@U?$_Tree_simple_types@PAVIMeetingParticipantsCtrlEvent@ZOOMSDK@@@std@@@std@@U_Iterator_base0@2@@2@XZ 00430660 f i sdk_util.obj
 0001:0002f660       ?_Unwrapped@?$_Tree_const_iterator@V?$_Tree_val@U?$_Tree_simple_types@PAVIPreMeetingServiceEvent@ZOOMSDK@@@std@@@std@@@std@@QBE?AV?$_Tree_unchecked_const_iterator@V?$_Tree_val@U?$_Tree_simple_types@PAVIPreMeetingServiceEvent@ZOOMSDK@@@std@@@std@@U_Iterator_base0@2@@2@XZ 00430660 f i sdk_util.obj
 0001:0002f660       ?_Unwrapped@?$_Tree_const_iterator@V?$_Tree_val@U?$_Tree_simple_types@PAVIClosedCaptionControllerEvent@ZOOMSDK@@@std@@@std@@@std@@QBE?AV?$_Tree_unchecked_const_iterator@V?$_Tree_val@U?$_Tree_simple_types@PAVIClosedCaptionControllerEvent@ZOOMSDK@@@std@@@std@@U_Iterator_base0@2@@2@XZ 00430660 f i sdk_util.obj
 0001:0002f690       ?allocate@?$allocator@U?$_Tree_node@PAVIPreMeetingServiceEvent@ZOOMSDK@@PAX@std@@@std@@QAEPAU?$_Tree_node@PAVIPreMeetingServiceEvent@ZOOMSDK@@PAX@2@I@Z 00430690 f i sdk_util.obj
 0001:0002f690       ?allocate@?$allocator@U?$_Tree_node@PAVIClosedCaptionControllerEvent@ZOOMSDK@@PAX@std@@@std@@QAEPAU?$_Tree_node@PAVIClosedCaptionControllerEvent@ZOOMSDK@@PAX@2@I@Z 00430690 f i sdk_util.obj
 0001:0002f690       ?allocate@?$allocator@U?$_Tree_node@PAVISDKInMeetingServiceMgrEvent@@PAX@std@@@std@@QAEPAU?$_Tree_node@PAVISDKInMeetingServiceMgrEvent@@PAX@2@I@Z 00430690 f i sdk_util.obj
 0001:0002f690       ?allocate@?$allocator@U?$_Tree_node@PAVIMeetingVideoCtrlEvent@ZOOMSDK@@PAX@std@@@std@@QAEPAU?$_Tree_node@PAVIMeetingVideoCtrlEvent@ZOOMSDK@@PAX@2@I@Z 00430690 f i sdk_util.obj
 0001:0002f690       ?allocate@?$allocator@U?$_Tree_node@PAVIMeetingServiceEvent@ZOOMSDK@@PAX@std@@@std@@QAEPAU?$_Tree_node@PAVIMeetingServiceEvent@ZOOMSDK@@PAX@2@I@Z 00430690 f i sdk_util.obj
